(dp1
S'party'
p2
(dp3
S'type'
p4
S'reference party'
p5
sS'sortable'
p6
I2
sS'sql'
p7
S'INTEGER REFERENCES party(id) ON DELETE CASCADE'
p8
ssS'choises'
p9
(dp10
g4
S'list:string'
p11
sg6
I5
sg7
S'TEXT'
p12
ssg4
(dp13
g4
S'string'
p14
sg6
I3
sg7
S'CHAR(512)'
p15
ssS'id'
p16
(dp17
g4
g16
sg6
I1
sg7
S'INTEGER PRIMARY KEY AUTOINCREMENT'
p18
ssS'question'
p19
(dp20
g4
g14
sg6
I4
sg7
S'CHAR(512)'
p21
ss.