(dp1
S'party'
p2
(dp3
S'type'
p4
S'reference party'
p5
sS'sortable'
p6
I2
sS'sql'
p7
S'INTEGER REFERENCES party(id) ON DELETE CASCADE'
p8
ssS'id'
p9
(dp10
g4
g9
sg6
I1
sg7
S'INTEGER PRIMARY KEY AUTOINCREMENT'
p11
ssS'guest'
p12
(dp13
g4
S'reference auth_user'
p14
sg6
I3
sg7
S'INTEGER REFERENCES auth_user(id) ON DELETE CASCADE'
p15
ss.