(dp1
S'output'
p2
S"<type 'exceptions.NameError'> name 'found' is not defined"
p3
sS'layer'
p4
S'C:\\Users\\Osku\\koodaus\\web2py\\applications\\sitsit\\views\\default/sitsit.html'
p5
sS'code'
p6
S"response.write('<html>\\r\\n<head>\\r\\n\\t\\r\\n</head>\\r\\n<body>\\r\\n', escape=False)\nif found==False:\n    response.write('\\r\\nEi loytyny\\r\\n', escape=False)\n    pass\nresponse.write('\\r\\n</body>\\r\\n\\r\\n</html>\\r\\n', escape=False)"
p7
sS'snapshot'
p8
(dp9
S'exception'
p10
(dp11
S'__hash__'
p12
S"<method-wrapper '__hash__' of exceptions.NameError object at 0x04FC0DA0>"
p13
sS'__setattr__'
p14
S"<method-wrapper '__setattr__' of exceptions.NameError object at 0x04FC0DA0>"
p15
sS'__reduce_ex__'
p16
S'<built-in method __reduce_ex__ of exceptions.NameError object at 0x04FC0DA0>'
p17
sS'__getslice__'
p18
S"<method-wrapper '__getslice__' of exceptions.NameError object at 0x04FC0DA0>"
p19
sS'__getitem__'
p20
S"<method-wrapper '__getitem__' of exceptions.NameError object at 0x04FC0DA0>"
p21
sS'__setstate__'
p22
S'<built-in method __setstate__ of exceptions.NameError object at 0x04FC0DA0>'
p23
sS'__reduce__'
p24
S'<built-in method __reduce__ of exceptions.NameError object at 0x04FC0DA0>'
p25
sS'__str__'
p26
S"<method-wrapper '__str__' of exceptions.NameError object at 0x04FC0DA0>"
p27
sS'args'
p28
S'("name \'found\' is not defined",)'
p29
sS'__getattribute__'
p30
S"<method-wrapper '__getattribute__' of exceptions.NameError object at 0x04FC0DA0>"
p31
sS'__class__'
p32
S"<type 'exceptions.NameError'>"
p33
sS'__delattr__'
p34
S"<method-wrapper '__delattr__' of exceptions.NameError object at 0x04FC0DA0>"
p35
sS'__repr__'
p36
S"<method-wrapper '__repr__' of exceptions.NameError object at 0x04FC0DA0>"
p37
sS'__dict__'
p38
S'{}'
p39
sS'__doc__'
p40
S"'Name not found globally.'"
p41
sS'__init__'
p42
S"<method-wrapper '__init__' of exceptions.NameError object at 0x04FC0DA0>"
p43
sS'__new__'
p44
S'<built-in method __new__ of type object at 0x1E1CD8D8>'
p45
ssS'evalue'
p46
S"name 'found' is not defined"
p47
sS'request'
p48
ccopy_reg
_reconstructor
p49
(cgluon.html
BEAUTIFY
p50
c__builtin__
object
p51
NtRp52
(dp53
S'attributes'
p54
(dp55
sS'components'
p56
(lp57
g49
(cgluon.html
TABLE
p58
g51
NtRp59
(dp60
g54
(dp61
S'level'
p62
I5
ssS'parent'
p63
Nsg56
(lp64
g49
(cgluon.html
TR
p65
g51
NtRp66
(dp67
g54
(dp68
sg63
g59
sg56
(lp69
g49
(cgluon.html
TD
p70
g51
NtRp71
(dp72
g54
(dp73
S'_style'
p74
S'font-weight:bold;vertical-align:top'
p75
ssg63
g66
sg56
(lp76
S'ajax'
p77
asbag49
(g70
g51
NtRp78
(dp79
g54
(dp80
S'_valign'
p81
S'top'
p82
ssg63
g66
sg56
(lp83
S':'
asbag49
(g70
g51
NtRp84
(dp85
g54
(dp86
sg63
g66
sg56
(lp87
g49
(g50
g51
NtRp88
(dp89
g54
(dp90
g62
I5
ssg63
g84
sg56
(lp91
S'False'
p92
asbasbasbag49
(g65
g51
NtRp93
(dp94
g54
(dp95
sg63
g59
sg56
(lp96
g49
(g70
g51
NtRp97
(dp98
g54
(dp99
g74
g75
ssg63
g93
sg56
(lp100
S'application'
p101
asbag49
(g70
g51
NtRp102
(dp103
g54
(dp104
g81
g82
ssg63
g93
sg56
(lp105
S':'
asbag49
(g70
g51
NtRp106
(dp107
g54
(dp108
sg63
g93
sg56
(lp109
g49
(g50
g51
NtRp110
(dp111
g54
(dp112
g62
I5
ssg63
g106
sg56
(lp113
S'sitsit'
p114
asbasbasbag49
(g65
g51
NtRp115
(dp116
g54
(dp117
sg63
g59
sg56
(lp118
g49
(g70
g51
NtRp119
(dp120
g54
(dp121
g74
g75
ssg63
g115
sg56
(lp122
g28
asbag49
(g70
g51
NtRp123
(dp124
g54
(dp125
g81
g82
ssg63
g115
sg56
(lp126
S':'
asbag49
(g70
g51
NtRp127
(dp128
g54
(dp129
sg63
g115
sg56
(lp130
g49
(g50
g51
NtRp131
(dp132
g54
(dp133
g62
I5
ssg63
g127
sg56
(lp134
g49
(g58
g51
NtRp135
(dp136
g54
(dp137
g62
I4
ssg63
Nsg56
(lp138
sbasbasbasbag49
(g65
g51
NtRp139
(dp140
g54
(dp141
sg63
g59
sg56
(lp142
g49
(g70
g51
NtRp143
(dp144
g54
(dp145
g74
g75
ssg63
g139
sg56
(lp146
S'body'
p147
asbag49
(g70
g51
NtRp148
(dp149
g54
(dp150
g81
g82
ssg63
g139
sg56
(lp151
S':'
asbag49
(g70
g51
NtRp152
(dp153
g54
(dp154
sg63
g139
sg56
(lp155
g49
(g50
g51
NtRp156
(dp157
g54
(dp158
g62
I5
ssg63
g152
sg56
(lp159
S'<cStringIO.StringO object at 0x04FE9260>'
p160
asbasbasbag49
(g65
g51
NtRp161
(dp162
g54
(dp163
sg63
g59
sg56
(lp164
g49
(g70
g51
NtRp165
(dp166
g54
(dp167
g74
g75
ssg63
g161
sg56
(lp168
S'client'
p169
asbag49
(g70
g51
NtRp170
(dp171
g54
(dp172
g81
g82
ssg63
g161
sg56
(lp173
S':'
asbag49
(g70
g51
NtRp174
(dp175
g54
(dp176
sg63
g161
sg56
(lp177
g49
(g50
g51
NtRp178
(dp179
g54
(dp180
g62
I5
ssg63
g174
sg56
(lp181
S'127.0.0.1'
p182
asbasbasbag49
(g65
g51
NtRp183
(dp184
g54
(dp185
sg63
g59
sg56
(lp186
g49
(g70
g51
NtRp187
(dp188
g54
(dp189
g74
g75
ssg63
g183
sg56
(lp190
S'controller'
p191
asbag49
(g70
g51
NtRp192
(dp193
g54
(dp194
g81
g82
ssg63
g183
sg56
(lp195
S':'
asbag49
(g70
g51
NtRp196
(dp197
g54
(dp198
sg63
g183
sg56
(lp199
g49
(g50
g51
NtRp200
(dp201
g54
(dp202
g62
I5
ssg63
g196
sg56
(lp203
S'default'
p204
asbasbasbag49
(g65
g51
NtRp205
(dp206
g54
(dp207
sg63
g59
sg56
(lp208
g49
(g70
g51
NtRp209
(dp210
g54
(dp211
g74
g75
ssg63
g205
sg56
(lp212
S'cookies'
p213
asbag49
(g70
g51
NtRp214
(dp215
g54
(dp216
g81
g82
ssg63
g205
sg56
(lp217
S':'
asbag49
(g70
g51
NtRp218
(dp219
g54
(dp220
sg63
g205
sg56
(lp221
g49
(g50
g51
NtRp222
(dp223
g54
(dp224
g62
I5
ssg63
g218
sg56
(lp225
g49
(g58
g51
NtRp226
(dp227
g54
(dp228
g62
I4
ssg63
Nsg56
(lp229
g49
(g65
g51
NtRp230
(dp231
g54
(dp232
sg63
g226
sg56
(lp233
g49
(g70
g51
NtRp234
(dp235
g54
(dp236
g74
g75
ssg63
g230
sg56
(lp237
S'session_id_admin'
p238
asbag49
(g70
g51
NtRp239
(dp240
g54
(dp241
g81
g82
ssg63
g230
sg56
(lp242
S':'
asbag49
(g70
g51
NtRp243
(dp244
g54
(dp245
sg63
g230
sg56
(lp246
g49
(g50
g51
NtRp247
(dp248
g54
(dp249
g62
I4
ssg63
g243
sg56
(lp250
g49
(g58
g51
NtRp251
(dp252
g54
(dp253
g62
I3
ssg63
Nsg56
(lp254
g49
(g65
g51
NtRp255
(dp256
g54
(dp257
sg63
g251
sg56
(lp258
g49
(g70
g51
NtRp259
(dp260
g54
(dp261
g74
g75
ssg63
g255
sg56
(lp262
S'comment'
p263
asbag49
(g70
g51
NtRp264
(dp265
g54
(dp266
g81
g82
ssg63
g255
sg56
(lp267
S':'
asbag49
(g70
g51
NtRp268
(dp269
g54
(dp270
sg63
g255
sg56
(lp271
g49
(g50
g51
NtRp272
(dp273
g54
(dp274
g62
I3
ssg63
g268
sg56
(lp275
S''
asbasbasbag49
(g65
g51
NtRp276
(dp277
g54
(dp278
sg63
g251
sg56
(lp279
g49
(g70
g51
NtRp280
(dp281
g54
(dp282
g74
g75
ssg63
g276
sg56
(lp283
S'domain'
p284
asbag49
(g70
g51
NtRp285
(dp286
g54
(dp287
g81
g82
ssg63
g276
sg56
(lp288
S':'
asbag49
(g70
g51
NtRp289
(dp290
g54
(dp291
sg63
g276
sg56
(lp292
g49
(g50
g51
NtRp293
(dp294
g54
(dp295
g62
I3
ssg63
g289
sg56
(lp296
S''
asbasbasbag49
(g65
g51
NtRp297
(dp298
g54
(dp299
sg63
g251
sg56
(lp300
g49
(g70
g51
NtRp301
(dp302
g54
(dp303
g74
g75
ssg63
g297
sg56
(lp304
S'expires'
p305
asbag49
(g70
g51
NtRp306
(dp307
g54
(dp308
g81
g82
ssg63
g297
sg56
(lp309
S':'
asbag49
(g70
g51
NtRp310
(dp311
g54
(dp312
sg63
g297
sg56
(lp313
g49
(g50
g51
NtRp314
(dp315
g54
(dp316
g62
I3
ssg63
g310
sg56
(lp317
S''
asbasbasbag49
(g65
g51
NtRp318
(dp319
g54
(dp320
sg63
g251
sg56
(lp321
g49
(g70
g51
NtRp322
(dp323
g54
(dp324
g74
g75
ssg63
g318
sg56
(lp325
S'max-age'
p326
asbag49
(g70
g51
NtRp327
(dp328
g54
(dp329
g81
g82
ssg63
g318
sg56
(lp330
S':'
asbag49
(g70
g51
NtRp331
(dp332
g54
(dp333
sg63
g318
sg56
(lp334
g49
(g50
g51
NtRp335
(dp336
g54
(dp337
g62
I3
ssg63
g331
sg56
(lp338
S''
asbasbasbag49
(g65
g51
NtRp339
(dp340
g54
(dp341
sg63
g251
sg56
(lp342
g49
(g70
g51
NtRp343
(dp344
g54
(dp345
g74
g75
ssg63
g339
sg56
(lp346
S'path'
p347
asbag49
(g70
g51
NtRp348
(dp349
g54
(dp350
g81
g82
ssg63
g339
sg56
(lp351
S':'
asbag49
(g70
g51
NtRp352
(dp353
g54
(dp354
sg63
g339
sg56
(lp355
g49
(g50
g51
NtRp356
(dp357
g54
(dp358
g62
I3
ssg63
g352
sg56
(lp359
S''
asbasbasbag49
(g65
g51
NtRp360
(dp361
g54
(dp362
sg63
g251
sg56
(lp363
g49
(g70
g51
NtRp364
(dp365
g54
(dp366
g74
g75
ssg63
g360
sg56
(lp367
S'secure'
p368
asbag49
(g70
g51
NtRp369
(dp370
g54
(dp371
g81
g82
ssg63
g360
sg56
(lp372
S':'
asbag49
(g70
g51
NtRp373
(dp374
g54
(dp375
sg63
g360
sg56
(lp376
g49
(g50
g51
NtRp377
(dp378
g54
(dp379
g62
I3
ssg63
g373
sg56
(lp380
S''
asbasbasbag49
(g65
g51
NtRp381
(dp382
g54
(dp383
sg63
g251
sg56
(lp384
g49
(g70
g51
NtRp385
(dp386
g54
(dp387
g74
g75
ssg63
g381
sg56
(lp388
S'version'
p389
asbag49
(g70
g51
NtRp390
(dp391
g54
(dp392
g81
g82
ssg63
g381
sg56
(lp393
S':'
asbag49
(g70
g51
NtRp394
(dp395
g54
(dp396
sg63
g381
sg56
(lp397
g49
(g50
g51
NtRp398
(dp399
g54
(dp400
g62
I3
ssg63
g394
sg56
(lp401
S''
asbasbasbasbasbasbasbag49
(g65
g51
NtRp402
(dp403
g54
(dp404
sg63
g226
sg56
(lp405
g49
(g70
g51
NtRp406
(dp407
g54
(dp408
g74
g75
ssg63
g402
sg56
(lp409
S'session_id_sitsit'
p410
asbag49
(g70
g51
NtRp411
(dp412
g54
(dp413
g81
g82
ssg63
g402
sg56
(lp414
S':'
asbag49
(g70
g51
NtRp415
(dp416
g54
(dp417
sg63
g402
sg56
(lp418
g49
(g50
g51
NtRp419
(dp420
g54
(dp421
g62
I4
ssg63
g415
sg56
(lp422
g49
(g58
g51
NtRp423
(dp424
g54
(dp425
g62
I3
ssg63
Nsg56
(lp426
g49
(g65
g51
NtRp427
(dp428
g54
(dp429
sg63
g423
sg56
(lp430
g49
(g70
g51
NtRp431
(dp432
g54
(dp433
g74
g75
ssg63
g427
sg56
(lp434
g263
asbag49
(g70
g51
NtRp435
(dp436
g54
(dp437
g81
g82
ssg63
g427
sg56
(lp438
S':'
asbag49
(g70
g51
NtRp439
(dp440
g54
(dp441
sg63
g427
sg56
(lp442
g49
(g50
g51
NtRp443
(dp444
g54
(dp445
g62
I3
ssg63
g439
sg56
(lp446
S''
asbasbasbag49
(g65
g51
NtRp447
(dp448
g54
(dp449
sg63
g423
sg56
(lp450
g49
(g70
g51
NtRp451
(dp452
g54
(dp453
g74
g75
ssg63
g447
sg56
(lp454
g284
asbag49
(g70
g51
NtRp455
(dp456
g54
(dp457
g81
g82
ssg63
g447
sg56
(lp458
S':'
asbag49
(g70
g51
NtRp459
(dp460
g54
(dp461
sg63
g447
sg56
(lp462
g49
(g50
g51
NtRp463
(dp464
g54
(dp465
g62
I3
ssg63
g459
sg56
(lp466
S''
asbasbasbag49
(g65
g51
NtRp467
(dp468
g54
(dp469
sg63
g423
sg56
(lp470
g49
(g70
g51
NtRp471
(dp472
g54
(dp473
g74
g75
ssg63
g467
sg56
(lp474
g305
asbag49
(g70
g51
NtRp475
(dp476
g54
(dp477
g81
g82
ssg63
g467
sg56
(lp478
S':'
asbag49
(g70
g51
NtRp479
(dp480
g54
(dp481
sg63
g467
sg56
(lp482
g49
(g50
g51
NtRp483
(dp484
g54
(dp485
g62
I3
ssg63
g479
sg56
(lp486
S''
asbasbasbag49
(g65
g51
NtRp487
(dp488
g54
(dp489
sg63
g423
sg56
(lp490
g49
(g70
g51
NtRp491
(dp492
g54
(dp493
g74
g75
ssg63
g487
sg56
(lp494
g326
asbag49
(g70
g51
NtRp495
(dp496
g54
(dp497
g81
g82
ssg63
g487
sg56
(lp498
S':'
asbag49
(g70
g51
NtRp499
(dp500
g54
(dp501
sg63
g487
sg56
(lp502
g49
(g50
g51
NtRp503
(dp504
g54
(dp505
g62
I3
ssg63
g499
sg56
(lp506
S''
asbasbasbag49
(g65
g51
NtRp507
(dp508
g54
(dp509
sg63
g423
sg56
(lp510
g49
(g70
g51
NtRp511
(dp512
g54
(dp513
g74
g75
ssg63
g507
sg56
(lp514
g347
asbag49
(g70
g51
NtRp515
(dp516
g54
(dp517
g81
g82
ssg63
g507
sg56
(lp518
S':'
asbag49
(g70
g51
NtRp519
(dp520
g54
(dp521
sg63
g507
sg56
(lp522
g49
(g50
g51
NtRp523
(dp524
g54
(dp525
g62
I3
ssg63
g519
sg56
(lp526
S''
asbasbasbag49
(g65
g51
NtRp527
(dp528
g54
(dp529
sg63
g423
sg56
(lp530
g49
(g70
g51
NtRp531
(dp532
g54
(dp533
g74
g75
ssg63
g527
sg56
(lp534
g368
asbag49
(g70
g51
NtRp535
(dp536
g54
(dp537
g81
g82
ssg63
g527
sg56
(lp538
S':'
asbag49
(g70
g51
NtRp539
(dp540
g54
(dp541
sg63
g527
sg56
(lp542
g49
(g50
g51
NtRp543
(dp544
g54
(dp545
g62
I3
ssg63
g539
sg56
(lp546
S''
asbasbasbag49
(g65
g51
NtRp547
(dp548
g54
(dp549
sg63
g423
sg56
(lp550
g49
(g70
g51
NtRp551
(dp552
g54
(dp553
g74
g75
ssg63
g547
sg56
(lp554
g389
asbag49
(g70
g51
NtRp555
(dp556
g54
(dp557
g81
g82
ssg63
g547
sg56
(lp558
S':'
asbag49
(g70
g51
NtRp559
(dp560
g54
(dp561
sg63
g547
sg56
(lp562
g49
(g50
g51
NtRp563
(dp564
g54
(dp565
g62
I3
ssg63
g559
sg56
(lp566
S''
asbasbasbasbasbasbasbag49
(g65
g51
NtRp567
(dp568
g54
(dp569
sg63
g226
sg56
(lp570
g49
(g70
g51
NtRp571
(dp572
g54
(dp573
g74
g75
ssg63
g567
sg56
(lp574
S'session_id_welcome'
p575
asbag49
(g70
g51
NtRp576
(dp577
g54
(dp578
g81
g82
ssg63
g567
sg56
(lp579
S':'
asbag49
(g70
g51
NtRp580
(dp581
g54
(dp582
sg63
g567
sg56
(lp583
g49
(g50
g51
NtRp584
(dp585
g54
(dp586
g62
I4
ssg63
g580
sg56
(lp587
g49
(g58
g51
NtRp588
(dp589
g54
(dp590
g62
I3
ssg63
Nsg56
(lp591
g49
(g65
g51
NtRp592
(dp593
g54
(dp594
sg63
g588
sg56
(lp595
g49
(g70
g51
NtRp596
(dp597
g54
(dp598
g74
g75
ssg63
g592
sg56
(lp599
g263
asbag49
(g70
g51
NtRp600
(dp601
g54
(dp602
g81
g82
ssg63
g592
sg56
(lp603
S':'
asbag49
(g70
g51
NtRp604
(dp605
g54
(dp606
sg63
g592
sg56
(lp607
g49
(g50
g51
NtRp608
(dp609
g54
(dp610
g62
I3
ssg63
g604
sg56
(lp611
S''
asbasbasbag49
(g65
g51
NtRp612
(dp613
g54
(dp614
sg63
g588
sg56
(lp615
g49
(g70
g51
NtRp616
(dp617
g54
(dp618
g74
g75
ssg63
g612
sg56
(lp619
g284
asbag49
(g70
g51
NtRp620
(dp621
g54
(dp622
g81
g82
ssg63
g612
sg56
(lp623
S':'
asbag49
(g70
g51
NtRp624
(dp625
g54
(dp626
sg63
g612
sg56
(lp627
g49
(g50
g51
NtRp628
(dp629
g54
(dp630
g62
I3
ssg63
g624
sg56
(lp631
S''
asbasbasbag49
(g65
g51
NtRp632
(dp633
g54
(dp634
sg63
g588
sg56
(lp635
g49
(g70
g51
NtRp636
(dp637
g54
(dp638
g74
g75
ssg63
g632
sg56
(lp639
g305
asbag49
(g70
g51
NtRp640
(dp641
g54
(dp642
g81
g82
ssg63
g632
sg56
(lp643
S':'
asbag49
(g70
g51
NtRp644
(dp645
g54
(dp646
sg63
g632
sg56
(lp647
g49
(g50
g51
NtRp648
(dp649
g54
(dp650
g62
I3
ssg63
g644
sg56
(lp651
S''
asbasbasbag49
(g65
g51
NtRp652
(dp653
g54
(dp654
sg63
g588
sg56
(lp655
g49
(g70
g51
NtRp656
(dp657
g54
(dp658
g74
g75
ssg63
g652
sg56
(lp659
g326
asbag49
(g70
g51
NtRp660
(dp661
g54
(dp662
g81
g82
ssg63
g652
sg56
(lp663
S':'
asbag49
(g70
g51
NtRp664
(dp665
g54
(dp666
sg63
g652
sg56
(lp667
g49
(g50
g51
NtRp668
(dp669
g54
(dp670
g62
I3
ssg63
g664
sg56
(lp671
S''
asbasbasbag49
(g65
g51
NtRp672
(dp673
g54
(dp674
sg63
g588
sg56
(lp675
g49
(g70
g51
NtRp676
(dp677
g54
(dp678
g74
g75
ssg63
g672
sg56
(lp679
g347
asbag49
(g70
g51
NtRp680
(dp681
g54
(dp682
g81
g82
ssg63
g672
sg56
(lp683
S':'
asbag49
(g70
g51
NtRp684
(dp685
g54
(dp686
sg63
g672
sg56
(lp687
g49
(g50
g51
NtRp688
(dp689
g54
(dp690
g62
I3
ssg63
g684
sg56
(lp691
S''
asbasbasbag49
(g65
g51
NtRp692
(dp693
g54
(dp694
sg63
g588
sg56
(lp695
g49
(g70
g51
NtRp696
(dp697
g54
(dp698
g74
g75
ssg63
g692
sg56
(lp699
g368
asbag49
(g70
g51
NtRp700
(dp701
g54
(dp702
g81
g82
ssg63
g692
sg56
(lp703
S':'
asbag49
(g70
g51
NtRp704
(dp705
g54
(dp706
sg63
g692
sg56
(lp707
g49
(g50
g51
NtRp708
(dp709
g54
(dp710
g62
I3
ssg63
g704
sg56
(lp711
S''
asbasbasbag49
(g65
g51
NtRp712
(dp713
g54
(dp714
sg63
g588
sg56
(lp715
g49
(g70
g51
NtRp716
(dp717
g54
(dp718
g74
g75
ssg63
g712
sg56
(lp719
g389
asbag49
(g70
g51
NtRp720
(dp721
g54
(dp722
g81
g82
ssg63
g712
sg56
(lp723
S':'
asbag49
(g70
g51
NtRp724
(dp725
g54
(dp726
sg63
g712
sg56
(lp727
g49
(g50
g51
NtRp728
(dp729
g54
(dp730
g62
I3
ssg63
g724
sg56
(lp731
S''
asbasbasbasbasbasbasbasbasbasbasbag49
(g65
g51
NtRp732
(dp733
g54
(dp734
sg63
g59
sg56
(lp735
g49
(g70
g51
NtRp736
(dp737
g54
(dp738
g74
g75
ssg63
g732
sg56
(lp739
S'env'
p740
asbag49
(g70
g51
NtRp741
(dp742
g54
(dp743
g81
g82
ssg63
g732
sg56
(lp744
S':'
asbag49
(g70
g51
NtRp745
(dp746
g54
(dp747
sg63
g732
sg56
(lp748
g49
(g50
g51
NtRp749
(dp750
g54
(dp751
g62
I5
ssg63
g745
sg56
(lp752
g49
(g58
g51
NtRp753
(dp754
g54
(dp755
g62
I4
ssg63
Nsg56
(lp756
g49
(g65
g51
NtRp757
(dp758
g54
(dp759
sg63
g753
sg56
(lp760
g49
(g70
g51
NtRp761
(dp762
g54
(dp763
g74
g75
ssg63
g757
sg56
(lp764
S'app_folders'
p765
asbag49
(g70
g51
NtRp766
(dp767
g54
(dp768
g81
g82
ssg63
g757
sg56
(lp769
S':'
asbag49
(g70
g51
NtRp770
(dp771
g54
(dp772
sg63
g757
sg56
(lp773
g49
(g50
g51
NtRp774
(dp775
g54
(dp776
g62
I4
ssg63
g770
sg56
(lp777
S"set(['C:\\\\Users\\\\Osku\\\\koodaus\\\\web2py\\\\applications\\\\sitsit\\\\', 'C:\\\\Users\\\\Osku\\\\koodaus\\\\web2py\\\\applications\\\\welcome\\\\', 'C:\\\\Users\\\\Osku\\\\koodaus\\\\web2py\\\\applications\\\\admin\\\\'])"
p778
asbasbasbag49
(g65
g51
NtRp779
(dp780
g54
(dp781
sg63
g753
sg56
(lp782
g49
(g70
g51
NtRp783
(dp784
g54
(dp785
g74
g75
ssg63
g779
sg56
(lp786
S'applications_parent'
p787
asbag49
(g70
g51
NtRp788
(dp789
g54
(dp790
g81
g82
ssg63
g779
sg56
(lp791
S':'
asbag49
(g70
g51
NtRp792
(dp793
g54
(dp794
sg63
g779
sg56
(lp795
g49
(g50
g51
NtRp796
(dp797
g54
(dp798
g62
I4
ssg63
g792
sg56
(lp799
S'C:\\Users\\Osku\\koodaus\\web2py'
p800
asbasbasbag49
(g65
g51
NtRp801
(dp802
g54
(dp803
sg63
g753
sg56
(lp804
g49
(g70
g51
NtRp805
(dp806
g54
(dp807
g74
g75
ssg63
g801
sg56
(lp808
S'cmd_args'
p809
asbag49
(g70
g51
NtRp810
(dp811
g54
(dp812
g81
g82
ssg63
g801
sg56
(lp813
S':'
asbag49
(g70
g51
NtRp814
(dp815
g54
(dp816
sg63
g801
sg56
(lp817
g49
(g50
g51
NtRp818
(dp819
g54
(dp820
g62
I4
ssg63
g814
sg56
(lp821
g49
(g58
g51
NtRp822
(dp823
g54
(dp824
g62
I3
ssg63
Nsg56
(lp825
sbasbasbasbag49
(g65
g51
NtRp826
(dp827
g54
(dp828
sg63
g753
sg56
(lp829
g49
(g70
g51
NtRp830
(dp831
g54
(dp832
g74
g75
ssg63
g826
sg56
(lp833
S'cmd_options'
p834
asbag49
(g70
g51
NtRp835
(dp836
g54
(dp837
g81
g82
ssg63
g826
sg56
(lp838
S':'
asbag49
(g70
g51
NtRp839
(dp840
g54
(dp841
sg63
g826
sg56
(lp842
g49
(g50
g51
NtRp843
(dp844
g54
(dp845
g62
I4
ssg63
g839
sg56
(lp846
S"<Values at 0x2270030: {'verbose': False, 'ip': '127.0.0.1', 'shutdown_timeout': 5, 'taskbar': False, 'nocron': False, 'pid_filename': 'httpserver.pid', 'maxthreads': None, 'softcron': False, 'server_name': 'Osku-Kannettava', 'bpython': False, 'nogui': False, 'port': 8000, 'extcron': False, 'debuglevel': 30, 'test': None, 'folder': 'C:\\\\Users\\\\Osku\\\\koodaus\\\\web2py', 'config': '', 'import_models': False, 'winservice': '', 'shell': None, 'run': '', 'log_filename': 'httpserver.log', 'args': [''], 'socket_timeout': 5, 'ssl_ca_certificate': None, 'scheduler': None, 'profiler_filename': None, 'ssl_private_key': '', 'password': '<ask>', 'request_queue_size': 5, 'ssl_certificate': '', 'cronjob': False, 'numthreads': None, 'quiet': False, 'interfaces': None, 'minthreads': None, 'timeout': 10, 'plain': False, 'nobanner': False}>"
p847
asbasbasbag49
(g65
g51
NtRp848
(dp849
g54
(dp850
sg63
g753
sg56
(lp851
g49
(g70
g51
NtRp852
(dp853
g54
(dp854
g74
g75
ssg63
g848
sg56
(lp855
S'db_sessions'
p856
asbag49
(g70
g51
NtRp857
(dp858
g54
(dp859
g81
g82
ssg63
g848
sg56
(lp860
S':'
asbag49
(g70
g51
NtRp861
(dp862
g54
(dp863
sg63
g848
sg56
(lp864
g49
(g50
g51
NtRp865
(dp866
g54
(dp867
g62
I4
ssg63
g861
sg56
(lp868
S'set([])'
p869
asbasbasbag49
(g65
g51
NtRp870
(dp871
g54
(dp872
sg63
g753
sg56
(lp873
g49
(g70
g51
NtRp874
(dp875
g54
(dp876
g74
g75
ssg63
g870
sg56
(lp877
S'debugging'
p878
asbag49
(g70
g51
NtRp879
(dp880
g54
(dp881
g81
g82
ssg63
g870
sg56
(lp882
S':'
asbag49
(g70
g51
NtRp883
(dp884
g54
(dp885
sg63
g870
sg56
(lp886
g49
(g50
g51
NtRp887
(dp888
g54
(dp889
g62
I4
ssg63
g883
sg56
(lp890
g92
asbasbasbag49
(g65
g51
NtRp891
(dp892
g54
(dp893
sg63
g753
sg56
(lp894
g49
(g70
g51
NtRp895
(dp896
g54
(dp897
g74
g75
ssg63
g891
sg56
(lp898
S'gluon_parent'
p899
asbag49
(g70
g51
NtRp900
(dp901
g54
(dp902
g81
g82
ssg63
g891
sg56
(lp903
S':'
asbag49
(g70
g51
NtRp904
(dp905
g54
(dp906
sg63
g891
sg56
(lp907
g49
(g50
g51
NtRp908
(dp909
g54
(dp910
g62
I4
ssg63
g904
sg56
(lp911
S'C:\\Users\\Osku\\koodaus\\web2py'
p912
asbasbasbag49
(g65
g51
NtRp913
(dp914
g54
(dp915
sg63
g753
sg56
(lp916
g49
(g70
g51
NtRp917
(dp918
g54
(dp919
g74
g75
ssg63
g913
sg56
(lp920
S'http_accept'
p921
asbag49
(g70
g51
NtRp922
(dp923
g54
(dp924
g81
g82
ssg63
g913
sg56
(lp925
S':'
asbag49
(g70
g51
NtRp926
(dp927
g54
(dp928
sg63
g913
sg56
(lp929
g49
(g50
g51
NtRp930
(dp931
g54
(dp932
g62
I4
ssg63
g926
sg56
(lp933
S'text/html,application/xhtml+xml,application/xml;q=0.9,*/*;q=0.8'
p934
asbasbasbag49
(g65
g51
NtRp935
(dp936
g54
(dp937
sg63
g753
sg56
(lp938
g49
(g70
g51
NtRp939
(dp940
g54
(dp941
g74
g75
ssg63
g935
sg56
(lp942
S'http_accept_charset'
p943
asbag49
(g70
g51
NtRp944
(dp945
g54
(dp946
g81
g82
ssg63
g935
sg56
(lp947
S':'
asbag49
(g70
g51
NtRp948
(dp949
g54
(dp950
sg63
g935
sg56
(lp951
g49
(g50
g51
NtRp952
(dp953
g54
(dp954
g62
I4
ssg63
g948
sg56
(lp955
S'ISO-8859-1,utf-8;q=0.7,*;q=0.3'
p956
asbasbasbag49
(g65
g51
NtRp957
(dp958
g54
(dp959
sg63
g753
sg56
(lp960
g49
(g70
g51
NtRp961
(dp962
g54
(dp963
g74
g75
ssg63
g957
sg56
(lp964
S'http_accept_encoding'
p965
asbag49
(g70
g51
NtRp966
(dp967
g54
(dp968
g81
g82
ssg63
g957
sg56
(lp969
S':'
asbag49
(g70
g51
NtRp970
(dp971
g54
(dp972
sg63
g957
sg56
(lp973
g49
(g50
g51
NtRp974
(dp975
g54
(dp976
g62
I4
ssg63
g970
sg56
(lp977
S'gzip,deflate,sdch'
p978
asbasbasbag49
(g65
g51
NtRp979
(dp980
g54
(dp981
sg63
g753
sg56
(lp982
g49
(g70
g51
NtRp983
(dp984
g54
(dp985
g74
g75
ssg63
g979
sg56
(lp986
S'http_accept_language'
p987
asbag49
(g70
g51
NtRp988
(dp989
g54
(dp990
g81
g82
ssg63
g979
sg56
(lp991
S':'
asbag49
(g70
g51
NtRp992
(dp993
g54
(dp994
sg63
g979
sg56
(lp995
g49
(g50
g51
NtRp996
(dp997
g54
(dp998
g62
I4
ssg63
g992
sg56
(lp999
S'en-GB,en-US;q=0.8,en;q=0.6,fi;q=0.4'
p1000
asbasbasbag49
(g65
g51
NtRp1001
(dp1002
g54
(dp1003
sg63
g753
sg56
(lp1004
g49
(g70
g51
NtRp1005
(dp1006
g54
(dp1007
g74
g75
ssg63
g1001
sg56
(lp1008
S'http_cache_control'
p1009
asbag49
(g70
g51
NtRp1010
(dp1011
g54
(dp1012
g81
g82
ssg63
g1001
sg56
(lp1013
S':'
asbag49
(g70
g51
NtRp1014
(dp1015
g54
(dp1016
sg63
g1001
sg56
(lp1017
g49
(g50
g51
NtRp1018
(dp1019
g54
(dp1020
g62
I4
ssg63
g1014
sg56
(lp1021
S'max-age=0'
p1022
asbasbasbag49
(g65
g51
NtRp1023
(dp1024
g54
(dp1025
sg63
g753
sg56
(lp1026
g49
(g70
g51
NtRp1027
(dp1028
g54
(dp1029
g74
g75
ssg63
g1023
sg56
(lp1030
S'http_connection'
p1031
asbag49
(g70
g51
NtRp1032
(dp1033
g54
(dp1034
g81
g82
ssg63
g1023
sg56
(lp1035
S':'
asbag49
(g70
g51
NtRp1036
(dp1037
g54
(dp1038
sg63
g1023
sg56
(lp1039
g49
(g50
g51
NtRp1040
(dp1041
g54
(dp1042
g62
I4
ssg63
g1036
sg56
(lp1043
S'keep-alive'
p1044
asbasbasbag49
(g65
g51
NtRp1045
(dp1046
g54
(dp1047
sg63
g753
sg56
(lp1048
g49
(g70
g51
NtRp1049
(dp1050
g54
(dp1051
g74
g75
ssg63
g1045
sg56
(lp1052
S'http_cookie'
p1053
asbag49
(g70
g51
NtRp1054
(dp1055
g54
(dp1056
g81
g82
ssg63
g1045
sg56
(lp1057
S':'
asbag49
(g70
g51
NtRp1058
(dp1059
g54
(dp1060
sg63
g1045
sg56
(lp1061
g49
(g50
g51
NtRp1062
(dp1063
g54
(dp1064
g62
I4
ssg63
g1058
sg56
(lp1065
S'session_id_welcome=127.0.0.1-731960a1-ea7c-4af8-ac49-7798aa234dcd; session_id_sitsit=127.0.0.1-ec2284ba-32fe-4a19-9a6f-e97c370381b5; session_id_admin=127.0.0.1-941ea7a4-a42e-46de-bdfb-3dd29fbb7e62'
p1066
asbasbasbag49
(g65
g51
NtRp1067
(dp1068
g54
(dp1069
sg63
g753
sg56
(lp1070
g49
(g70
g51
NtRp1071
(dp1072
g54
(dp1073
g74
g75
ssg63
g1067
sg56
(lp1074
S'http_host'
p1075
asbag49
(g70
g51
NtRp1076
(dp1077
g54
(dp1078
g81
g82
ssg63
g1067
sg56
(lp1079
S':'
asbag49
(g70
g51
NtRp1080
(dp1081
g54
(dp1082
sg63
g1067
sg56
(lp1083
g49
(g50
g51
NtRp1084
(dp1085
g54
(dp1086
g62
I4
ssg63
g1080
sg56
(lp1087
S'127.0.0.1:8000'
p1088
asbasbasbag49
(g65
g51
NtRp1089
(dp1090
g54
(dp1091
sg63
g753
sg56
(lp1092
g49
(g70
g51
NtRp1093
(dp1094
g54
(dp1095
g74
g75
ssg63
g1089
sg56
(lp1096
S'http_referer'
p1097
asbag49
(g70
g51
NtRp1098
(dp1099
g54
(dp1100
g81
g82
ssg63
g1089
sg56
(lp1101
S':'
asbag49
(g70
g51
NtRp1102
(dp1103
g54
(dp1104
sg63
g1089
sg56
(lp1105
g49
(g50
g51
NtRp1106
(dp1107
g54
(dp1108
g62
I4
ssg63
g1102
sg56
(lp1109
S'http://127.0.0.1:8000/sitsit/default/index'
p1110
asbasbasbag49
(g65
g51
NtRp1111
(dp1112
g54
(dp1113
sg63
g753
sg56
(lp1114
g49
(g70
g51
NtRp1115
(dp1116
g54
(dp1117
g74
g75
ssg63
g1111
sg56
(lp1118
S'http_user_agent'
p1119
asbag49
(g70
g51
NtRp1120
(dp1121
g54
(dp1122
g81
g82
ssg63
g1111
sg56
(lp1123
S':'
asbag49
(g70
g51
NtRp1124
(dp1125
g54
(dp1126
sg63
g1111
sg56
(lp1127
g49
(g50
g51
NtRp1128
(dp1129
g54
(dp1130
g62
I4
ssg63
g1124
sg56
(lp1131
S'Mozilla/5.0 (Windows NT 6.1) AppleWebKit/536.11 (KHTML, like Gecko) Chrome/20.0.1132.47 Safari/536.11'
p1132
asbasbasbag49
(g65
g51
NtRp1133
(dp1134
g54
(dp1135
sg63
g753
sg56
(lp1136
g49
(g70
g51
NtRp1137
(dp1138
g54
(dp1139
g74
g75
ssg63
g1133
sg56
(lp1140
S'is_jython'
p1141
asbag49
(g70
g51
NtRp1142
(dp1143
g54
(dp1144
g81
g82
ssg63
g1133
sg56
(lp1145
S':'
asbag49
(g70
g51
NtRp1146
(dp1147
g54
(dp1148
sg63
g1133
sg56
(lp1149
g49
(g50
g51
NtRp1150
(dp1151
g54
(dp1152
g62
I4
ssg63
g1146
sg56
(lp1153
g92
asbasbasbag49
(g65
g51
NtRp1154
(dp1155
g54
(dp1156
sg63
g753
sg56
(lp1157
g49
(g70
g51
NtRp1158
(dp1159
g54
(dp1160
g74
g75
ssg63
g1154
sg56
(lp1161
S'is_pypy'
p1162
asbag49
(g70
g51
NtRp1163
(dp1164
g54
(dp1165
g81
g82
ssg63
g1154
sg56
(lp1166
S':'
asbag49
(g70
g51
NtRp1167
(dp1168
g54
(dp1169
sg63
g1154
sg56
(lp1170
g49
(g50
g51
NtRp1171
(dp1172
g54
(dp1173
g62
I4
ssg63
g1167
sg56
(lp1174
g92
asbasbasbag49
(g65
g51
NtRp1175
(dp1176
g54
(dp1177
sg63
g753
sg56
(lp1178
g49
(g70
g51
NtRp1179
(dp1180
g54
(dp1181
g74
g75
ssg63
g1175
sg56
(lp1182
S'path_info'
p1183
asbag49
(g70
g51
NtRp1184
(dp1185
g54
(dp1186
g81
g82
ssg63
g1175
sg56
(lp1187
S':'
asbag49
(g70
g51
NtRp1188
(dp1189
g54
(dp1190
sg63
g1175
sg56
(lp1191
g49
(g50
g51
NtRp1192
(dp1193
g54
(dp1194
g62
I4
ssg63
g1188
sg56
(lp1195
S'/sitsit/default/sitsit'
p1196
asbasbasbag49
(g65
g51
NtRp1197
(dp1198
g54
(dp1199
sg63
g753
sg56
(lp1200
g49
(g70
g51
NtRp1201
(dp1202
g54
(dp1203
g74
g75
ssg63
g1197
sg56
(lp1204
S'query_string'
p1205
asbag49
(g70
g51
NtRp1206
(dp1207
g54
(dp1208
g81
g82
ssg63
g1197
sg56
(lp1209
S':'
asbag49
(g70
g51
NtRp1210
(dp1211
g54
(dp1212
sg63
g1197
sg56
(lp1213
g49
(g50
g51
NtRp1214
(dp1215
g54
(dp1216
g62
I4
ssg63
g1210
sg56
(lp1217
S''
asbasbasbag49
(g65
g51
NtRp1218
(dp1219
g54
(dp1220
sg63
g753
sg56
(lp1221
g49
(g70
g51
NtRp1222
(dp1223
g54
(dp1224
g74
g75
ssg63
g1218
sg56
(lp1225
S'remote_addr'
p1226
asbag49
(g70
g51
NtRp1227
(dp1228
g54
(dp1229
g81
g82
ssg63
g1218
sg56
(lp1230
S':'
asbag49
(g70
g51
NtRp1231
(dp1232
g54
(dp1233
sg63
g1218
sg56
(lp1234
g49
(g50
g51
NtRp1235
(dp1236
g54
(dp1237
g62
I4
ssg63
g1231
sg56
(lp1238
g182
asbasbasbag49
(g65
g51
NtRp1239
(dp1240
g54
(dp1241
sg63
g753
sg56
(lp1242
g49
(g70
g51
NtRp1243
(dp1244
g54
(dp1245
g74
g75
ssg63
g1239
sg56
(lp1246
S'remote_port'
p1247
asbag49
(g70
g51
NtRp1248
(dp1249
g54
(dp1250
g81
g82
ssg63
g1239
sg56
(lp1251
S':'
asbag49
(g70
g51
NtRp1252
(dp1253
g54
(dp1254
sg63
g1239
sg56
(lp1255
g49
(g50
g51
NtRp1256
(dp1257
g54
(dp1258
g62
I4
ssg63
g1252
sg56
(lp1259
S'57766'
p1260
asbasbasbag49
(g65
g51
NtRp1261
(dp1262
g54
(dp1263
sg63
g753
sg56
(lp1264
g49
(g70
g51
NtRp1265
(dp1266
g54
(dp1267
g74
g75
ssg63
g1261
sg56
(lp1268
S'request_method'
p1269
asbag49
(g70
g51
NtRp1270
(dp1271
g54
(dp1272
g81
g82
ssg63
g1261
sg56
(lp1273
S':'
asbag49
(g70
g51
NtRp1274
(dp1275
g54
(dp1276
sg63
g1261
sg56
(lp1277
g49
(g50
g51
NtRp1278
(dp1279
g54
(dp1280
g62
I4
ssg63
g1274
sg56
(lp1281
S'GET'
p1282
asbasbasbag49
(g65
g51
NtRp1283
(dp1284
g54
(dp1285
sg63
g753
sg56
(lp1286
g49
(g70
g51
NtRp1287
(dp1288
g54
(dp1289
g74
g75
ssg63
g1283
sg56
(lp1290
S'script_name'
p1291
asbag49
(g70
g51
NtRp1292
(dp1293
g54
(dp1294
g81
g82
ssg63
g1283
sg56
(lp1295
S':'
asbag49
(g70
g51
NtRp1296
(dp1297
g54
(dp1298
sg63
g1283
sg56
(lp1299
g49
(g50
g51
NtRp1300
(dp1301
g54
(dp1302
g62
I4
ssg63
g1296
sg56
(lp1303
S''
asbasbasbag49
(g65
g51
NtRp1304
(dp1305
g54
(dp1306
sg63
g753
sg56
(lp1307
g49
(g70
g51
NtRp1308
(dp1309
g54
(dp1310
g74
g75
ssg63
g1304
sg56
(lp1311
S'server_name'
p1312
asbag49
(g70
g51
NtRp1313
(dp1314
g54
(dp1315
g81
g82
ssg63
g1304
sg56
(lp1316
S':'
asbag49
(g70
g51
NtRp1317
(dp1318
g54
(dp1319
sg63
g1304
sg56
(lp1320
g49
(g50
g51
NtRp1321
(dp1322
g54
(dp1323
g62
I4
ssg63
g1317
sg56
(lp1324
S'Osku-Kannettava'
p1325
asbasbasbag49
(g65
g51
NtRp1326
(dp1327
g54
(dp1328
sg63
g753
sg56
(lp1329
g49
(g70
g51
NtRp1330
(dp1331
g54
(dp1332
g74
g75
ssg63
g1326
sg56
(lp1333
S'server_port'
p1334
asbag49
(g70
g51
NtRp1335
(dp1336
g54
(dp1337
g81
g82
ssg63
g1326
sg56
(lp1338
S':'
asbag49
(g70
g51
NtRp1339
(dp1340
g54
(dp1341
sg63
g1326
sg56
(lp1342
g49
(g50
g51
NtRp1343
(dp1344
g54
(dp1345
g62
I4
ssg63
g1339
sg56
(lp1346
S'8000'
p1347
asbasbasbag49
(g65
g51
NtRp1348
(dp1349
g54
(dp1350
sg63
g753
sg56
(lp1351
g49
(g70
g51
NtRp1352
(dp1353
g54
(dp1354
g74
g75
ssg63
g1348
sg56
(lp1355
S'server_protocol'
p1356
asbag49
(g70
g51
NtRp1357
(dp1358
g54
(dp1359
g81
g82
ssg63
g1348
sg56
(lp1360
S':'
asbag49
(g70
g51
NtRp1361
(dp1362
g54
(dp1363
sg63
g1348
sg56
(lp1364
g49
(g50
g51
NtRp1365
(dp1366
g54
(dp1367
g62
I4
ssg63
g1361
sg56
(lp1368
S'HTTP/1.1'
p1369
asbasbasbag49
(g65
g51
NtRp1370
(dp1371
g54
(dp1372
sg63
g753
sg56
(lp1373
g49
(g70
g51
NtRp1374
(dp1375
g54
(dp1376
g74
g75
ssg63
g1370
sg56
(lp1377
S'server_software'
p1378
asbag49
(g70
g51
NtRp1379
(dp1380
g54
(dp1381
g81
g82
ssg63
g1370
sg56
(lp1382
S':'
asbag49
(g70
g51
NtRp1383
(dp1384
g54
(dp1385
sg63
g1370
sg56
(lp1386
g49
(g50
g51
NtRp1387
(dp1388
g54
(dp1389
g62
I4
ssg63
g1383
sg56
(lp1390
S'Rocket 1.2.4'
p1391
asbasbasbag49
(g65
g51
NtRp1392
(dp1393
g54
(dp1394
sg63
g753
sg56
(lp1395
g49
(g70
g51
NtRp1396
(dp1397
g54
(dp1398
g74
g75
ssg63
g1392
sg56
(lp1399
S'web2py_crontype'
p1400
asbag49
(g70
g51
NtRp1401
(dp1402
g54
(dp1403
g81
g82
ssg63
g1392
sg56
(lp1404
S':'
asbag49
(g70
g51
NtRp1405
(dp1406
g54
(dp1407
sg63
g1392
sg56
(lp1408
g49
(g50
g51
NtRp1409
(dp1410
g54
(dp1411
g62
I4
ssg63
g1405
sg56
(lp1412
S'hard'
p1413
asbasbasbag49
(g65
g51
NtRp1414
(dp1415
g54
(dp1416
sg63
g753
sg56
(lp1417
g49
(g70
g51
NtRp1418
(dp1419
g54
(dp1420
g74
g75
ssg63
g1414
sg56
(lp1421
S'web2py_path'
p1422
asbag49
(g70
g51
NtRp1423
(dp1424
g54
(dp1425
g81
g82
ssg63
g1414
sg56
(lp1426
S':'
asbag49
(g70
g51
NtRp1427
(dp1428
g54
(dp1429
sg63
g1414
sg56
(lp1430
g49
(g50
g51
NtRp1431
(dp1432
g54
(dp1433
g62
I4
ssg63
g1427
sg56
(lp1434
g800
asbasbasbag49
(g65
g51
NtRp1435
(dp1436
g54
(dp1437
sg63
g753
sg56
(lp1438
g49
(g70
g51
NtRp1439
(dp1440
g54
(dp1441
g74
g75
ssg63
g1435
sg56
(lp1442
S'web2py_version'
p1443
asbag49
(g70
g51
NtRp1444
(dp1445
g54
(dp1446
g81
g82
ssg63
g1435
sg56
(lp1447
S':'
asbag49
(g70
g51
NtRp1448
(dp1449
g54
(dp1450
sg63
g1435
sg56
(lp1451
g49
(g50
g51
NtRp1452
(dp1453
g54
(dp1454
g62
I4
ssg63
g1448
sg56
(lp1455
g49
(g58
g51
NtRp1456
(dp1457
g54
(dp1458
g62
I3
ssg63
Nsg56
(lp1459
g49
(g65
g51
NtRp1460
(dp1461
g54
(dp1462
sg63
g1456
sg56
(lp1463
g49
(g70
g51
NtRp1464
(dp1465
g54
(dp1466
sg63
g1460
sg56
(lp1467
g49
(g50
g51
NtRp1468
(dp1469
g54
(dp1470
g62
I3
ssg63
g1464
sg56
(lp1471
S'1'
asbasbasbag49
(g65
g51
NtRp1472
(dp1473
g54
(dp1474
sg63
g1456
sg56
(lp1475
g49
(g70
g51
NtRp1476
(dp1477
g54
(dp1478
sg63
g1472
sg56
(lp1479
g49
(g50
g51
NtRp1480
(dp1481
g54
(dp1482
g62
I3
ssg63
g1476
sg56
(lp1483
S'99'
p1484
asbasbasbag49
(g65
g51
NtRp1485
(dp1486
g54
(dp1487
sg63
g1456
sg56
(lp1488
g49
(g70
g51
NtRp1489
(dp1490
g54
(dp1491
sg63
g1485
sg56
(lp1492
g49
(g50
g51
NtRp1493
(dp1494
g54
(dp1495
g62
I3
ssg63
g1489
sg56
(lp1496
S'7'
asbasbasbag49
(g65
g51
NtRp1497
(dp1498
g54
(dp1499
sg63
g1456
sg56
(lp1500
g49
(g70
g51
NtRp1501
(dp1502
g54
(dp1503
sg63
g1497
sg56
(lp1504
g49
(g50
g51
NtRp1505
(dp1506
g54
(dp1507
g62
I3
ssg63
g1501
sg56
(lp1508
S'datetime.datetime(2012, 3, 4, 22, 12, 8)'
p1509
asbasbasbag49
(g65
g51
NtRp1510
(dp1511
g54
(dp1512
sg63
g1456
sg56
(lp1513
g49
(g70
g51
NtRp1514
(dp1515
g54
(dp1516
sg63
g1510
sg56
(lp1517
g49
(g50
g51
NtRp1518
(dp1519
g54
(dp1520
g62
I3
ssg63
g1514
sg56
(lp1521
S'stable'
p1522
asbasbasbasbasbasbasbag49
(g65
g51
NtRp1523
(dp1524
g54
(dp1525
sg63
g753
sg56
(lp1526
g49
(g70
g51
NtRp1527
(dp1528
g54
(dp1529
g74
g75
ssg63
g1523
sg56
(lp1530
S'wsgi_errors'
p1531
asbag49
(g70
g51
NtRp1532
(dp1533
g54
(dp1534
g81
g82
ssg63
g1523
sg56
(lp1535
S':'
asbag49
(g70
g51
NtRp1536
(dp1537
g54
(dp1538
sg63
g1523
sg56
(lp1539
g49
(g50
g51
NtRp1540
(dp1541
g54
(dp1542
g62
I4
ssg63
g1536
sg56
(lp1543
S"<open file '<stderr>', mode 'w' at 0x014F00B0>"
p1544
asbasbasbag49
(g65
g51
NtRp1545
(dp1546
g54
(dp1547
sg63
g753
sg56
(lp1548
g49
(g70
g51
NtRp1549
(dp1550
g54
(dp1551
g74
g75
ssg63
g1545
sg56
(lp1552
S'wsgi_file_wrapper'
p1553
asbag49
(g70
g51
NtRp1554
(dp1555
g54
(dp1556
g81
g82
ssg63
g1545
sg56
(lp1557
S':'
asbag49
(g70
g51
NtRp1558
(dp1559
g54
(dp1560
sg63
g1545
sg56
(lp1561
g49
(g50
g51
NtRp1562
(dp1563
g54
(dp1564
g62
I4
ssg63
g1558
sg56
(lp1565
S'<class wsgiref.util.FileWrapper at 0x020041E0>'
p1566
asbasbasbag49
(g65
g51
NtRp1567
(dp1568
g54
(dp1569
sg63
g753
sg56
(lp1570
g49
(g70
g51
NtRp1571
(dp1572
g54
(dp1573
g74
g75
ssg63
g1567
sg56
(lp1574
S'wsgi_input'
p1575
asbag49
(g70
g51
NtRp1576
(dp1577
g54
(dp1578
g81
g82
ssg63
g1567
sg56
(lp1579
S':'
asbag49
(g70
g51
NtRp1580
(dp1581
g54
(dp1582
sg63
g1567
sg56
(lp1583
g49
(g50
g51
NtRp1584
(dp1585
g54
(dp1586
g62
I4
ssg63
g1580
sg56
(lp1587
S'<socket._fileobject object at 0x0249FDB0>'
p1588
asbasbasbag49
(g65
g51
NtRp1589
(dp1590
g54
(dp1591
sg63
g753
sg56
(lp1592
g49
(g70
g51
NtRp1593
(dp1594
g54
(dp1595
g74
g75
ssg63
g1589
sg56
(lp1596
S'wsgi_multiprocess'
p1597
asbag49
(g70
g51
NtRp1598
(dp1599
g54
(dp1600
g81
g82
ssg63
g1589
sg56
(lp1601
S':'
asbag49
(g70
g51
NtRp1602
(dp1603
g54
(dp1604
sg63
g1589
sg56
(lp1605
g49
(g50
g51
NtRp1606
(dp1607
g54
(dp1608
g62
I4
ssg63
g1602
sg56
(lp1609
g92
asbasbasbag49
(g65
g51
NtRp1610
(dp1611
g54
(dp1612
sg63
g753
sg56
(lp1613
g49
(g70
g51
NtRp1614
(dp1615
g54
(dp1616
g74
g75
ssg63
g1610
sg56
(lp1617
S'wsgi_multithread'
p1618
asbag49
(g70
g51
NtRp1619
(dp1620
g54
(dp1621
g81
g82
ssg63
g1610
sg56
(lp1622
S':'
asbag49
(g70
g51
NtRp1623
(dp1624
g54
(dp1625
sg63
g1610
sg56
(lp1626
g49
(g50
g51
NtRp1627
(dp1628
g54
(dp1629
g62
I4
ssg63
g1623
sg56
(lp1630
S'True'
p1631
asbasbasbag49
(g65
g51
NtRp1632
(dp1633
g54
(dp1634
sg63
g753
sg56
(lp1635
g49
(g70
g51
NtRp1636
(dp1637
g54
(dp1638
g74
g75
ssg63
g1632
sg56
(lp1639
S'wsgi_run_once'
p1640
asbag49
(g70
g51
NtRp1641
(dp1642
g54
(dp1643
g81
g82
ssg63
g1632
sg56
(lp1644
S':'
asbag49
(g70
g51
NtRp1645
(dp1646
g54
(dp1647
sg63
g1632
sg56
(lp1648
g49
(g50
g51
NtRp1649
(dp1650
g54
(dp1651
g62
I4
ssg63
g1645
sg56
(lp1652
g92
asbasbasbag49
(g65
g51
NtRp1653
(dp1654
g54
(dp1655
sg63
g753
sg56
(lp1656
g49
(g70
g51
NtRp1657
(dp1658
g54
(dp1659
g74
g75
ssg63
g1653
sg56
(lp1660
S'wsgi_url_scheme'
p1661
asbag49
(g70
g51
NtRp1662
(dp1663
g54
(dp1664
g81
g82
ssg63
g1653
sg56
(lp1665
S':'
asbag49
(g70
g51
NtRp1666
(dp1667
g54
(dp1668
sg63
g1653
sg56
(lp1669
g49
(g50
g51
NtRp1670
(dp1671
g54
(dp1672
g62
I4
ssg63
g1666
sg56
(lp1673
S'http'
p1674
asbasbasbag49
(g65
g51
NtRp1675
(dp1676
g54
(dp1677
sg63
g753
sg56
(lp1678
g49
(g70
g51
NtRp1679
(dp1680
g54
(dp1681
g74
g75
ssg63
g1675
sg56
(lp1682
S'wsgi_version'
p1683
asbag49
(g70
g51
NtRp1684
(dp1685
g54
(dp1686
g81
g82
ssg63
g1675
sg56
(lp1687
S':'
asbag49
(g70
g51
NtRp1688
(dp1689
g54
(dp1690
sg63
g1675
sg56
(lp1691
g49
(g50
g51
NtRp1692
(dp1693
g54
(dp1694
g62
I4
ssg63
g1688
sg56
(lp1695
g49
(g58
g51
NtRp1696
(dp1697
g54
(dp1698
g62
I3
ssg63
Nsg56
(lp1699
g49
(g65
g51
NtRp1700
(dp1701
g54
(dp1702
sg63
g1696
sg56
(lp1703
g49
(g70
g51
NtRp1704
(dp1705
g54
(dp1706
sg63
g1700
sg56
(lp1707
g49
(g50
g51
NtRp1708
(dp1709
g54
(dp1710
g62
I3
ssg63
g1704
sg56
(lp1711
S'1'
asbasbasbag49
(g65
g51
NtRp1712
(dp1713
g54
(dp1714
sg63
g1696
sg56
(lp1715
g49
(g70
g51
NtRp1716
(dp1717
g54
(dp1718
sg63
g1712
sg56
(lp1719
g49
(g50
g51
NtRp1720
(dp1721
g54
(dp1722
g62
I3
ssg63
g1716
sg56
(lp1723
S'0'
asbasbasbasbasbasbasbasbasbasbasbag49
(g65
g51
NtRp1724
(dp1725
g54
(dp1726
sg63
g59
sg56
(lp1727
g49
(g70
g51
NtRp1728
(dp1729
g54
(dp1730
g74
g75
ssg63
g1724
sg56
(lp1731
S'extension'
p1732
asbag49
(g70
g51
NtRp1733
(dp1734
g54
(dp1735
g81
g82
ssg63
g1724
sg56
(lp1736
S':'
asbag49
(g70
g51
NtRp1737
(dp1738
g54
(dp1739
sg63
g1724
sg56
(lp1740
g49
(g50
g51
NtRp1741
(dp1742
g54
(dp1743
g62
I5
ssg63
g1737
sg56
(lp1744
S'html'
p1745
asbasbasbag49
(g65
g51
NtRp1746
(dp1747
g54
(dp1748
sg63
g59
sg56
(lp1749
g49
(g70
g51
NtRp1750
(dp1751
g54
(dp1752
g74
g75
ssg63
g1746
sg56
(lp1753
S'folder'
p1754
asbag49
(g70
g51
NtRp1755
(dp1756
g54
(dp1757
g81
g82
ssg63
g1746
sg56
(lp1758
S':'
asbag49
(g70
g51
NtRp1759
(dp1760
g54
(dp1761
sg63
g1746
sg56
(lp1762
g49
(g50
g51
NtRp1763
(dp1764
g54
(dp1765
g62
I5
ssg63
g1759
sg56
(lp1766
S'C:\\Users\\Osku\\koodaus\\web2py\\applications\\sitsit\\'
p1767
asbasbasbag49
(g65
g51
NtRp1768
(dp1769
g54
(dp1770
sg63
g59
sg56
(lp1771
g49
(g70
g51
NtRp1772
(dp1773
g54
(dp1774
g74
g75
ssg63
g1768
sg56
(lp1775
S'function'
p1776
asbag49
(g70
g51
NtRp1777
(dp1778
g54
(dp1779
g81
g82
ssg63
g1768
sg56
(lp1780
S':'
asbag49
(g70
g51
NtRp1781
(dp1782
g54
(dp1783
sg63
g1768
sg56
(lp1784
g49
(g50
g51
NtRp1785
(dp1786
g54
(dp1787
g62
I5
ssg63
g1781
sg56
(lp1788
S'sitsit'
p1789
asbasbasbag49
(g65
g51
NtRp1790
(dp1791
g54
(dp1792
sg63
g59
sg56
(lp1793
g49
(g70
g51
NtRp1794
(dp1795
g54
(dp1796
g74
g75
ssg63
g1790
sg56
(lp1797
S'get_vars'
p1798
asbag49
(g70
g51
NtRp1799
(dp1800
g54
(dp1801
g81
g82
ssg63
g1790
sg56
(lp1802
S':'
asbag49
(g70
g51
NtRp1803
(dp1804
g54
(dp1805
sg63
g1790
sg56
(lp1806
g49
(g50
g51
NtRp1807
(dp1808
g54
(dp1809
g62
I5
ssg63
g1803
sg56
(lp1810
g49
(g58
g51
NtRp1811
(dp1812
g54
(dp1813
g62
I4
ssg63
Nsg56
(lp1814
sbasbasbasbag49
(g65
g51
NtRp1815
(dp1816
g54
(dp1817
sg63
g59
sg56
(lp1818
g49
(g70
g51
NtRp1819
(dp1820
g54
(dp1821
g74
g75
ssg63
g1815
sg56
(lp1822
S'global_settings'
p1823
asbag49
(g70
g51
NtRp1824
(dp1825
g54
(dp1826
g81
g82
ssg63
g1815
sg56
(lp1827
S':'
asbag49
(g70
g51
NtRp1828
(dp1829
g54
(dp1830
sg63
g1815
sg56
(lp1831
g49
(g50
g51
NtRp1832
(dp1833
g54
(dp1834
g62
I5
ssg63
g1828
sg56
(lp1835
g49
(g58
g51
NtRp1836
(dp1837
g54
(dp1838
g62
I4
ssg63
Nsg56
(lp1839
g49
(g65
g51
NtRp1840
(dp1841
g54
(dp1842
sg63
g1836
sg56
(lp1843
g49
(g70
g51
NtRp1844
(dp1845
g54
(dp1846
g74
g75
ssg63
g1840
sg56
(lp1847
g765
asbag49
(g70
g51
NtRp1848
(dp1849
g54
(dp1850
g81
g82
ssg63
g1840
sg56
(lp1851
S':'
asbag49
(g70
g51
NtRp1852
(dp1853
g54
(dp1854
sg63
g1840
sg56
(lp1855
g49
(g50
g51
NtRp1856
(dp1857
g54
(dp1858
g62
I4
ssg63
g1852
sg56
(lp1859
S"set(['C:\\\\Users\\\\Osku\\\\koodaus\\\\web2py\\\\applications\\\\sitsit\\\\', 'C:\\\\Users\\\\Osku\\\\koodaus\\\\web2py\\\\applications\\\\welcome\\\\', 'C:\\\\Users\\\\Osku\\\\koodaus\\\\web2py\\\\applications\\\\admin\\\\'])"
p1860
asbasbasbag49
(g65
g51
NtRp1861
(dp1862
g54
(dp1863
sg63
g1836
sg56
(lp1864
g49
(g70
g51
NtRp1865
(dp1866
g54
(dp1867
g74
g75
ssg63
g1861
sg56
(lp1868
g787
asbag49
(g70
g51
NtRp1869
(dp1870
g54
(dp1871
g81
g82
ssg63
g1861
sg56
(lp1872
S':'
asbag49
(g70
g51
NtRp1873
(dp1874
g54
(dp1875
sg63
g1861
sg56
(lp1876
g49
(g50
g51
NtRp1877
(dp1878
g54
(dp1879
g62
I4
ssg63
g1873
sg56
(lp1880
g800
asbasbasbag49
(g65
g51
NtRp1881
(dp1882
g54
(dp1883
sg63
g1836
sg56
(lp1884
g49
(g70
g51
NtRp1885
(dp1886
g54
(dp1887
g74
g75
ssg63
g1881
sg56
(lp1888
g809
asbag49
(g70
g51
NtRp1889
(dp1890
g54
(dp1891
g81
g82
ssg63
g1881
sg56
(lp1892
S':'
asbag49
(g70
g51
NtRp1893
(dp1894
g54
(dp1895
sg63
g1881
sg56
(lp1896
g49
(g50
g51
NtRp1897
(dp1898
g54
(dp1899
g62
I4
ssg63
g1893
sg56
(lp1900
g49
(g58
g51
NtRp1901
(dp1902
g54
(dp1903
g62
I3
ssg63
Nsg56
(lp1904
sbasbasbasbag49
(g65
g51
NtRp1905
(dp1906
g54
(dp1907
sg63
g1836
sg56
(lp1908
g49
(g70
g51
NtRp1909
(dp1910
g54
(dp1911
g74
g75
ssg63
g1905
sg56
(lp1912
g834
asbag49
(g70
g51
NtRp1913
(dp1914
g54
(dp1915
g81
g82
ssg63
g1905
sg56
(lp1916
S':'
asbag49
(g70
g51
NtRp1917
(dp1918
g54
(dp1919
sg63
g1905
sg56
(lp1920
g49
(g50
g51
NtRp1921
(dp1922
g54
(dp1923
g62
I4
ssg63
g1917
sg56
(lp1924
S"<Values at 0x2270030: {'verbose': False, 'ip': '127.0.0.1', 'shutdown_timeout': 5, 'taskbar': False, 'nocron': False, 'pid_filename': 'httpserver.pid', 'maxthreads': None, 'softcron': False, 'server_name': 'Osku-Kannettava', 'bpython': False, 'nogui': False, 'port': 8000, 'extcron': False, 'debuglevel': 30, 'test': None, 'folder': 'C:\\\\Users\\\\Osku\\\\koodaus\\\\web2py', 'config': '', 'import_models': False, 'winservice': '', 'shell': None, 'run': '', 'log_filename': 'httpserver.log', 'args': [''], 'socket_timeout': 5, 'ssl_ca_certificate': None, 'scheduler': None, 'profiler_filename': None, 'ssl_private_key': '', 'password': '<ask>', 'request_queue_size': 5, 'ssl_certificate': '', 'cronjob': False, 'numthreads': None, 'quiet': False, 'interfaces': None, 'minthreads': None, 'timeout': 10, 'plain': False, 'nobanner': False}>"
p1925
asbasbasbag49
(g65
g51
NtRp1926
(dp1927
g54
(dp1928
sg63
g1836
sg56
(lp1929
g49
(g70
g51
NtRp1930
(dp1931
g54
(dp1932
g74
g75
ssg63
g1926
sg56
(lp1933
g856
asbag49
(g70
g51
NtRp1934
(dp1935
g54
(dp1936
g81
g82
ssg63
g1926
sg56
(lp1937
S':'
asbag49
(g70
g51
NtRp1938
(dp1939
g54
(dp1940
sg63
g1926
sg56
(lp1941
g49
(g50
g51
NtRp1942
(dp1943
g54
(dp1944
g62
I4
ssg63
g1938
sg56
(lp1945
S'set([])'
p1946
asbasbasbag49
(g65
g51
NtRp1947
(dp1948
g54
(dp1949
sg63
g1836
sg56
(lp1950
g49
(g70
g51
NtRp1951
(dp1952
g54
(dp1953
g74
g75
ssg63
g1947
sg56
(lp1954
g878
asbag49
(g70
g51
NtRp1955
(dp1956
g54
(dp1957
g81
g82
ssg63
g1947
sg56
(lp1958
S':'
asbag49
(g70
g51
NtRp1959
(dp1960
g54
(dp1961
sg63
g1947
sg56
(lp1962
g49
(g50
g51
NtRp1963
(dp1964
g54
(dp1965
g62
I4
ssg63
g1959
sg56
(lp1966
g92
asbasbasbag49
(g65
g51
NtRp1967
(dp1968
g54
(dp1969
sg63
g1836
sg56
(lp1970
g49
(g70
g51
NtRp1971
(dp1972
g54
(dp1973
g74
g75
ssg63
g1967
sg56
(lp1974
g899
asbag49
(g70
g51
NtRp1975
(dp1976
g54
(dp1977
g81
g82
ssg63
g1967
sg56
(lp1978
S':'
asbag49
(g70
g51
NtRp1979
(dp1980
g54
(dp1981
sg63
g1967
sg56
(lp1982
g49
(g50
g51
NtRp1983
(dp1984
g54
(dp1985
g62
I4
ssg63
g1979
sg56
(lp1986
g912
asbasbasbag49
(g65
g51
NtRp1987
(dp1988
g54
(dp1989
sg63
g1836
sg56
(lp1990
g49
(g70
g51
NtRp1991
(dp1992
g54
(dp1993
g74
g75
ssg63
g1987
sg56
(lp1994
g1141
asbag49
(g70
g51
NtRp1995
(dp1996
g54
(dp1997
g81
g82
ssg63
g1987
sg56
(lp1998
S':'
asbag49
(g70
g51
NtRp1999
(dp2000
g54
(dp2001
sg63
g1987
sg56
(lp2002
g49
(g50
g51
NtRp2003
(dp2004
g54
(dp2005
g62
I4
ssg63
g1999
sg56
(lp2006
g92
asbasbasbag49
(g65
g51
NtRp2007
(dp2008
g54
(dp2009
sg63
g1836
sg56
(lp2010
g49
(g70
g51
NtRp2011
(dp2012
g54
(dp2013
g74
g75
ssg63
g2007
sg56
(lp2014
g1162
asbag49
(g70
g51
NtRp2015
(dp2016
g54
(dp2017
g81
g82
ssg63
g2007
sg56
(lp2018
S':'
asbag49
(g70
g51
NtRp2019
(dp2020
g54
(dp2021
sg63
g2007
sg56
(lp2022
g49
(g50
g51
NtRp2023
(dp2024
g54
(dp2025
g62
I4
ssg63
g2019
sg56
(lp2026
g92
asbasbasbag49
(g65
g51
NtRp2027
(dp2028
g54
(dp2029
sg63
g1836
sg56
(lp2030
g49
(g70
g51
NtRp2031
(dp2032
g54
(dp2033
g74
g75
ssg63
g2027
sg56
(lp2034
g1400
asbag49
(g70
g51
NtRp2035
(dp2036
g54
(dp2037
g81
g82
ssg63
g2027
sg56
(lp2038
S':'
asbag49
(g70
g51
NtRp2039
(dp2040
g54
(dp2041
sg63
g2027
sg56
(lp2042
g49
(g50
g51
NtRp2043
(dp2044
g54
(dp2045
g62
I4
ssg63
g2039
sg56
(lp2046
g1413
asbasbasbag49
(g65
g51
NtRp2047
(dp2048
g54
(dp2049
sg63
g1836
sg56
(lp2050
g49
(g70
g51
NtRp2051
(dp2052
g54
(dp2053
g74
g75
ssg63
g2047
sg56
(lp2054
g1443
asbag49
(g70
g51
NtRp2055
(dp2056
g54
(dp2057
g81
g82
ssg63
g2047
sg56
(lp2058
S':'
asbag49
(g70
g51
NtRp2059
(dp2060
g54
(dp2061
sg63
g2047
sg56
(lp2062
g49
(g50
g51
NtRp2063
(dp2064
g54
(dp2065
g62
I4
ssg63
g2059
sg56
(lp2066
g49
(g58
g51
NtRp2067
(dp2068
g54
(dp2069
g62
I3
ssg63
Nsg56
(lp2070
g49
(g65
g51
NtRp2071
(dp2072
g54
(dp2073
sg63
g2067
sg56
(lp2074
g49
(g70
g51
NtRp2075
(dp2076
g54
(dp2077
sg63
g2071
sg56
(lp2078
g49
(g50
g51
NtRp2079
(dp2080
g54
(dp2081
g62
I3
ssg63
g2075
sg56
(lp2082
S'1'
asbasbasbag49
(g65
g51
NtRp2083
(dp2084
g54
(dp2085
sg63
g2067
sg56
(lp2086
g49
(g70
g51
NtRp2087
(dp2088
g54
(dp2089
sg63
g2083
sg56
(lp2090
g49
(g50
g51
NtRp2091
(dp2092
g54
(dp2093
g62
I3
ssg63
g2087
sg56
(lp2094
S'99'
p2095
asbasbasbag49
(g65
g51
NtRp2096
(dp2097
g54
(dp2098
sg63
g2067
sg56
(lp2099
g49
(g70
g51
NtRp2100
(dp2101
g54
(dp2102
sg63
g2096
sg56
(lp2103
g49
(g50
g51
NtRp2104
(dp2105
g54
(dp2106
g62
I3
ssg63
g2100
sg56
(lp2107
S'7'
asbasbasbag49
(g65
g51
NtRp2108
(dp2109
g54
(dp2110
sg63
g2067
sg56
(lp2111
g49
(g70
g51
NtRp2112
(dp2113
g54
(dp2114
sg63
g2108
sg56
(lp2115
g49
(g50
g51
NtRp2116
(dp2117
g54
(dp2118
g62
I3
ssg63
g2112
sg56
(lp2119
S'datetime.datetime(2012, 3, 4, 22, 12, 8)'
p2120
asbasbasbag49
(g65
g51
NtRp2121
(dp2122
g54
(dp2123
sg63
g2067
sg56
(lp2124
g49
(g70
g51
NtRp2125
(dp2126
g54
(dp2127
sg63
g2121
sg56
(lp2128
g49
(g50
g51
NtRp2129
(dp2130
g54
(dp2131
g62
I3
ssg63
g2125
sg56
(lp2132
g1522
asbasbasbasbasbasbasbasbasbasbasbag49
(g65
g51
NtRp2133
(dp2134
g54
(dp2135
sg63
g59
sg56
(lp2136
g49
(g70
g51
NtRp2137
(dp2138
g54
(dp2139
g74
g75
ssg63
g2133
sg56
(lp2140
S'is_https'
p2141
asbag49
(g70
g51
NtRp2142
(dp2143
g54
(dp2144
g81
g82
ssg63
g2133
sg56
(lp2145
S':'
asbag49
(g70
g51
NtRp2146
(dp2147
g54
(dp2148
sg63
g2133
sg56
(lp2149
g49
(g50
g51
NtRp2150
(dp2151
g54
(dp2152
g62
I5
ssg63
g2146
sg56
(lp2153
g92
asbasbasbag49
(g65
g51
NtRp2154
(dp2155
g54
(dp2156
sg63
g59
sg56
(lp2157
g49
(g70
g51
NtRp2158
(dp2159
g54
(dp2160
g74
g75
ssg63
g2154
sg56
(lp2161
S'is_local'
p2162
asbag49
(g70
g51
NtRp2163
(dp2164
g54
(dp2165
g81
g82
ssg63
g2154
sg56
(lp2166
S':'
asbag49
(g70
g51
NtRp2167
(dp2168
g54
(dp2169
sg63
g2154
sg56
(lp2170
g49
(g50
g51
NtRp2171
(dp2172
g54
(dp2173
g62
I5
ssg63
g2167
sg56
(lp2174
g1631
asbasbasbag49
(g65
g51
NtRp2175
(dp2176
g54
(dp2177
sg63
g59
sg56
(lp2178
g49
(g70
g51
NtRp2179
(dp2180
g54
(dp2181
g74
g75
ssg63
g2175
sg56
(lp2182
S'is_restful'
p2183
asbag49
(g70
g51
NtRp2184
(dp2185
g54
(dp2186
g81
g82
ssg63
g2175
sg56
(lp2187
S':'
asbag49
(g70
g51
NtRp2188
(dp2189
g54
(dp2190
sg63
g2175
sg56
(lp2191
g49
(g50
g51
NtRp2192
(dp2193
g54
(dp2194
g62
I5
ssg63
g2188
sg56
(lp2195
g92
asbasbasbag49
(g65
g51
NtRp2196
(dp2197
g54
(dp2198
sg63
g59
sg56
(lp2199
g49
(g70
g51
NtRp2200
(dp2201
g54
(dp2202
g74
g75
ssg63
g2196
sg56
(lp2203
S'now'
p2204
asbag49
(g70
g51
NtRp2205
(dp2206
g54
(dp2207
g81
g82
ssg63
g2196
sg56
(lp2208
S':'
asbag49
(g70
g51
NtRp2209
(dp2210
g54
(dp2211
sg63
g2196
sg56
(lp2212
g49
(g50
g51
NtRp2213
(dp2214
g54
(dp2215
g62
I5
ssg63
g2209
sg56
(lp2216
S'datetime.datetime(2012, 7, 6, 23, 4, 15, 614000)'
p2217
asbasbasbag49
(g65
g51
NtRp2218
(dp2219
g54
(dp2220
sg63
g59
sg56
(lp2221
g49
(g70
g51
NtRp2222
(dp2223
g54
(dp2224
g74
g75
ssg63
g2218
sg56
(lp2225
S'post_vars'
p2226
asbag49
(g70
g51
NtRp2227
(dp2228
g54
(dp2229
g81
g82
ssg63
g2218
sg56
(lp2230
S':'
asbag49
(g70
g51
NtRp2231
(dp2232
g54
(dp2233
sg63
g2218
sg56
(lp2234
g49
(g50
g51
NtRp2235
(dp2236
g54
(dp2237
g62
I5
ssg63
g2231
sg56
(lp2238
g49
(g58
g51
NtRp2239
(dp2240
g54
(dp2241
g62
I4
ssg63
Nsg56
(lp2242
sbasbasbasbag49
(g65
g51
NtRp2243
(dp2244
g54
(dp2245
sg63
g59
sg56
(lp2246
g49
(g70
g51
NtRp2247
(dp2248
g54
(dp2249
g74
g75
ssg63
g2243
sg56
(lp2250
S'url'
p2251
asbag49
(g70
g51
NtRp2252
(dp2253
g54
(dp2254
g81
g82
ssg63
g2243
sg56
(lp2255
S':'
asbag49
(g70
g51
NtRp2256
(dp2257
g54
(dp2258
sg63
g2243
sg56
(lp2259
g49
(g50
g51
NtRp2260
(dp2261
g54
(dp2262
g62
I5
ssg63
g2256
sg56
(lp2263
S'/sitsit/default/sitsit'
p2264
asbasbasbag49
(g65
g51
NtRp2265
(dp2266
g54
(dp2267
sg63
g59
sg56
(lp2268
g49
(g70
g51
NtRp2269
(dp2270
g54
(dp2271
g74
g75
ssg63
g2265
sg56
(lp2272
S'utcnow'
p2273
asbag49
(g70
g51
NtRp2274
(dp2275
g54
(dp2276
g81
g82
ssg63
g2265
sg56
(lp2277
S':'
asbag49
(g70
g51
NtRp2278
(dp2279
g54
(dp2280
sg63
g2265
sg56
(lp2281
g49
(g50
g51
NtRp2282
(dp2283
g54
(dp2284
g62
I5
ssg63
g2278
sg56
(lp2285
S'datetime.datetime(2012, 7, 6, 21, 4, 15, 615000)'
p2286
asbasbasbag49
(g65
g51
NtRp2287
(dp2288
g54
(dp2289
sg63
g59
sg56
(lp2290
g49
(g70
g51
NtRp2291
(dp2292
g54
(dp2293
g74
g75
ssg63
g2287
sg56
(lp2294
S'uuid'
p2295
asbag49
(g70
g51
NtRp2296
(dp2297
g54
(dp2298
g81
g82
ssg63
g2287
sg56
(lp2299
S':'
asbag49
(g70
g51
NtRp2300
(dp2301
g54
(dp2302
sg63
g2287
sg56
(lp2303
g49
(g50
g51
NtRp2304
(dp2305
g54
(dp2306
g62
I5
ssg63
g2300
sg56
(lp2307
S'sitsit/127.0.0.1.2012-07-06.23-04-15.69d83f87-c9dc-4677-aeb0-708da951d99d'
p2308
asbasbasbag49
(g65
g51
NtRp2309
(dp2310
g54
(dp2311
sg63
g59
sg56
(lp2312
g49
(g70
g51
NtRp2313
(dp2314
g54
(dp2315
g74
g75
ssg63
g2309
sg56
(lp2316
S'vars'
p2317
asbag49
(g70
g51
NtRp2318
(dp2319
g54
(dp2320
g81
g82
ssg63
g2309
sg56
(lp2321
S':'
asbag49
(g70
g51
NtRp2322
(dp2323
g54
(dp2324
sg63
g2309
sg56
(lp2325
g49
(g50
g51
NtRp2326
(dp2327
g54
(dp2328
g62
I5
ssg63
g2322
sg56
(lp2329
g49
(g58
g51
NtRp2330
(dp2331
g54
(dp2332
g62
I4
ssg63
Nsg56
(lp2333
sbasbasbasbag49
(g65
g51
NtRp2334
(dp2335
g54
(dp2336
sg63
g59
sg56
(lp2337
g49
(g70
g51
NtRp2338
(dp2339
g54
(dp2340
g74
g75
ssg63
g2334
sg56
(lp2341
S'wsgi'
p2342
asbag49
(g70
g51
NtRp2343
(dp2344
g54
(dp2345
g81
g82
ssg63
g2334
sg56
(lp2346
S':'
asbag49
(g70
g51
NtRp2347
(dp2348
g54
(dp2349
sg63
g2334
sg56
(lp2350
g49
(g50
g51
NtRp2351
(dp2352
g54
(dp2353
g62
I5
ssg63
g2347
sg56
(lp2354
g49
(g58
g51
NtRp2355
(dp2356
g54
(dp2357
g62
I4
ssg63
Nsg56
(lp2358
g49
(g65
g51
NtRp2359
(dp2360
g54
(dp2361
sg63
g2355
sg56
(lp2362
g49
(g70
g51
NtRp2363
(dp2364
g54
(dp2365
g74
g75
ssg63
g2359
sg56
(lp2366
S'environ'
p2367
asbag49
(g70
g51
NtRp2368
(dp2369
g54
(dp2370
g81
g82
ssg63
g2359
sg56
(lp2371
S':'
asbag49
(g70
g51
NtRp2372
(dp2373
g54
(dp2374
sg63
g2359
sg56
(lp2375
g49
(g50
g51
NtRp2376
(dp2377
g54
(dp2378
g62
I4
ssg63
g2372
sg56
(lp2379
g49
(g58
g51
NtRp2380
(dp2381
g54
(dp2382
g62
I3
ssg63
Nsg56
(lp2383
g49
(g65
g51
NtRp2384
(dp2385
g54
(dp2386
sg63
g2380
sg56
(lp2387
g49
(g70
g51
NtRp2388
(dp2389
g54
(dp2390
g74
g75
ssg63
g2384
sg56
(lp2391
S'HTTP_ACCEPT'
p2392
asbag49
(g70
g51
NtRp2393
(dp2394
g54
(dp2395
g81
g82
ssg63
g2384
sg56
(lp2396
S':'
asbag49
(g70
g51
NtRp2397
(dp2398
g54
(dp2399
sg63
g2384
sg56
(lp2400
g49
(g50
g51
NtRp2401
(dp2402
g54
(dp2403
g62
I3
ssg63
g2397
sg56
(lp2404
g934
asbasbasbag49
(g65
g51
NtRp2405
(dp2406
g54
(dp2407
sg63
g2380
sg56
(lp2408
g49
(g70
g51
NtRp2409
(dp2410
g54
(dp2411
g74
g75
ssg63
g2405
sg56
(lp2412
S'HTTP_ACCEPT_CHARSET'
p2413
asbag49
(g70
g51
NtRp2414
(dp2415
g54
(dp2416
g81
g82
ssg63
g2405
sg56
(lp2417
S':'
asbag49
(g70
g51
NtRp2418
(dp2419
g54
(dp2420
sg63
g2405
sg56
(lp2421
g49
(g50
g51
NtRp2422
(dp2423
g54
(dp2424
g62
I3
ssg63
g2418
sg56
(lp2425
g956
asbasbasbag49
(g65
g51
NtRp2426
(dp2427
g54
(dp2428
sg63
g2380
sg56
(lp2429
g49
(g70
g51
NtRp2430
(dp2431
g54
(dp2432
g74
g75
ssg63
g2426
sg56
(lp2433
S'HTTP_ACCEPT_ENCODING'
p2434
asbag49
(g70
g51
NtRp2435
(dp2436
g54
(dp2437
g81
g82
ssg63
g2426
sg56
(lp2438
S':'
asbag49
(g70
g51
NtRp2439
(dp2440
g54
(dp2441
sg63
g2426
sg56
(lp2442
g49
(g50
g51
NtRp2443
(dp2444
g54
(dp2445
g62
I3
ssg63
g2439
sg56
(lp2446
g978
asbasbasbag49
(g65
g51
NtRp2447
(dp2448
g54
(dp2449
sg63
g2380
sg56
(lp2450
g49
(g70
g51
NtRp2451
(dp2452
g54
(dp2453
g74
g75
ssg63
g2447
sg56
(lp2454
S'HTTP_ACCEPT_LANGUAGE'
p2455
asbag49
(g70
g51
NtRp2456
(dp2457
g54
(dp2458
g81
g82
ssg63
g2447
sg56
(lp2459
S':'
asbag49
(g70
g51
NtRp2460
(dp2461
g54
(dp2462
sg63
g2447
sg56
(lp2463
g49
(g50
g51
NtRp2464
(dp2465
g54
(dp2466
g62
I3
ssg63
g2460
sg56
(lp2467
g1000
asbasbasbag49
(g65
g51
NtRp2468
(dp2469
g54
(dp2470
sg63
g2380
sg56
(lp2471
g49
(g70
g51
NtRp2472
(dp2473
g54
(dp2474
g74
g75
ssg63
g2468
sg56
(lp2475
S'HTTP_CACHE_CONTROL'
p2476
asbag49
(g70
g51
NtRp2477
(dp2478
g54
(dp2479
g81
g82
ssg63
g2468
sg56
(lp2480
S':'
asbag49
(g70
g51
NtRp2481
(dp2482
g54
(dp2483
sg63
g2468
sg56
(lp2484
g49
(g50
g51
NtRp2485
(dp2486
g54
(dp2487
g62
I3
ssg63
g2481
sg56
(lp2488
g1022
asbasbasbag49
(g65
g51
NtRp2489
(dp2490
g54
(dp2491
sg63
g2380
sg56
(lp2492
g49
(g70
g51
NtRp2493
(dp2494
g54
(dp2495
g74
g75
ssg63
g2489
sg56
(lp2496
S'HTTP_CONNECTION'
p2497
asbag49
(g70
g51
NtRp2498
(dp2499
g54
(dp2500
g81
g82
ssg63
g2489
sg56
(lp2501
S':'
asbag49
(g70
g51
NtRp2502
(dp2503
g54
(dp2504
sg63
g2489
sg56
(lp2505
g49
(g50
g51
NtRp2506
(dp2507
g54
(dp2508
g62
I3
ssg63
g2502
sg56
(lp2509
g1044
asbasbasbag49
(g65
g51
NtRp2510
(dp2511
g54
(dp2512
sg63
g2380
sg56
(lp2513
g49
(g70
g51
NtRp2514
(dp2515
g54
(dp2516
g74
g75
ssg63
g2510
sg56
(lp2517
S'HTTP_COOKIE'
p2518
asbag49
(g70
g51
NtRp2519
(dp2520
g54
(dp2521
g81
g82
ssg63
g2510
sg56
(lp2522
S':'
asbag49
(g70
g51
NtRp2523
(dp2524
g54
(dp2525
sg63
g2510
sg56
(lp2526
g49
(g50
g51
NtRp2527
(dp2528
g54
(dp2529
g62
I3
ssg63
g2523
sg56
(lp2530
g1066
asbasbasbag49
(g65
g51
NtRp2531
(dp2532
g54
(dp2533
sg63
g2380
sg56
(lp2534
g49
(g70
g51
NtRp2535
(dp2536
g54
(dp2537
g74
g75
ssg63
g2531
sg56
(lp2538
S'HTTP_HOST'
p2539
asbag49
(g70
g51
NtRp2540
(dp2541
g54
(dp2542
g81
g82
ssg63
g2531
sg56
(lp2543
S':'
asbag49
(g70
g51
NtRp2544
(dp2545
g54
(dp2546
sg63
g2531
sg56
(lp2547
g49
(g50
g51
NtRp2548
(dp2549
g54
(dp2550
g62
I3
ssg63
g2544
sg56
(lp2551
g1088
asbasbasbag49
(g65
g51
NtRp2552
(dp2553
g54
(dp2554
sg63
g2380
sg56
(lp2555
g49
(g70
g51
NtRp2556
(dp2557
g54
(dp2558
g74
g75
ssg63
g2552
sg56
(lp2559
S'HTTP_REFERER'
p2560
asbag49
(g70
g51
NtRp2561
(dp2562
g54
(dp2563
g81
g82
ssg63
g2552
sg56
(lp2564
S':'
asbag49
(g70
g51
NtRp2565
(dp2566
g54
(dp2567
sg63
g2552
sg56
(lp2568
g49
(g50
g51
NtRp2569
(dp2570
g54
(dp2571
g62
I3
ssg63
g2565
sg56
(lp2572
g1110
asbasbasbag49
(g65
g51
NtRp2573
(dp2574
g54
(dp2575
sg63
g2380
sg56
(lp2576
g49
(g70
g51
NtRp2577
(dp2578
g54
(dp2579
g74
g75
ssg63
g2573
sg56
(lp2580
S'HTTP_USER_AGENT'
p2581
asbag49
(g70
g51
NtRp2582
(dp2583
g54
(dp2584
g81
g82
ssg63
g2573
sg56
(lp2585
S':'
asbag49
(g70
g51
NtRp2586
(dp2587
g54
(dp2588
sg63
g2573
sg56
(lp2589
g49
(g50
g51
NtRp2590
(dp2591
g54
(dp2592
g62
I3
ssg63
g2586
sg56
(lp2593
g1132
asbasbasbag49
(g65
g51
NtRp2594
(dp2595
g54
(dp2596
sg63
g2380
sg56
(lp2597
g49
(g70
g51
NtRp2598
(dp2599
g54
(dp2600
g74
g75
ssg63
g2594
sg56
(lp2601
S'PATH_INFO'
p2602
asbag49
(g70
g51
NtRp2603
(dp2604
g54
(dp2605
g81
g82
ssg63
g2594
sg56
(lp2606
S':'
asbag49
(g70
g51
NtRp2607
(dp2608
g54
(dp2609
sg63
g2594
sg56
(lp2610
g49
(g50
g51
NtRp2611
(dp2612
g54
(dp2613
g62
I3
ssg63
g2607
sg56
(lp2614
g1196
asbasbasbag49
(g65
g51
NtRp2615
(dp2616
g54
(dp2617
sg63
g2380
sg56
(lp2618
g49
(g70
g51
NtRp2619
(dp2620
g54
(dp2621
g74
g75
ssg63
g2615
sg56
(lp2622
S'QUERY_STRING'
p2623
asbag49
(g70
g51
NtRp2624
(dp2625
g54
(dp2626
g81
g82
ssg63
g2615
sg56
(lp2627
S':'
asbag49
(g70
g51
NtRp2628
(dp2629
g54
(dp2630
sg63
g2615
sg56
(lp2631
g49
(g50
g51
NtRp2632
(dp2633
g54
(dp2634
g62
I3
ssg63
g2628
sg56
(lp2635
S''
asbasbasbag49
(g65
g51
NtRp2636
(dp2637
g54
(dp2638
sg63
g2380
sg56
(lp2639
g49
(g70
g51
NtRp2640
(dp2641
g54
(dp2642
g74
g75
ssg63
g2636
sg56
(lp2643
S'REMOTE_ADDR'
p2644
asbag49
(g70
g51
NtRp2645
(dp2646
g54
(dp2647
g81
g82
ssg63
g2636
sg56
(lp2648
S':'
asbag49
(g70
g51
NtRp2649
(dp2650
g54
(dp2651
sg63
g2636
sg56
(lp2652
g49
(g50
g51
NtRp2653
(dp2654
g54
(dp2655
g62
I3
ssg63
g2649
sg56
(lp2656
g182
asbasbasbag49
(g65
g51
NtRp2657
(dp2658
g54
(dp2659
sg63
g2380
sg56
(lp2660
g49
(g70
g51
NtRp2661
(dp2662
g54
(dp2663
g74
g75
ssg63
g2657
sg56
(lp2664
S'REMOTE_PORT'
p2665
asbag49
(g70
g51
NtRp2666
(dp2667
g54
(dp2668
g81
g82
ssg63
g2657
sg56
(lp2669
S':'
asbag49
(g70
g51
NtRp2670
(dp2671
g54
(dp2672
sg63
g2657
sg56
(lp2673
g49
(g50
g51
NtRp2674
(dp2675
g54
(dp2676
g62
I3
ssg63
g2670
sg56
(lp2677
g1260
asbasbasbag49
(g65
g51
NtRp2678
(dp2679
g54
(dp2680
sg63
g2380
sg56
(lp2681
g49
(g70
g51
NtRp2682
(dp2683
g54
(dp2684
g74
g75
ssg63
g2678
sg56
(lp2685
S'REQUEST_METHOD'
p2686
asbag49
(g70
g51
NtRp2687
(dp2688
g54
(dp2689
g81
g82
ssg63
g2678
sg56
(lp2690
S':'
asbag49
(g70
g51
NtRp2691
(dp2692
g54
(dp2693
sg63
g2678
sg56
(lp2694
g49
(g50
g51
NtRp2695
(dp2696
g54
(dp2697
g62
I3
ssg63
g2691
sg56
(lp2698
g1282
asbasbasbag49
(g65
g51
NtRp2699
(dp2700
g54
(dp2701
sg63
g2380
sg56
(lp2702
g49
(g70
g51
NtRp2703
(dp2704
g54
(dp2705
g74
g75
ssg63
g2699
sg56
(lp2706
S'SCRIPT_NAME'
p2707
asbag49
(g70
g51
NtRp2708
(dp2709
g54
(dp2710
g81
g82
ssg63
g2699
sg56
(lp2711
S':'
asbag49
(g70
g51
NtRp2712
(dp2713
g54
(dp2714
sg63
g2699
sg56
(lp2715
g49
(g50
g51
NtRp2716
(dp2717
g54
(dp2718
g62
I3
ssg63
g2712
sg56
(lp2719
S''
asbasbasbag49
(g65
g51
NtRp2720
(dp2721
g54
(dp2722
sg63
g2380
sg56
(lp2723
g49
(g70
g51
NtRp2724
(dp2725
g54
(dp2726
g74
g75
ssg63
g2720
sg56
(lp2727
S'SERVER_NAME'
p2728
asbag49
(g70
g51
NtRp2729
(dp2730
g54
(dp2731
g81
g82
ssg63
g2720
sg56
(lp2732
S':'
asbag49
(g70
g51
NtRp2733
(dp2734
g54
(dp2735
sg63
g2720
sg56
(lp2736
g49
(g50
g51
NtRp2737
(dp2738
g54
(dp2739
g62
I3
ssg63
g2733
sg56
(lp2740
g1325
asbasbasbag49
(g65
g51
NtRp2741
(dp2742
g54
(dp2743
sg63
g2380
sg56
(lp2744
g49
(g70
g51
NtRp2745
(dp2746
g54
(dp2747
g74
g75
ssg63
g2741
sg56
(lp2748
S'SERVER_PORT'
p2749
asbag49
(g70
g51
NtRp2750
(dp2751
g54
(dp2752
g81
g82
ssg63
g2741
sg56
(lp2753
S':'
asbag49
(g70
g51
NtRp2754
(dp2755
g54
(dp2756
sg63
g2741
sg56
(lp2757
g49
(g50
g51
NtRp2758
(dp2759
g54
(dp2760
g62
I3
ssg63
g2754
sg56
(lp2761
g1347
asbasbasbag49
(g65
g51
NtRp2762
(dp2763
g54
(dp2764
sg63
g2380
sg56
(lp2765
g49
(g70
g51
NtRp2766
(dp2767
g54
(dp2768
g74
g75
ssg63
g2762
sg56
(lp2769
S'SERVER_PROTOCOL'
p2770
asbag49
(g70
g51
NtRp2771
(dp2772
g54
(dp2773
g81
g82
ssg63
g2762
sg56
(lp2774
S':'
asbag49
(g70
g51
NtRp2775
(dp2776
g54
(dp2777
sg63
g2762
sg56
(lp2778
g49
(g50
g51
NtRp2779
(dp2780
g54
(dp2781
g62
I3
ssg63
g2775
sg56
(lp2782
g1369
asbasbasbag49
(g65
g51
NtRp2783
(dp2784
g54
(dp2785
sg63
g2380
sg56
(lp2786
g49
(g70
g51
NtRp2787
(dp2788
g54
(dp2789
g74
g75
ssg63
g2783
sg56
(lp2790
S'SERVER_SOFTWARE'
p2791
asbag49
(g70
g51
NtRp2792
(dp2793
g54
(dp2794
g81
g82
ssg63
g2783
sg56
(lp2795
S':'
asbag49
(g70
g51
NtRp2796
(dp2797
g54
(dp2798
sg63
g2783
sg56
(lp2799
g49
(g50
g51
NtRp2800
(dp2801
g54
(dp2802
g62
I3
ssg63
g2796
sg56
(lp2803
g1391
asbasbasbag49
(g65
g51
NtRp2804
(dp2805
g54
(dp2806
sg63
g2380
sg56
(lp2807
g49
(g70
g51
NtRp2808
(dp2809
g54
(dp2810
g74
g75
ssg63
g2804
sg56
(lp2811
S'wsgi.errors'
p2812
asbag49
(g70
g51
NtRp2813
(dp2814
g54
(dp2815
g81
g82
ssg63
g2804
sg56
(lp2816
S':'
asbag49
(g70
g51
NtRp2817
(dp2818
g54
(dp2819
sg63
g2804
sg56
(lp2820
g49
(g50
g51
NtRp2821
(dp2822
g54
(dp2823
g62
I3
ssg63
g2817
sg56
(lp2824
S"<open file '<stderr>', mode 'w' at 0x014F00B0>"
p2825
asbasbasbag49
(g65
g51
NtRp2826
(dp2827
g54
(dp2828
sg63
g2380
sg56
(lp2829
g49
(g70
g51
NtRp2830
(dp2831
g54
(dp2832
g74
g75
ssg63
g2826
sg56
(lp2833
S'wsgi.file_wrapper'
p2834
asbag49
(g70
g51
NtRp2835
(dp2836
g54
(dp2837
g81
g82
ssg63
g2826
sg56
(lp2838
S':'
asbag49
(g70
g51
NtRp2839
(dp2840
g54
(dp2841
sg63
g2826
sg56
(lp2842
g49
(g50
g51
NtRp2843
(dp2844
g54
(dp2845
g62
I3
ssg63
g2839
sg56
(lp2846
S'<class wsgiref.util.FileWrapper at 0x020041E0>'
p2847
asbasbasbag49
(g65
g51
NtRp2848
(dp2849
g54
(dp2850
sg63
g2380
sg56
(lp2851
g49
(g70
g51
NtRp2852
(dp2853
g54
(dp2854
g74
g75
ssg63
g2848
sg56
(lp2855
S'wsgi.input'
p2856
asbag49
(g70
g51
NtRp2857
(dp2858
g54
(dp2859
g81
g82
ssg63
g2848
sg56
(lp2860
S':'
asbag49
(g70
g51
NtRp2861
(dp2862
g54
(dp2863
sg63
g2848
sg56
(lp2864
g49
(g50
g51
NtRp2865
(dp2866
g54
(dp2867
g62
I3
ssg63
g2861
sg56
(lp2868
S'<cStringIO.StringO object at 0x04FE9260>'
p2869
asbasbasbag49
(g65
g51
NtRp2870
(dp2871
g54
(dp2872
sg63
g2380
sg56
(lp2873
g49
(g70
g51
NtRp2874
(dp2875
g54
(dp2876
g74
g75
ssg63
g2870
sg56
(lp2877
S'wsgi.multiprocess'
p2878
asbag49
(g70
g51
NtRp2879
(dp2880
g54
(dp2881
g81
g82
ssg63
g2870
sg56
(lp2882
S':'
asbag49
(g70
g51
NtRp2883
(dp2884
g54
(dp2885
sg63
g2870
sg56
(lp2886
g49
(g50
g51
NtRp2887
(dp2888
g54
(dp2889
g62
I3
ssg63
g2883
sg56
(lp2890
g92
asbasbasbag49
(g65
g51
NtRp2891
(dp2892
g54
(dp2893
sg63
g2380
sg56
(lp2894
g49
(g70
g51
NtRp2895
(dp2896
g54
(dp2897
g74
g75
ssg63
g2891
sg56
(lp2898
S'wsgi.multithread'
p2899
asbag49
(g70
g51
NtRp2900
(dp2901
g54
(dp2902
g81
g82
ssg63
g2891
sg56
(lp2903
S':'
asbag49
(g70
g51
NtRp2904
(dp2905
g54
(dp2906
sg63
g2891
sg56
(lp2907
g49
(g50
g51
NtRp2908
(dp2909
g54
(dp2910
g62
I3
ssg63
g2904
sg56
(lp2911
g1631
asbasbasbag49
(g65
g51
NtRp2912
(dp2913
g54
(dp2914
sg63
g2380
sg56
(lp2915
g49
(g70
g51
NtRp2916
(dp2917
g54
(dp2918
g74
g75
ssg63
g2912
sg56
(lp2919
S'wsgi.run_once'
p2920
asbag49
(g70
g51
NtRp2921
(dp2922
g54
(dp2923
g81
g82
ssg63
g2912
sg56
(lp2924
S':'
asbag49
(g70
g51
NtRp2925
(dp2926
g54
(dp2927
sg63
g2912
sg56
(lp2928
g49
(g50
g51
NtRp2929
(dp2930
g54
(dp2931
g62
I3
ssg63
g2925
sg56
(lp2932
g92
asbasbasbag49
(g65
g51
NtRp2933
(dp2934
g54
(dp2935
sg63
g2380
sg56
(lp2936
g49
(g70
g51
NtRp2937
(dp2938
g54
(dp2939
g74
g75
ssg63
g2933
sg56
(lp2940
S'wsgi.url_scheme'
p2941
asbag49
(g70
g51
NtRp2942
(dp2943
g54
(dp2944
g81
g82
ssg63
g2933
sg56
(lp2945
S':'
asbag49
(g70
g51
NtRp2946
(dp2947
g54
(dp2948
sg63
g2933
sg56
(lp2949
g49
(g50
g51
NtRp2950
(dp2951
g54
(dp2952
g62
I3
ssg63
g2946
sg56
(lp2953
g1674
asbasbasbag49
(g65
g51
NtRp2954
(dp2955
g54
(dp2956
sg63
g2380
sg56
(lp2957
g49
(g70
g51
NtRp2958
(dp2959
g54
(dp2960
g74
g75
ssg63
g2954
sg56
(lp2961
S'wsgi.version'
p2962
asbag49
(g70
g51
NtRp2963
(dp2964
g54
(dp2965
g81
g82
ssg63
g2954
sg56
(lp2966
S':'
asbag49
(g70
g51
NtRp2967
(dp2968
g54
(dp2969
sg63
g2954
sg56
(lp2970
g49
(g50
g51
NtRp2971
(dp2972
g54
(dp2973
g62
I3
ssg63
g2967
sg56
(lp2974
S'1'
asbasbasbasbasbasbasbasbasbasbasbasbasbsS'frames'
p2975
(lp2976
(dp2977
S'file'
p2978
S'C:\\Users\\Osku\\koodaus\\web2py\\gluon\\restricted.py'
p2979
sS'dump'
p2980
(dp2981
sS'lnum'
p2982
I205
sS'lines'
p2983
(dp2984
sS'call'
p2985
S'(code=r"response.write(\'<html>\\r\\n<head>\\r\\n\\t\\r\\n</head...e(\'\\r\\n</body>\\r\\n\\r\\n</html>\\r\\n\', escape=False)", environment={\'A\': <class \'gluon.html.A\'>, \'Auth\': <class \'gluon.tools.Auth\'>, \'B\': <class \'gluon.html.B\'>, \'BEAUTIFY\': <class \'gluon.html.BEAUTIFY\'>, \'BODY\': <class \'gluon.html.BODY\'>, \'BR\': <class \'gluon.html.BR\'>, \'BUTTON\': <class \'gluon.html.BUTTON\'>, \'CAT\': <class \'gluon.html.CAT\'>, \'CENTER\': <class \'gluon.html.CENTER\'>, \'CLEANUP\': <class \'gluon.validators.CLEANUP\'>, ...}, layer=r\'C:\\Users\\Osku\\koodaus\\web2py\\applications\\sitsit\\views\\default/sitsit.html\')'
p2986
sS'func'
p2987
S'restricted'
p2988
sa(dp2989
g2978
S'C:\\Users\\Osku\\koodaus\\web2py\\applications\\sitsit\\views\\default\\sitsit.html'
p2990
sg2980
(dp2991
sg2982
I2
sg2983
(dp2992
I1
S"response.write('<html>\\r\\n<head>\\r\\n\\t\\r\\n</head>\\r\\n<body>\\r\\n', escape=False)"
p2993
sI2
S'if found==False:'
p2994
sI3
S"    response.write('\\r\\nEi loytyny\\r\\n', escape=False)"
p2995
sI4
S'    pass'
p2996
sI5
S"response.write('\\r\\n</body>\\r\\n\\r\\n</html>\\r\\n', escape=False)"
p2997
ssg2985
S'()'
p2998
sg2987
S'<module>'
p2999
sasS'pyver'
p3000
S'Python 2.5.4: C:\\Users\\Osku\\koodaus\\web2py\\web2py.exe'
p3001
sS'session'
p3002
g49
(g50
g51
NtRp3003
(dp3004
g54
(dp3005
sg56
(lp3006
g49
(g58
g51
NtRp3007
(dp3008
g54
(dp3009
g62
I5
ssg63
Nsg56
(lp3010
g49
(g65
g51
NtRp3011
(dp3012
g54
(dp3013
sg63
g3007
sg56
(lp3014
g49
(g70
g51
NtRp3015
(dp3016
g54
(dp3017
g74
g75
ssg63
g3011
sg56
(lp3018
S'auth'
p3019
asbag49
(g70
g51
NtRp3020
(dp3021
g54
(dp3022
g81
g82
ssg63
g3011
sg56
(lp3023
S':'
asbag49
(g70
g51
NtRp3024
(dp3025
g54
(dp3026
sg63
g3011
sg56
(lp3027
g49
(g50
g51
NtRp3028
(dp3029
g54
(dp3030
g62
I5
ssg63
g3024
sg56
(lp3031
g49
(g58
g51
NtRp3032
(dp3033
g54
(dp3034
g62
I4
ssg63
Nsg56
(lp3035
g49
(g65
g51
NtRp3036
(dp3037
g54
(dp3038
sg63
g3032
sg56
(lp3039
g49
(g70
g51
NtRp3040
(dp3041
g54
(dp3042
g74
g75
ssg63
g3036
sg56
(lp3043
S'expiration'
p3044
asbag49
(g70
g51
NtRp3045
(dp3046
g54
(dp3047
g81
g82
ssg63
g3036
sg56
(lp3048
S':'
asbag49
(g70
g51
NtRp3049
(dp3050
g54
(dp3051
sg63
g3036
sg56
(lp3052
g49
(g50
g51
NtRp3053
(dp3054
g54
(dp3055
g62
I4
ssg63
g3049
sg56
(lp3056
S'3600'
p3057
asbasbasbag49
(g65
g51
NtRp3058
(dp3059
g54
(dp3060
sg63
g3032
sg56
(lp3061
g49
(g70
g51
NtRp3062
(dp3063
g54
(dp3064
g74
g75
ssg63
g3058
sg56
(lp3065
S'hmac_key'
p3066
asbag49
(g70
g51
NtRp3067
(dp3068
g54
(dp3069
g81
g82
ssg63
g3058
sg56
(lp3070
S':'
asbag49
(g70
g51
NtRp3071
(dp3072
g54
(dp3073
sg63
g3058
sg56
(lp3074
g49
(g50
g51
NtRp3075
(dp3076
g54
(dp3077
g62
I4
ssg63
g3071
sg56
(lp3078
S'871ae63d-f3e0-499f-bd79-a2b724d0a3d4'
p3079
asbasbasbag49
(g65
g51
NtRp3080
(dp3081
g54
(dp3082
sg63
g3032
sg56
(lp3083
g49
(g70
g51
NtRp3084
(dp3085
g54
(dp3086
g74
g75
ssg63
g3080
sg56
(lp3087
S'last_visit'
p3088
asbag49
(g70
g51
NtRp3089
(dp3090
g54
(dp3091
g81
g82
ssg63
g3080
sg56
(lp3092
S':'
asbag49
(g70
g51
NtRp3093
(dp3094
g54
(dp3095
sg63
g3080
sg56
(lp3096
g49
(g50
g51
NtRp3097
(dp3098
g54
(dp3099
g62
I4
ssg63
g3093
sg56
(lp3100
S'datetime.datetime(2012, 7, 6, 22, 59, 51, 554000)'
p3101
asbasbasbag49
(g65
g51
NtRp3102
(dp3103
g54
(dp3104
sg63
g3032
sg56
(lp3105
g49
(g70
g51
NtRp3106
(dp3107
g54
(dp3108
g74
g75
ssg63
g3102
sg56
(lp3109
S'user'
p3110
asbag49
(g70
g51
NtRp3111
(dp3112
g54
(dp3113
g81
g82
ssg63
g3102
sg56
(lp3114
S':'
asbag49
(g70
g51
NtRp3115
(dp3116
g54
(dp3117
sg63
g3102
sg56
(lp3118
g49
(g50
g51
NtRp3119
(dp3120
g54
(dp3121
g62
I4
ssg63
g3115
sg56
(lp3122
g49
(g58
g51
NtRp3123
(dp3124
g54
(dp3125
g62
I3
ssg63
Nsg56
(lp3126
g49
(g65
g51
NtRp3127
(dp3128
g54
(dp3129
sg63
g3123
sg56
(lp3130
g49
(g70
g51
NtRp3131
(dp3132
g54
(dp3133
g74
g75
ssg63
g3127
sg56
(lp3134
S'birthdate'
p3135
asbag49
(g70
g51
NtRp3136
(dp3137
g54
(dp3138
g81
g82
ssg63
g3127
sg56
(lp3139
S':'
asbag49
(g70
g51
NtRp3140
(dp3141
g54
(dp3142
sg63
g3127
sg56
(lp3143
g49
(g50
g51
NtRp3144
(dp3145
g54
(dp3146
g62
I3
ssg63
g3140
sg56
(lp3147
S'None'
p3148
asbasbasbag49
(g65
g51
NtRp3149
(dp3150
g54
(dp3151
sg63
g3123
sg56
(lp3152
g49
(g70
g51
NtRp3153
(dp3154
g54
(dp3155
g74
g75
ssg63
g3149
sg56
(lp3156
S'email'
p3157
asbag49
(g70
g51
NtRp3158
(dp3159
g54
(dp3160
g81
g82
ssg63
g3149
sg56
(lp3161
S':'
asbag49
(g70
g51
NtRp3162
(dp3163
g54
(dp3164
sg63
g3149
sg56
(lp3165
g49
(g50
g51
NtRp3166
(dp3167
g54
(dp3168
g62
I3
ssg63
g3162
sg56
(lp3169
S'oskari.petas@gmail.com'
p3170
asbasbasbag49
(g65
g51
NtRp3171
(dp3172
g54
(dp3173
sg63
g3123
sg56
(lp3174
g49
(g70
g51
NtRp3175
(dp3176
g54
(dp3177
g74
g75
ssg63
g3171
sg56
(lp3178
S'first_name'
p3179
asbag49
(g70
g51
NtRp3180
(dp3181
g54
(dp3182
g81
g82
ssg63
g3171
sg56
(lp3183
S':'
asbag49
(g70
g51
NtRp3184
(dp3185
g54
(dp3186
sg63
g3171
sg56
(lp3187
g49
(g50
g51
NtRp3188
(dp3189
g54
(dp3190
g62
I3
ssg63
g3184
sg56
(lp3191
S'Oskari'
p3192
asbasbasbag49
(g65
g51
NtRp3193
(dp3194
g54
(dp3195
sg63
g3123
sg56
(lp3196
g49
(g70
g51
NtRp3197
(dp3198
g54
(dp3199
g74
g75
ssg63
g3193
sg56
(lp3200
S'id'
p3201
asbag49
(g70
g51
NtRp3202
(dp3203
g54
(dp3204
g81
g82
ssg63
g3193
sg56
(lp3205
S':'
asbag49
(g70
g51
NtRp3206
(dp3207
g54
(dp3208
sg63
g3193
sg56
(lp3209
g49
(g50
g51
NtRp3210
(dp3211
g54
(dp3212
g62
I3
ssg63
g3206
sg56
(lp3213
S'1'
asbasbasbag49
(g65
g51
NtRp3214
(dp3215
g54
(dp3216
sg63
g3123
sg56
(lp3217
g49
(g70
g51
NtRp3218
(dp3219
g54
(dp3220
g74
g75
ssg63
g3214
sg56
(lp3221
S'last_name'
p3222
asbag49
(g70
g51
NtRp3223
(dp3224
g54
(dp3225
g81
g82
ssg63
g3214
sg56
(lp3226
S':'
asbag49
(g70
g51
NtRp3227
(dp3228
g54
(dp3229
sg63
g3214
sg56
(lp3230
g49
(g50
g51
NtRp3231
(dp3232
g54
(dp3233
g62
I3
ssg63
g3227
sg56
(lp3234
S'Petas'
p3235
asbasbasbag49
(g65
g51
NtRp3236
(dp3237
g54
(dp3238
sg63
g3123
sg56
(lp3239
g49
(g70
g51
NtRp3240
(dp3241
g54
(dp3242
g74
g75
ssg63
g3236
sg56
(lp3243
S'password'
p3244
asbag49
(g70
g51
NtRp3245
(dp3246
g54
(dp3247
g81
g82
ssg63
g3236
sg56
(lp3248
S':'
asbag49
(g70
g51
NtRp3249
(dp3250
g54
(dp3251
sg63
g3236
sg56
(lp3252
g49
(g50
g51
NtRp3253
(dp3254
g54
(dp3255
g62
I3
ssg63
g3249
sg56
(lp3256
S'b11d7fe42f4ed95554a3bb1f580d7880'
p3257
asbasbasbag49
(g65
g51
NtRp3258
(dp3259
g54
(dp3260
sg63
g3123
sg56
(lp3261
g49
(g70
g51
NtRp3262
(dp3263
g54
(dp3264
g74
g75
ssg63
g3258
sg56
(lp3265
S'registration_id'
p3266
asbag49
(g70
g51
NtRp3267
(dp3268
g54
(dp3269
g81
g82
ssg63
g3258
sg56
(lp3270
S':'
asbag49
(g70
g51
NtRp3271
(dp3272
g54
(dp3273
sg63
g3258
sg56
(lp3274
g49
(g50
g51
NtRp3275
(dp3276
g54
(dp3277
g62
I3
ssg63
g3271
sg56
(lp3278
S''
asbasbasbag49
(g65
g51
NtRp3279
(dp3280
g54
(dp3281
sg63
g3123
sg56
(lp3282
g49
(g70
g51
NtRp3283
(dp3284
g54
(dp3285
g74
g75
ssg63
g3279
sg56
(lp3286
S'registration_key'
p3287
asbag49
(g70
g51
NtRp3288
(dp3289
g54
(dp3290
g81
g82
ssg63
g3279
sg56
(lp3291
S':'
asbag49
(g70
g51
NtRp3292
(dp3293
g54
(dp3294
sg63
g3279
sg56
(lp3295
g49
(g50
g51
NtRp3296
(dp3297
g54
(dp3298
g62
I3
ssg63
g3292
sg56
(lp3299
S''
asbasbasbag49
(g65
g51
NtRp3300
(dp3301
g54
(dp3302
sg63
g3123
sg56
(lp3303
g49
(g70
g51
NtRp3304
(dp3305
g54
(dp3306
g74
g75
ssg63
g3300
sg56
(lp3307
S'representation'
p3308
asbag49
(g70
g51
NtRp3309
(dp3310
g54
(dp3311
g81
g82
ssg63
g3300
sg56
(lp3312
S':'
asbag49
(g70
g51
NtRp3313
(dp3314
g54
(dp3315
sg63
g3300
sg56
(lp3316
g49
(g50
g51
NtRp3317
(dp3318
g54
(dp3319
g62
I3
ssg63
g3313
sg56
(lp3320
S'AS'
p3321
asbasbasbag49
(g65
g51
NtRp3322
(dp3323
g54
(dp3324
sg63
g3123
sg56
(lp3325
g49
(g70
g51
NtRp3326
(dp3327
g54
(dp3328
g74
g75
ssg63
g3322
sg56
(lp3329
S'reset_password_key'
p3330
asbag49
(g70
g51
NtRp3331
(dp3332
g54
(dp3333
g81
g82
ssg63
g3322
sg56
(lp3334
S':'
asbag49
(g70
g51
NtRp3335
(dp3336
g54
(dp3337
sg63
g3322
sg56
(lp3338
g49
(g50
g51
NtRp3339
(dp3340
g54
(dp3341
g62
I3
ssg63
g3335
sg56
(lp3342
S''
asbasbasbasbasbasbasbag49
(g65
g51
NtRp3343
(dp3344
g54
(dp3345
sg63
g3032
sg56
(lp3346
g49
(g70
g51
NtRp3347
(dp3348
g54
(dp3349
g74
g75
ssg63
g3343
sg56
(lp3350
S'user_groups'
p3351
asbag49
(g70
g51
NtRp3352
(dp3353
g54
(dp3354
g81
g82
ssg63
g3343
sg56
(lp3355
S':'
asbag49
(g70
g51
NtRp3356
(dp3357
g54
(dp3358
sg63
g3343
sg56
(lp3359
g49
(g50
g51
NtRp3360
(dp3361
g54
(dp3362
g62
I4
ssg63
g3356
sg56
(lp3363
g49
(g58
g51
NtRp3364
(dp3365
g54
(dp3366
g62
I3
ssg63
Nsg56
(lp3367
g49
(g65
g51
NtRp3368
(dp3369
g54
(dp3370
sg63
g3364
sg56
(lp3371
g49
(g70
g51
NtRp3372
(dp3373
g54
(dp3374
g74
g75
ssg63
g3368
sg56
(lp3375
S'1'
asbag49
(g70
g51
NtRp3376
(dp3377
g54
(dp3378
g81
g82
ssg63
g3368
sg56
(lp3379
S':'
asbag49
(g70
g51
NtRp3380
(dp3381
g54
(dp3382
sg63
g3368
sg56
(lp3383
g49
(g50
g51
NtRp3384
(dp3385
g54
(dp3386
g62
I3
ssg63
g3380
sg56
(lp3387
S'user_1'
p3388
asbasbasbasbasbasbasbasbasbasbasbasbasbsS'etype'
p3389
S"<type 'exceptions.NameError'>"
p3390
sS'date'
p3391
S'Fri Jul 06 23:04:15 2012'
p3392
sS'response'
p3393
g49
(g50
g51
NtRp3394
(dp3395
g54
(dp3396
sg56
(lp3397
g49
(g58
g51
NtRp3398
(dp3399
g54
(dp3400
g62
I5
ssg63
Nsg56
(lp3401
g49
(g65
g51
NtRp3402
(dp3403
g54
(dp3404
sg63
g3398
sg56
(lp3405
g49
(g70
g51
NtRp3406
(dp3407
g54
(dp3408
g74
g75
ssg63
g3402
sg56
(lp3409
g147
asbag49
(g70
g51
NtRp3410
(dp3411
g54
(dp3412
g81
g82
ssg63
g3402
sg56
(lp3413
S':'
asbag49
(g70
g51
NtRp3414
(dp3415
g54
(dp3416
sg63
g3402
sg56
(lp3417
g49
(g50
g51
NtRp3418
(dp3419
g54
(dp3420
g62
I5
ssg63
g3414
sg56
(lp3421
S'<cStringIO.StringO object at 0x051A2BA0>'
p3422
asbasbasbag49
(g65
g51
NtRp3423
(dp3424
g54
(dp3425
sg63
g3398
sg56
(lp3426
g49
(g70
g51
NtRp3427
(dp3428
g54
(dp3429
g74
g75
ssg63
g3423
sg56
(lp3430
g213
asbag49
(g70
g51
NtRp3431
(dp3432
g54
(dp3433
g81
g82
ssg63
g3423
sg56
(lp3434
S':'
asbag49
(g70
g51
NtRp3435
(dp3436
g54
(dp3437
sg63
g3423
sg56
(lp3438
g49
(g50
g51
NtRp3439
(dp3440
g54
(dp3441
g62
I5
ssg63
g3435
sg56
(lp3442
g49
(g58
g51
NtRp3443
(dp3444
g54
(dp3445
g62
I4
ssg63
Nsg56
(lp3446
g49
(g65
g51
NtRp3447
(dp3448
g54
(dp3449
sg63
g3443
sg56
(lp3450
g49
(g70
g51
NtRp3451
(dp3452
g54
(dp3453
g74
g75
ssg63
g3447
sg56
(lp3454
S'session_id_sitsit'
p3455
asbag49
(g70
g51
NtRp3456
(dp3457
g54
(dp3458
g81
g82
ssg63
g3447
sg56
(lp3459
S':'
asbag49
(g70
g51
NtRp3460
(dp3461
g54
(dp3462
sg63
g3447
sg56
(lp3463
g49
(g50
g51
NtRp3464
(dp3465
g54
(dp3466
g62
I4
ssg63
g3460
sg56
(lp3467
g49
(g58
g51
NtRp3468
(dp3469
g54
(dp3470
g62
I3
ssg63
Nsg56
(lp3471
g49
(g65
g51
NtRp3472
(dp3473
g54
(dp3474
sg63
g3468
sg56
(lp3475
g49
(g70
g51
NtRp3476
(dp3477
g54
(dp3478
g74
g75
ssg63
g3472
sg56
(lp3479
g263
asbag49
(g70
g51
NtRp3480
(dp3481
g54
(dp3482
g81
g82
ssg63
g3472
sg56
(lp3483
S':'
asbag49
(g70
g51
NtRp3484
(dp3485
g54
(dp3486
sg63
g3472
sg56
(lp3487
g49
(g50
g51
NtRp3488
(dp3489
g54
(dp3490
g62
I3
ssg63
g3484
sg56
(lp3491
S''
asbasbasbag49
(g65
g51
NtRp3492
(dp3493
g54
(dp3494
sg63
g3468
sg56
(lp3495
g49
(g70
g51
NtRp3496
(dp3497
g54
(dp3498
g74
g75
ssg63
g3492
sg56
(lp3499
g284
asbag49
(g70
g51
NtRp3500
(dp3501
g54
(dp3502
g81
g82
ssg63
g3492
sg56
(lp3503
S':'
asbag49
(g70
g51
NtRp3504
(dp3505
g54
(dp3506
sg63
g3492
sg56
(lp3507
g49
(g50
g51
NtRp3508
(dp3509
g54
(dp3510
g62
I3
ssg63
g3504
sg56
(lp3511
S''
asbasbasbag49
(g65
g51
NtRp3512
(dp3513
g54
(dp3514
sg63
g3468
sg56
(lp3515
g49
(g70
g51
NtRp3516
(dp3517
g54
(dp3518
g74
g75
ssg63
g3512
sg56
(lp3519
g305
asbag49
(g70
g51
NtRp3520
(dp3521
g54
(dp3522
g81
g82
ssg63
g3512
sg56
(lp3523
S':'
asbag49
(g70
g51
NtRp3524
(dp3525
g54
(dp3526
sg63
g3512
sg56
(lp3527
g49
(g50
g51
NtRp3528
(dp3529
g54
(dp3530
g62
I3
ssg63
g3524
sg56
(lp3531
S''
asbasbasbag49
(g65
g51
NtRp3532
(dp3533
g54
(dp3534
sg63
g3468
sg56
(lp3535
g49
(g70
g51
NtRp3536
(dp3537
g54
(dp3538
g74
g75
ssg63
g3532
sg56
(lp3539
g326
asbag49
(g70
g51
NtRp3540
(dp3541
g54
(dp3542
g81
g82
ssg63
g3532
sg56
(lp3543
S':'
asbag49
(g70
g51
NtRp3544
(dp3545
g54
(dp3546
sg63
g3532
sg56
(lp3547
g49
(g50
g51
NtRp3548
(dp3549
g54
(dp3550
g62
I3
ssg63
g3544
sg56
(lp3551
S''
asbasbasbag49
(g65
g51
NtRp3552
(dp3553
g54
(dp3554
sg63
g3468
sg56
(lp3555
g49
(g70
g51
NtRp3556
(dp3557
g54
(dp3558
g74
g75
ssg63
g3552
sg56
(lp3559
g347
asbag49
(g70
g51
NtRp3560
(dp3561
g54
(dp3562
g81
g82
ssg63
g3552
sg56
(lp3563
S':'
asbag49
(g70
g51
NtRp3564
(dp3565
g54
(dp3566
sg63
g3552
sg56
(lp3567
g49
(g50
g51
NtRp3568
(dp3569
g54
(dp3570
g62
I3
ssg63
g3564
sg56
(lp3571
S'/'
asbasbasbag49
(g65
g51
NtRp3572
(dp3573
g54
(dp3574
sg63
g3468
sg56
(lp3575
g49
(g70
g51
NtRp3576
(dp3577
g54
(dp3578
g74
g75
ssg63
g3572
sg56
(lp3579
g368
asbag49
(g70
g51
NtRp3580
(dp3581
g54
(dp3582
g81
g82
ssg63
g3572
sg56
(lp3583
S':'
asbag49
(g70
g51
NtRp3584
(dp3585
g54
(dp3586
sg63
g3572
sg56
(lp3587
g49
(g50
g51
NtRp3588
(dp3589
g54
(dp3590
g62
I3
ssg63
g3584
sg56
(lp3591
S''
asbasbasbag49
(g65
g51
NtRp3592
(dp3593
g54
(dp3594
sg63
g3468
sg56
(lp3595
g49
(g70
g51
NtRp3596
(dp3597
g54
(dp3598
g74
g75
ssg63
g3592
sg56
(lp3599
g389
asbag49
(g70
g51
NtRp3600
(dp3601
g54
(dp3602
g81
g82
ssg63
g3592
sg56
(lp3603
S':'
asbag49
(g70
g51
NtRp3604
(dp3605
g54
(dp3606
sg63
g3592
sg56
(lp3607
g49
(g50
g51
NtRp3608
(dp3609
g54
(dp3610
g62
I3
ssg63
g3604
sg56
(lp3611
S''
asbasbasbasbasbasbasbasbasbasbasbag49
(g65
g51
NtRp3612
(dp3613
g54
(dp3614
sg63
g3398
sg56
(lp3615
g49
(g70
g51
NtRp3616
(dp3617
g54
(dp3618
g74
g75
ssg63
g3612
sg56
(lp3619
S'delimiters'
p3620
asbag49
(g70
g51
NtRp3621
(dp3622
g54
(dp3623
g81
g82
ssg63
g3612
sg56
(lp3624
S':'
asbag49
(g70
g51
NtRp3625
(dp3626
g54
(dp3627
sg63
g3612
sg56
(lp3628
g49
(g50
g51
NtRp3629
(dp3630
g54
(dp3631
g62
I5
ssg63
g3625
sg56
(lp3632
g49
(g58
g51
NtRp3633
(dp3634
g54
(dp3635
g62
I4
ssg63
Nsg56
(lp3636
g49
(g65
g51
NtRp3637
(dp3638
g54
(dp3639
sg63
g3633
sg56
(lp3640
g49
(g70
g51
NtRp3641
(dp3642
g54
(dp3643
sg63
g3637
sg56
(lp3644
g49
(g50
g51
NtRp3645
(dp3646
g54
(dp3647
g62
I4
ssg63
g3641
sg56
(lp3648
S'{{'
p3649
asbasbasbag49
(g65
g51
NtRp3650
(dp3651
g54
(dp3652
sg63
g3633
sg56
(lp3653
g49
(g70
g51
NtRp3654
(dp3655
g54
(dp3656
sg63
g3650
sg56
(lp3657
g49
(g50
g51
NtRp3658
(dp3659
g54
(dp3660
g62
I4
ssg63
g3654
sg56
(lp3661
S'}}'
p3662
asbasbasbasbasbasbasbag49
(g65
g51
NtRp3663
(dp3664
g54
(dp3665
sg63
g3398
sg56
(lp3666
g49
(g70
g51
NtRp3667
(dp3668
g54
(dp3669
g74
g75
ssg63
g3663
sg56
(lp3670
S'files'
p3671
asbag49
(g70
g51
NtRp3672
(dp3673
g54
(dp3674
g81
g82
ssg63
g3663
sg56
(lp3675
S':'
asbag49
(g70
g51
NtRp3676
(dp3677
g54
(dp3678
sg63
g3663
sg56
(lp3679
g49
(g50
g51
NtRp3680
(dp3681
g54
(dp3682
g62
I5
ssg63
g3676
sg56
(lp3683
g49
(g58
g51
NtRp3684
(dp3685
g54
(dp3686
g62
I4
ssg63
Nsg56
(lp3687
sbasbasbasbag49
(g65
g51
NtRp3688
(dp3689
g54
(dp3690
sg63
g3398
sg56
(lp3691
g49
(g70
g51
NtRp3692
(dp3693
g54
(dp3694
g74
g75
ssg63
g3688
sg56
(lp3695
S'flash'
p3696
asbag49
(g70
g51
NtRp3697
(dp3698
g54
(dp3699
g81
g82
ssg63
g3688
sg56
(lp3700
S':'
asbag49
(g70
g51
NtRp3701
(dp3702
g54
(dp3703
sg63
g3688
sg56
(lp3704
g49
(g50
g51
NtRp3705
(dp3706
g54
(dp3707
g62
I5
ssg63
g3701
sg56
(lp3708
S''
asbasbasbag49
(g65
g51
NtRp3709
(dp3710
g54
(dp3711
sg63
g3398
sg56
(lp3712
g49
(g70
g51
NtRp3713
(dp3714
g54
(dp3715
g74
g75
ssg63
g3709
sg56
(lp3716
S'generic_patterns'
p3717
asbag49
(g70
g51
NtRp3718
(dp3719
g54
(dp3720
g81
g82
ssg63
g3709
sg56
(lp3721
S':'
asbag49
(g70
g51
NtRp3722
(dp3723
g54
(dp3724
sg63
g3709
sg56
(lp3725
g49
(g50
g51
NtRp3726
(dp3727
g54
(dp3728
g62
I5
ssg63
g3722
sg56
(lp3729
g49
(g58
g51
NtRp3730
(dp3731
g54
(dp3732
g62
I4
ssg63
Nsg56
(lp3733
g49
(g65
g51
NtRp3734
(dp3735
g54
(dp3736
sg63
g3730
sg56
(lp3737
g49
(g70
g51
NtRp3738
(dp3739
g54
(dp3740
sg63
g3734
sg56
(lp3741
g49
(g50
g51
NtRp3742
(dp3743
g54
(dp3744
g62
I4
ssg63
g3738
sg56
(lp3745
S'*'
asbasbasbasbasbasbasbag49
(g65
g51
NtRp3746
(dp3747
g54
(dp3748
sg63
g3398
sg56
(lp3749
g49
(g70
g51
NtRp3750
(dp3751
g54
(dp3752
g74
g75
ssg63
g3746
sg56
(lp3753
S'headers'
p3754
asbag49
(g70
g51
NtRp3755
(dp3756
g54
(dp3757
g81
g82
ssg63
g3746
sg56
(lp3758
S':'
asbag49
(g70
g51
NtRp3759
(dp3760
g54
(dp3761
sg63
g3746
sg56
(lp3762
g49
(g50
g51
NtRp3763
(dp3764
g54
(dp3765
g62
I5
ssg63
g3759
sg56
(lp3766
g49
(g58
g51
NtRp3767
(dp3768
g54
(dp3769
g62
I4
ssg63
Nsg56
(lp3770
g49
(g65
g51
NtRp3771
(dp3772
g54
(dp3773
sg63
g3767
sg56
(lp3774
g49
(g70
g51
NtRp3775
(dp3776
g54
(dp3777
g74
g75
ssg63
g3771
sg56
(lp3778
S'Cache-Control'
p3779
asbag49
(g70
g51
NtRp3780
(dp3781
g54
(dp3782
g81
g82
ssg63
g3771
sg56
(lp3783
S':'
asbag49
(g70
g51
NtRp3784
(dp3785
g54
(dp3786
sg63
g3771
sg56
(lp3787
g49
(g50
g51
NtRp3788
(dp3789
g54
(dp3790
g62
I4
ssg63
g3784
sg56
(lp3791
S'no-store, no-cache, must-revalidate, post-check=0, pre-check=0'
p3792
asbasbasbag49
(g65
g51
NtRp3793
(dp3794
g54
(dp3795
sg63
g3767
sg56
(lp3796
g49
(g70
g51
NtRp3797
(dp3798
g54
(dp3799
g74
g75
ssg63
g3793
sg56
(lp3800
S'Content-Type'
p3801
asbag49
(g70
g51
NtRp3802
(dp3803
g54
(dp3804
g81
g82
ssg63
g3793
sg56
(lp3805
S':'
asbag49
(g70
g51
NtRp3806
(dp3807
g54
(dp3808
sg63
g3793
sg56
(lp3809
g49
(g50
g51
NtRp3810
(dp3811
g54
(dp3812
g62
I4
ssg63
g3806
sg56
(lp3813
S'text/html; charset=utf-8'
p3814
asbasbasbag49
(g65
g51
NtRp3815
(dp3816
g54
(dp3817
sg63
g3767
sg56
(lp3818
g49
(g70
g51
NtRp3819
(dp3820
g54
(dp3821
g74
g75
ssg63
g3815
sg56
(lp3822
S'Expires'
p3823
asbag49
(g70
g51
NtRp3824
(dp3825
g54
(dp3826
g81
g82
ssg63
g3815
sg56
(lp3827
S':'
asbag49
(g70
g51
NtRp3828
(dp3829
g54
(dp3830
sg63
g3815
sg56
(lp3831
g49
(g50
g51
NtRp3832
(dp3833
g54
(dp3834
g62
I4
ssg63
g3828
sg56
(lp3835
S'Fri, 06 Jul 2012 21:04:15 GMT'
p3836
asbasbasbag49
(g65
g51
NtRp3837
(dp3838
g54
(dp3839
sg63
g3767
sg56
(lp3840
g49
(g70
g51
NtRp3841
(dp3842
g54
(dp3843
g74
g75
ssg63
g3837
sg56
(lp3844
S'Pragma'
p3845
asbag49
(g70
g51
NtRp3846
(dp3847
g54
(dp3848
g81
g82
ssg63
g3837
sg56
(lp3849
S':'
asbag49
(g70
g51
NtRp3850
(dp3851
g54
(dp3852
sg63
g3837
sg56
(lp3853
g49
(g50
g51
NtRp3854
(dp3855
g54
(dp3856
g62
I4
ssg63
g3850
sg56
(lp3857
S'no-cache'
p3858
asbasbasbag49
(g65
g51
NtRp3859
(dp3860
g54
(dp3861
sg63
g3767
sg56
(lp3862
g49
(g70
g51
NtRp3863
(dp3864
g54
(dp3865
g74
g75
ssg63
g3859
sg56
(lp3866
S'X-Powered-By'
p3867
asbag49
(g70
g51
NtRp3868
(dp3869
g54
(dp3870
g81
g82
ssg63
g3859
sg56
(lp3871
S':'
asbag49
(g70
g51
NtRp3872
(dp3873
g54
(dp3874
sg63
g3859
sg56
(lp3875
g49
(g50
g51
NtRp3876
(dp3877
g54
(dp3878
g62
I4
ssg63
g3872
sg56
(lp3879
S'web2py'
p3880
asbasbasbasbasbasbasbag49
(g65
g51
NtRp3881
(dp3882
g54
(dp3883
sg63
g3398
sg56
(lp3884
g49
(g70
g51
NtRp3885
(dp3886
g54
(dp3887
g74
g75
ssg63
g3881
sg56
(lp3888
S'menu'
p3889
asbag49
(g70
g51
NtRp3890
(dp3891
g54
(dp3892
g81
g82
ssg63
g3881
sg56
(lp3893
S':'
asbag49
(g70
g51
NtRp3894
(dp3895
g54
(dp3896
sg63
g3881
sg56
(lp3897
g49
(g50
g51
NtRp3898
(dp3899
g54
(dp3900
g62
I5
ssg63
g3894
sg56
(lp3901
g49
(g58
g51
NtRp3902
(dp3903
g54
(dp3904
g62
I4
ssg63
Nsg56
(lp3905
g49
(g65
g51
NtRp3906
(dp3907
g54
(dp3908
sg63
g3902
sg56
(lp3909
g49
(g70
g51
NtRp3910
(dp3911
g54
(dp3912
sg63
g3906
sg56
(lp3913
g49
(g50
g51
NtRp3914
(dp3915
g54
(dp3916
g62
I4
ssg63
g3910
sg56
(lp3917
g49
(g58
g51
NtRp3918
(dp3919
g54
(dp3920
g62
I3
ssg63
Nsg56
(lp3921
g49
(g65
g51
NtRp3922
(dp3923
g54
(dp3924
sg63
g3918
sg56
(lp3925
g49
(g70
g51
NtRp3926
(dp3927
g54
(dp3928
sg63
g3922
sg56
(lp3929
g49
(g50
g51
NtRp3930
(dp3931
g54
(dp3932
g62
I3
ssg63
g3926
sg56
(lp3933
cgluon.languages
lazyT_unpickle
p3934
(S's\x04\x00\x00\x00Home'
tRp3935
asbasbasbag49
(g65
g51
NtRp3936
(dp3937
g54
(dp3938
sg63
g3918
sg56
(lp3939
g49
(g70
g51
NtRp3940
(dp3941
g54
(dp3942
sg63
g3936
sg56
(lp3943
g49
(g50
g51
NtRp3944
(dp3945
g54
(dp3946
g62
I3
ssg63
g3940
sg56
(lp3947
g92
asbasbasbag49
(g65
g51
NtRp3948
(dp3949
g54
(dp3950
sg63
g3918
sg56
(lp3951
g49
(g70
g51
NtRp3952
(dp3953
g54
(dp3954
sg63
g3948
sg56
(lp3955
g49
(g50
g51
NtRp3956
(dp3957
g54
(dp3958
g62
I3
ssg63
g3952
sg56
(lp3959
S'/sitsit/default/index'
p3960
asbasbasbag49
(g65
g51
NtRp3961
(dp3962
g54
(dp3963
sg63
g3918
sg56
(lp3964
g49
(g70
g51
NtRp3965
(dp3966
g54
(dp3967
sg63
g3961
sg56
(lp3968
g49
(g50
g51
NtRp3969
(dp3970
g54
(dp3971
g62
I3
ssg63
g3965
sg56
(lp3972
g49
(g58
g51
NtRp3973
(dp3974
g54
(dp3975
g62
I2
ssg63
Nsg56
(lp3976
sbasbasbasbasbasbasbasbag49
(g65
g51
NtRp3977
(dp3978
g54
(dp3979
sg63
g3902
sg56
(lp3980
g49
(g70
g51
NtRp3981
(dp3982
g54
(dp3983
sg63
g3977
sg56
(lp3984
g49
(g50
g51
NtRp3985
(dp3986
g54
(dp3987
g62
I4
ssg63
g3981
sg56
(lp3988
g49
(g58
g51
NtRp3989
(dp3990
g54
(dp3991
g62
I3
ssg63
Nsg56
(lp3992
g49
(g65
g51
NtRp3993
(dp3994
g54
(dp3995
sg63
g3989
sg56
(lp3996
g49
(g70
g51
NtRp3997
(dp3998
g54
(dp3999
sg63
g3993
sg56
(lp4000
g49
(g50
g51
NtRp4001
(dp4002
g54
(dp4003
g62
I3
ssg63
g3997
sg56
(lp4004
g49
(cgluon.html
SPAN
p4005
g51
NtRp4006
(dp4007
g54
(dp4008
g74
S'color:yellow'
p4009
ssg63
Nsg56
(lp4010
g3880
asbasbasbasbag49
(g65
g51
NtRp4011
(dp4012
g54
(dp4013
sg63
g3989
sg56
(lp4014
g49
(g70
g51
NtRp4015
(dp4016
g54
(dp4017
sg63
g4011
sg56
(lp4018
g49
(g50
g51
NtRp4019
(dp4020
g54
(dp4021
g62
I3
ssg63
g4015
sg56
(lp4022
g92
asbasbasbag49
(g65
g51
NtRp4023
(dp4024
g54
(dp4025
sg63
g3989
sg56
(lp4026
g49
(g70
g51
NtRp4027
(dp4028
g54
(dp4029
sg63
g4023
sg56
(lp4030
g49
(g50
g51
NtRp4031
(dp4032
g54
(dp4033
g62
I3
ssg63
g4027
sg56
(lp4034
S'None'
p4035
asbasbasbag49
(g65
g51
NtRp4036
(dp4037
g54
(dp4038
sg63
g3989
sg56
(lp4039
g49
(g70
g51
NtRp4040
(dp4041
g54
(dp4042
sg63
g4036
sg56
(lp4043
g49
(g50
g51
NtRp4044
(dp4045
g54
(dp4046
g62
I3
ssg63
g4040
sg56
(lp4047
g49
(g58
g51
NtRp4048
(dp4049
g54
(dp4050
g62
I2
ssg63
Nsg56
(lp4051
g49
(g65
g51
NtRp4052
(dp4053
g54
(dp4054
sg63
g4048
sg56
(lp4055
g49
(g70
g51
NtRp4056
(dp4057
g54
(dp4058
sg63
g4052
sg56
(lp4059
g49
(g50
g51
NtRp4060
(dp4061
g54
(dp4062
g62
I2
ssg63
g4056
sg56
(lp4063
g49
(g58
g51
NtRp4064
(dp4065
g54
(dp4066
g62
I1
ssg63
Nsg56
(lp4067
g49
(g65
g51
NtRp4068
(dp4069
g54
(dp4070
sg63
g4064
sg56
(lp4071
g49
(g70
g51
NtRp4072
(dp4073
g54
(dp4074
sg63
g4068
sg56
(lp4075
g49
(g50
g51
NtRp4076
(dp4077
g54
(dp4078
g62
I1
ssg63
g4072
sg56
(lp4079
g3934
(S's\x08\x00\x00\x00My Sites'
tRp4080
asbasbasbag49
(g65
g51
NtRp4081
(dp4082
g54
(dp4083
sg63
g4064
sg56
(lp4084
g49
(g70
g51
NtRp4085
(dp4086
g54
(dp4087
sg63
g4081
sg56
(lp4088
g49
(g50
g51
NtRp4089
(dp4090
g54
(dp4091
g62
I1
ssg63
g4085
sg56
(lp4092
I00
asbasbasbag49
(g65
g51
NtRp4093
(dp4094
g54
(dp4095
sg63
g4064
sg56
(lp4096
g49
(g70
g51
NtRp4097
(dp4098
g54
(dp4099
sg63
g4093
sg56
(lp4100
g49
(g50
g51
NtRp4101
(dp4102
g54
(dp4103
g62
I1
ssg63
g4097
sg56
(lp4104
S'/admin/default/site'
p4105
asbasbasbasbasbasbasbag49
(g65
g51
NtRp4106
(dp4107
g54
(dp4108
sg63
g4048
sg56
(lp4109
g49
(g70
g51
NtRp4110
(dp4111
g54
(dp4112
sg63
g4106
sg56
(lp4113
g49
(g50
g51
NtRp4114
(dp4115
g54
(dp4116
g62
I2
ssg63
g4110
sg56
(lp4117
g49
(g58
g51
NtRp4118
(dp4119
g54
(dp4120
g62
I1
ssg63
Nsg56
(lp4121
g49
(g65
g51
NtRp4122
(dp4123
g54
(dp4124
sg63
g4118
sg56
(lp4125
g49
(g70
g51
NtRp4126
(dp4127
g54
(dp4128
sg63
g4122
sg56
(lp4129
g49
(g50
g51
NtRp4130
(dp4131
g54
(dp4132
g62
I1
ssg63
g4126
sg56
(lp4133
g3934
(S's\x08\x00\x00\x00This App'
tRp4134
asbasbasbag49
(g65
g51
NtRp4135
(dp4136
g54
(dp4137
sg63
g4118
sg56
(lp4138
g49
(g70
g51
NtRp4139
(dp4140
g54
(dp4141
sg63
g4135
sg56
(lp4142
g49
(g50
g51
NtRp4143
(dp4144
g54
(dp4145
g62
I1
ssg63
g4139
sg56
(lp4146
I00
asbasbasbag49
(g65
g51
NtRp4147
(dp4148
g54
(dp4149
sg63
g4118
sg56
(lp4150
g49
(g70
g51
NtRp4151
(dp4152
g54
(dp4153
sg63
g4147
sg56
(lp4154
g49
(g50
g51
NtRp4155
(dp4156
g54
(dp4157
g62
I1
ssg63
g4151
sg56
(lp4158
S'/admin/default/design/sitsit'
p4159
asbasbasbag49
(g65
g51
NtRp4160
(dp4161
g54
(dp4162
sg63
g4118
sg56
(lp4163
g49
(g70
g51
NtRp4164
(dp4165
g54
(dp4166
sg63
g4160
sg56
(lp4167
g49
(g50
g51
NtRp4168
(dp4169
g54
(dp4170
g62
I1
ssg63
g4164
sg56
(lp4171
(lp4172
(g3934
(S's\n\x00\x00\x00Controller'
tRp4173
I00
S'/admin/default/edit/sitsit/controllers/default.py'
tp4174
a(g3934
(S's\x04\x00\x00\x00View'
tRp4175
I00
S'/admin/default/edit/sitsit/views/default/sitsit.html'
tp4176
a(g3934
(S's\x06\x00\x00\x00Layout'
tRp4177
I00
S'/admin/default/edit/sitsit/views/layout.html'
tp4178
a(g3934
(S's\n\x00\x00\x00Stylesheet'
tRp4179
I00
S'/admin/default/edit/sitsit/static/css/web2py.css'
tp4180
a(g3934
(S's\x08\x00\x00\x00DB Model'
tRp4181
I00
S'/admin/default/edit/sitsit/models/db.py'
tp4182
a(g3934
(S's\n\x00\x00\x00Menu Model'
tRp4183
I00
S'/admin/default/edit/sitsit/models/menu.py'
tp4184
a(g3934
(S's\x08\x00\x00\x00Database'
tRp4185
I00
S'/sitsit/appadmin/index'
tp4186
a(g3934
(S's\x06\x00\x00\x00Errors'
tRp4187
I00
S'/admin/default/errors/sitsit'
tp4188
a(g3934
(S's\x05\x00\x00\x00About'
tRp4189
I00
S'/admin/default/about/sitsit'
tp4190
aasbasbasbasbasbasbasbag49
(g65
g51
NtRp4191
(dp4192
g54
(dp4193
sg63
g4048
sg56
(lp4194
g49
(g70
g51
NtRp4195
(dp4196
g54
(dp4197
sg63
g4191
sg56
(lp4198
g49
(g50
g51
NtRp4199
(dp4200
g54
(dp4201
g62
I2
ssg63
g4195
sg56
(lp4202
g49
(g58
g51
NtRp4203
(dp4204
g54
(dp4205
g62
I1
ssg63
Nsg56
(lp4206
g49
(g65
g51
NtRp4207
(dp4208
g54
(dp4209
sg63
g4203
sg56
(lp4210
g49
(g70
g51
NtRp4211
(dp4212
g54
(dp4213
sg63
g4207
sg56
(lp4214
g49
(g50
g51
NtRp4215
(dp4216
g54
(dp4217
g62
I1
ssg63
g4211
sg56
(lp4218
S'web2py.com'
p4219
asbasbasbag49
(g65
g51
NtRp4220
(dp4221
g54
(dp4222
sg63
g4203
sg56
(lp4223
g49
(g70
g51
NtRp4224
(dp4225
g54
(dp4226
sg63
g4220
sg56
(lp4227
g49
(g50
g51
NtRp4228
(dp4229
g54
(dp4230
g62
I1
ssg63
g4224
sg56
(lp4231
I00
asbasbasbag49
(g65
g51
NtRp4232
(dp4233
g54
(dp4234
sg63
g4203
sg56
(lp4235
g49
(g70
g51
NtRp4236
(dp4237
g54
(dp4238
sg63
g4232
sg56
(lp4239
g49
(g50
g51
NtRp4240
(dp4241
g54
(dp4242
g62
I1
ssg63
g4236
sg56
(lp4243
S'http://www.web2py.com'
p4244
asbasbasbag49
(g65
g51
NtRp4245
(dp4246
g54
(dp4247
sg63
g4203
sg56
(lp4248
g49
(g70
g51
NtRp4249
(dp4250
g54
(dp4251
sg63
g4245
sg56
(lp4252
g49
(g50
g51
NtRp4253
(dp4254
g54
(dp4255
g62
I1
ssg63
g4249
sg56
(lp4256
(lp4257
(g3934
(S's\x08\x00\x00\x00Download'
tRp4258
I00
S'http://www.web2py.com/examples/default/download'
p4259
tp4260
a(g3934
(S's\x07\x00\x00\x00Support'
tRp4261
I00
S'http://www.web2py.com/examples/default/support'
p4262
tp4263
a(g3934
(S's\x04\x00\x00\x00Demo'
tRp4264
I00
S'http://web2py.com/demo_admin'
p4265
tp4266
a(g3934
(S's\x0e\x00\x00\x00Quick Examples'
tRp4267
I00
S'http://web2py.com/examples/default/examples'
p4268
tp4269
a(g3934
(S's\x03\x00\x00\x00FAQ'
tRp4270
I00
S'http://web2py.com/AlterEgo'
p4271
tp4272
a(g3934
(S's\x06\x00\x00\x00Videos'
tRp4273
I00
S'http://www.web2py.com/examples/default/videos/'
p4274
tp4275
a(g3934
(S's\x11\x00\x00\x00Free Applications'
tRp4276
I00
S'http://web2py.com/appliances'
p4277
tp4278
a(g3934
(S's\x07\x00\x00\x00Plugins'
tRp4279
I00
S'http://web2py.com/plugins'
p4280
tp4281
a(g3934
(S's\x07\x00\x00\x00Layouts'
tRp4282
I00
S'http://web2py.com/layouts'
p4283
tp4284
a(g3934
(S's\x07\x00\x00\x00Recipes'
tRp4285
I00
S'http://web2pyslices.com/'
p4286
tp4287
a(g3934
(S's\x08\x00\x00\x00Semantic'
tRp4288
I00
S'http://web2py.com/semantic'
p4289
tp4290
aasbasbasbasbasbasbasbag49
(g65
g51
NtRp4291
(dp4292
g54
(dp4293
sg63
g4048
sg56
(lp4294
g49
(g70
g51
NtRp4295
(dp4296
g54
(dp4297
sg63
g4291
sg56
(lp4298
g49
(g50
g51
NtRp4299
(dp4300
g54
(dp4301
g62
I2
ssg63
g4295
sg56
(lp4302
g49
(g58
g51
NtRp4303
(dp4304
g54
(dp4305
g62
I1
ssg63
Nsg56
(lp4306
g49
(g65
g51
NtRp4307
(dp4308
g54
(dp4309
sg63
g4303
sg56
(lp4310
g49
(g70
g51
NtRp4311
(dp4312
g54
(dp4313
sg63
g4307
sg56
(lp4314
g49
(g50
g51
NtRp4315
(dp4316
g54
(dp4317
g62
I1
ssg63
g4311
sg56
(lp4318
g3934
(S's\r\x00\x00\x00Documentation'
tRp4319
asbasbasbag49
(g65
g51
NtRp4320
(dp4321
g54
(dp4322
sg63
g4303
sg56
(lp4323
g49
(g70
g51
NtRp4324
(dp4325
g54
(dp4326
sg63
g4320
sg56
(lp4327
g49
(g50
g51
NtRp4328
(dp4329
g54
(dp4330
g62
I1
ssg63
g4324
sg56
(lp4331
I00
asbasbasbag49
(g65
g51
NtRp4332
(dp4333
g54
(dp4334
sg63
g4303
sg56
(lp4335
g49
(g70
g51
NtRp4336
(dp4337
g54
(dp4338
sg63
g4332
sg56
(lp4339
g49
(g50
g51
NtRp4340
(dp4341
g54
(dp4342
g62
I1
ssg63
g4336
sg56
(lp4343
S'http://www.web2py.com/book'
p4344
asbasbasbag49
(g65
g51
NtRp4345
(dp4346
g54
(dp4347
sg63
g4303
sg56
(lp4348
g49
(g70
g51
NtRp4349
(dp4350
g54
(dp4351
sg63
g4345
sg56
(lp4352
g49
(g50
g51
NtRp4353
(dp4354
g54
(dp4355
g62
I1
ssg63
g4349
sg56
(lp4356
(lp4357
(g3934
(S's\x07\x00\x00\x00Preface'
tRp4358
I00
S'http://www.web2py.com/book/default/chapter/00'
p4359
tp4360
a(g3934
(S's\x0c\x00\x00\x00Introduction'
tRp4361
I00
S'http://www.web2py.com/book/default/chapter/01'
p4362
tp4363
a(g3934
(S's\x06\x00\x00\x00Python'
tRp4364
I00
S'http://www.web2py.com/book/default/chapter/02'
p4365
tp4366
a(g3934
(S's\x08\x00\x00\x00Overview'
tRp4367
I00
S'http://www.web2py.com/book/default/chapter/03'
p4368
tp4369
a(g3934
(S's\x08\x00\x00\x00The Core'
tRp4370
I00
S'http://www.web2py.com/book/default/chapter/04'
p4371
tp4372
a(g3934
(S's\t\x00\x00\x00The Views'
tRp4373
I00
S'http://www.web2py.com/book/default/chapter/05'
p4374
tp4375
a(g3934
(S's\x08\x00\x00\x00Database'
tRp4376
I00
S'http://www.web2py.com/book/default/chapter/06'
p4377
tp4378
a(g3934
(S's\x14\x00\x00\x00Forms and Validators'
tRp4379
I00
S'http://www.web2py.com/book/default/chapter/07'
p4380
tp4381
a(g3934
(S's\r\x00\x00\x00Email and SMS'
tRp4382
I00
S'http://www.web2py.com/book/default/chapter/08'
p4383
tp4384
a(g3934
(S's\x0e\x00\x00\x00Access Control'
tRp4385
I00
S'http://www.web2py.com/book/default/chapter/09'
p4386
tp4387
a(g3934
(S's\x08\x00\x00\x00Services'
tRp4388
I00
S'http://www.web2py.com/book/default/chapter/10'
p4389
tp4390
a(g3934
(S's\x0c\x00\x00\x00Ajax Recipes'
tRp4391
I00
S'http://www.web2py.com/book/default/chapter/11'
p4392
tp4393
a(g3934
(S's\x16\x00\x00\x00Components and Plugins'
tRp4394
I00
S'http://www.web2py.com/book/default/chapter/12'
p4395
tp4396
a(g3934
(S's\x12\x00\x00\x00Deployment Recipes'
tRp4397
I00
S'http://www.web2py.com/book/default/chapter/13'
p4398
tp4399
a(g3934
(S's\r\x00\x00\x00Other Recipes'
tRp4400
I00
S'http://www.web2py.com/book/default/chapter/14'
p4401
tp4402
a(g3934
(S's\r\x00\x00\x00Buy this book'
tRp4403
I00
S'http://stores.lulu.com/web2py'
p4404
tp4405
aasbasbasbasbasbasbasbag49
(g65
g51
NtRp4406
(dp4407
g54
(dp4408
sg63
g4048
sg56
(lp4409
g49
(g70
g51
NtRp4410
(dp4411
g54
(dp4412
sg63
g4406
sg56
(lp4413
g49
(g50
g51
NtRp4414
(dp4415
g54
(dp4416
g62
I2
ssg63
g4410
sg56
(lp4417
g49
(g58
g51
NtRp4418
(dp4419
g54
(dp4420
g62
I1
ssg63
Nsg56
(lp4421
g49
(g65
g51
NtRp4422
(dp4423
g54
(dp4424
sg63
g4418
sg56
(lp4425
g49
(g70
g51
NtRp4426
(dp4427
g54
(dp4428
sg63
g4422
sg56
(lp4429
g49
(g50
g51
NtRp4430
(dp4431
g54
(dp4432
g62
I1
ssg63
g4426
sg56
(lp4433
g3934
(S's\t\x00\x00\x00Community'
tRp4434
asbasbasbag49
(g65
g51
NtRp4435
(dp4436
g54
(dp4437
sg63
g4418
sg56
(lp4438
g49
(g70
g51
NtRp4439
(dp4440
g54
(dp4441
sg63
g4435
sg56
(lp4442
g49
(g50
g51
NtRp4443
(dp4444
g54
(dp4445
g62
I1
ssg63
g4439
sg56
(lp4446
I00
asbasbasbag49
(g65
g51
NtRp4447
(dp4448
g54
(dp4449
sg63
g4418
sg56
(lp4450
g49
(g70
g51
NtRp4451
(dp4452
g54
(dp4453
sg63
g4447
sg56
(lp4454
g49
(g50
g51
NtRp4455
(dp4456
g54
(dp4457
g62
I1
ssg63
g4451
sg56
(lp4458
Nasbasbasbag49
(g65
g51
NtRp4459
(dp4460
g54
(dp4461
sg63
g4418
sg56
(lp4462
g49
(g70
g51
NtRp4463
(dp4464
g54
(dp4465
sg63
g4459
sg56
(lp4466
g49
(g50
g51
NtRp4467
(dp4468
g54
(dp4469
g62
I1
ssg63
g4463
sg56
(lp4470
(lp4471
(g3934
(S's\x06\x00\x00\x00Groups'
tRp4472
I00
S'http://www.web2py.com/examples/default/usergroups'
p4473
tp4474
a(g3934
(S's\x07\x00\x00\x00Twitter'
tRp4475
I00
S'http://twitter.com/web2py'
p4476
tp4477
a(g3934
(S's\t\x00\x00\x00Live Chat'
tRp4478
I00
S'http://webchat.freenode.net/?channels=web2py'
p4479
tp4480
aasbasbasbasbasbasbasbag49
(g65
g51
NtRp4481
(dp4482
g54
(dp4483
sg63
g4048
sg56
(lp4484
g49
(g70
g51
NtRp4485
(dp4486
g54
(dp4487
sg63
g4481
sg56
(lp4488
g49
(g50
g51
NtRp4489
(dp4490
g54
(dp4491
g62
I2
ssg63
g4485
sg56
(lp4492
g49
(g58
g51
NtRp4493
(dp4494
g54
(dp4495
g62
I1
ssg63
Nsg56
(lp4496
g49
(g65
g51
NtRp4497
(dp4498
g54
(dp4499
sg63
g4493
sg56
(lp4500
g49
(g70
g51
NtRp4501
(dp4502
g54
(dp4503
sg63
g4497
sg56
(lp4504
g49
(g50
g51
NtRp4505
(dp4506
g54
(dp4507
g62
I1
ssg63
g4501
sg56
(lp4508
g3934
(S's\x07\x00\x00\x00Plugins'
tRp4509
asbasbasbag49
(g65
g51
NtRp4510
(dp4511
g54
(dp4512
sg63
g4493
sg56
(lp4513
g49
(g70
g51
NtRp4514
(dp4515
g54
(dp4516
sg63
g4510
sg56
(lp4517
g49
(g50
g51
NtRp4518
(dp4519
g54
(dp4520
g62
I1
ssg63
g4514
sg56
(lp4521
I00
asbasbasbag49
(g65
g51
NtRp4522
(dp4523
g54
(dp4524
sg63
g4493
sg56
(lp4525
g49
(g70
g51
NtRp4526
(dp4527
g54
(dp4528
sg63
g4522
sg56
(lp4529
g49
(g50
g51
NtRp4530
(dp4531
g54
(dp4532
g62
I1
ssg63
g4526
sg56
(lp4533
Nasbasbasbag49
(g65
g51
NtRp4534
(dp4535
g54
(dp4536
sg63
g4493
sg56
(lp4537
g49
(g70
g51
NtRp4538
(dp4539
g54
(dp4540
sg63
g4534
sg56
(lp4541
g49
(g50
g51
NtRp4542
(dp4543
g54
(dp4544
g62
I1
ssg63
g4538
sg56
(lp4545
(lp4546
(S'plugin_wiki'
p4547
I00
S'http://web2py.com/examples/default/download'
p4548
tp4549
a(g3934
(S's\r\x00\x00\x00Other Plugins'
tRp4550
I00
g4280
tp4551
a(g3934
(S's\x0e\x00\x00\x00Layout Plugins'
tRp4552
I00
g4283
tp4553
aasbasbasbasbasbasbasbasbasbasbasbasbasbasbasbasbasbasbasbag49
(g65
g51
NtRp4554
(dp4555
g54
(dp4556
sg63
g3398
sg56
(lp4557
g49
(g70
g51
NtRp4558
(dp4559
g54
(dp4560
g74
g75
ssg63
g4554
sg56
(lp4561
S'meta'
p4562
asbag49
(g70
g51
NtRp4563
(dp4564
g54
(dp4565
g81
g82
ssg63
g4554
sg56
(lp4566
S':'
asbag49
(g70
g51
NtRp4567
(dp4568
g54
(dp4569
sg63
g4554
sg56
(lp4570
g49
(g50
g51
NtRp4571
(dp4572
g54
(dp4573
g62
I5
ssg63
g4567
sg56
(lp4574
g49
(g58
g51
NtRp4575
(dp4576
g54
(dp4577
g62
I4
ssg63
Nsg56
(lp4578
g49
(g65
g51
NtRp4579
(dp4580
g54
(dp4581
sg63
g4575
sg56
(lp4582
g49
(g70
g51
NtRp4583
(dp4584
g54
(dp4585
g74
g75
ssg63
g4579
sg56
(lp4586
S'author'
p4587
asbag49
(g70
g51
NtRp4588
(dp4589
g54
(dp4590
g81
g82
ssg63
g4579
sg56
(lp4591
S':'
asbag49
(g70
g51
NtRp4592
(dp4593
g54
(dp4594
sg63
g4579
sg56
(lp4595
g49
(g50
g51
NtRp4596
(dp4597
g54
(dp4598
g62
I4
ssg63
g4592
sg56
(lp4599
S'Your Name <you@example.com>'
p4600
asbasbasbag49
(g65
g51
NtRp4601
(dp4602
g54
(dp4603
sg63
g4575
sg56
(lp4604
g49
(g70
g51
NtRp4605
(dp4606
g54
(dp4607
g74
g75
ssg63
g4601
sg56
(lp4608
S'copyright'
p4609
asbag49
(g70
g51
NtRp4610
(dp4611
g54
(dp4612
g81
g82
ssg63
g4601
sg56
(lp4613
S':'
asbag49
(g70
g51
NtRp4614
(dp4615
g54
(dp4616
sg63
g4601
sg56
(lp4617
g49
(g50
g51
NtRp4618
(dp4619
g54
(dp4620
g62
I4
ssg63
g4614
sg56
(lp4621
S'Copyright 2011'
p4622
asbasbasbag49
(g65
g51
NtRp4623
(dp4624
g54
(dp4625
sg63
g4575
sg56
(lp4626
g49
(g70
g51
NtRp4627
(dp4628
g54
(dp4629
g74
g75
ssg63
g4623
sg56
(lp4630
S'description'
p4631
asbag49
(g70
g51
NtRp4632
(dp4633
g54
(dp4634
g81
g82
ssg63
g4623
sg56
(lp4635
S':'
asbag49
(g70
g51
NtRp4636
(dp4637
g54
(dp4638
sg63
g4623
sg56
(lp4639
g49
(g50
g51
NtRp4640
(dp4641
g54
(dp4642
g62
I4
ssg63
g4636
sg56
(lp4643
S'a cool new app'
p4644
asbasbasbag49
(g65
g51
NtRp4645
(dp4646
g54
(dp4647
sg63
g4575
sg56
(lp4648
g49
(g70
g51
NtRp4649
(dp4650
g54
(dp4651
g74
g75
ssg63
g4645
sg56
(lp4652
S'generator'
p4653
asbag49
(g70
g51
NtRp4654
(dp4655
g54
(dp4656
g81
g82
ssg63
g4645
sg56
(lp4657
S':'
asbag49
(g70
g51
NtRp4658
(dp4659
g54
(dp4660
sg63
g4645
sg56
(lp4661
g49
(g50
g51
NtRp4662
(dp4663
g54
(dp4664
g62
I4
ssg63
g4658
sg56
(lp4665
S'Web2py Web Framework'
p4666
asbasbasbag49
(g65
g51
NtRp4667
(dp4668
g54
(dp4669
sg63
g4575
sg56
(lp4670
g49
(g70
g51
NtRp4671
(dp4672
g54
(dp4673
g74
g75
ssg63
g4667
sg56
(lp4674
S'keywords'
p4675
asbag49
(g70
g51
NtRp4676
(dp4677
g54
(dp4678
g81
g82
ssg63
g4667
sg56
(lp4679
S':'
asbag49
(g70
g51
NtRp4680
(dp4681
g54
(dp4682
sg63
g4667
sg56
(lp4683
g49
(g50
g51
NtRp4684
(dp4685
g54
(dp4686
g62
I4
ssg63
g4680
sg56
(lp4687
S'web2py, python, framework'
p4688
asbasbasbasbasbasbasbag49
(g65
g51
NtRp4689
(dp4690
g54
(dp4691
sg63
g3398
sg56
(lp4692
g49
(g70
g51
NtRp4693
(dp4694
g54
(dp4695
g74
g75
ssg63
g4689
sg56
(lp4696
S'postprocessing'
p4697
asbag49
(g70
g51
NtRp4698
(dp4699
g54
(dp4700
g81
g82
ssg63
g4689
sg56
(lp4701
S':'
asbag49
(g70
g51
NtRp4702
(dp4703
g54
(dp4704
sg63
g4689
sg56
(lp4705
g49
(g50
g51
NtRp4706
(dp4707
g54
(dp4708
g62
I5
ssg63
g4702
sg56
(lp4709
g49
(g58
g51
NtRp4710
(dp4711
g54
(dp4712
g62
I4
ssg63
Nsg56
(lp4713
sbasbasbasbag49
(g65
g51
NtRp4714
(dp4715
g54
(dp4716
sg63
g3398
sg56
(lp4717
g49
(g70
g51
NtRp4718
(dp4719
g54
(dp4720
g74
g75
ssg63
g4714
sg56
(lp4721
S'session_file'
p4722
asbag49
(g70
g51
NtRp4723
(dp4724
g54
(dp4725
g81
g82
ssg63
g4714
sg56
(lp4726
S':'
asbag49
(g70
g51
NtRp4727
(dp4728
g54
(dp4729
sg63
g4714
sg56
(lp4730
g49
(g50
g51
NtRp4731
(dp4732
g54
(dp4733
g62
I5
ssg63
g4727
sg56
(lp4734
S"<open file 'C:\\Users\\Osku\\koodaus\\web2py\\applications\\sitsit\\sessions\\127.0.0.1-ec2284ba-32fe-4a19-9a6f-e97c370381b5', mode 'rb+' at 0x04DFB188>"
p4735
asbasbasbag49
(g65
g51
NtRp4736
(dp4737
g54
(dp4738
sg63
g3398
sg56
(lp4739
g49
(g70
g51
NtRp4740
(dp4741
g54
(dp4742
g74
g75
ssg63
g4736
sg56
(lp4743
S'session_filename'
p4744
asbag49
(g70
g51
NtRp4745
(dp4746
g54
(dp4747
g81
g82
ssg63
g4736
sg56
(lp4748
S':'
asbag49
(g70
g51
NtRp4749
(dp4750
g54
(dp4751
sg63
g4736
sg56
(lp4752
g49
(g50
g51
NtRp4753
(dp4754
g54
(dp4755
g62
I5
ssg63
g4749
sg56
(lp4756
S'C:\\Users\\Osku\\koodaus\\web2py\\applications\\sitsit\\sessions\\127.0.0.1-ec2284ba-32fe-4a19-9a6f-e97c370381b5'
p4757
asbasbasbag49
(g65
g51
NtRp4758
(dp4759
g54
(dp4760
sg63
g3398
sg56
(lp4761
g49
(g70
g51
NtRp4762
(dp4763
g54
(dp4764
g74
g75
ssg63
g4758
sg56
(lp4765
S'session_id'
p4766
asbag49
(g70
g51
NtRp4767
(dp4768
g54
(dp4769
g81
g82
ssg63
g4758
sg56
(lp4770
S':'
asbag49
(g70
g51
NtRp4771
(dp4772
g54
(dp4773
sg63
g4758
sg56
(lp4774
g49
(g50
g51
NtRp4775
(dp4776
g54
(dp4777
g62
I5
ssg63
g4771
sg56
(lp4778
S'127.0.0.1-ec2284ba-32fe-4a19-9a6f-e97c370381b5'
p4779
asbasbasbag49
(g65
g51
NtRp4780
(dp4781
g54
(dp4782
sg63
g3398
sg56
(lp4783
g49
(g70
g51
NtRp4784
(dp4785
g54
(dp4786
g74
g75
ssg63
g4780
sg56
(lp4787
S'session_id_name'
p4788
asbag49
(g70
g51
NtRp4789
(dp4790
g54
(dp4791
g81
g82
ssg63
g4780
sg56
(lp4792
S':'
asbag49
(g70
g51
NtRp4793
(dp4794
g54
(dp4795
sg63
g4780
sg56
(lp4796
g49
(g50
g51
NtRp4797
(dp4798
g54
(dp4799
g62
I5
ssg63
g4793
sg56
(lp4800
g3455
asbasbasbag49
(g65
g51
NtRp4801
(dp4802
g54
(dp4803
sg63
g3398
sg56
(lp4804
g49
(g70
g51
NtRp4805
(dp4806
g54
(dp4807
g74
g75
ssg63
g4801
sg56
(lp4808
S'session_locked'
p4809
asbag49
(g70
g51
NtRp4810
(dp4811
g54
(dp4812
g81
g82
ssg63
g4801
sg56
(lp4813
S':'
asbag49
(g70
g51
NtRp4814
(dp4815
g54
(dp4816
sg63
g4801
sg56
(lp4817
g49
(g50
g51
NtRp4818
(dp4819
g54
(dp4820
g62
I5
ssg63
g4814
sg56
(lp4821
g1631
asbasbasbag49
(g65
g51
NtRp4822
(dp4823
g54
(dp4824
sg63
g3398
sg56
(lp4825
g49
(g70
g51
NtRp4826
(dp4827
g54
(dp4828
g74
g75
ssg63
g4822
sg56
(lp4829
S'session_new'
p4830
asbag49
(g70
g51
NtRp4831
(dp4832
g54
(dp4833
g81
g82
ssg63
g4822
sg56
(lp4834
S':'
asbag49
(g70
g51
NtRp4835
(dp4836
g54
(dp4837
sg63
g4822
sg56
(lp4838
g49
(g50
g51
NtRp4839
(dp4840
g54
(dp4841
g62
I5
ssg63
g4835
sg56
(lp4842
g92
asbasbasbag49
(g65
g51
NtRp4843
(dp4844
g54
(dp4845
sg63
g3398
sg56
(lp4846
g49
(g70
g51
NtRp4847
(dp4848
g54
(dp4849
g74
g75
ssg63
g4843
sg56
(lp4850
S'status'
p4851
asbag49
(g70
g51
NtRp4852
(dp4853
g54
(dp4854
g81
g82
ssg63
g4843
sg56
(lp4855
S':'
asbag49
(g70
g51
NtRp4856
(dp4857
g54
(dp4858
sg63
g4843
sg56
(lp4859
g49
(g50
g51
NtRp4860
(dp4861
g54
(dp4862
g62
I5
ssg63
g4856
sg56
(lp4863
S'200'
p4864
asbasbasbag49
(g65
g51
NtRp4865
(dp4866
g54
(dp4867
sg63
g3398
sg56
(lp4868
g49
(g70
g51
NtRp4869
(dp4870
g54
(dp4871
g74
g75
ssg63
g4865
sg56
(lp4872
S'subtitle'
p4873
asbag49
(g70
g51
NtRp4874
(dp4875
g54
(dp4876
g81
g82
ssg63
g4865
sg56
(lp4877
S':'
asbag49
(g70
g51
NtRp4878
(dp4879
g54
(dp4880
sg63
g4865
sg56
(lp4881
g49
(g50
g51
NtRp4882
(dp4883
g54
(dp4884
g62
I5
ssg63
g4878
sg56
(lp4885
g3934
(S's\r\x00\x00\x00customize me!'
tRp4886
asbasbasbag49
(g65
g51
NtRp4887
(dp4888
g54
(dp4889
sg63
g3398
sg56
(lp4890
g49
(g70
g51
NtRp4891
(dp4892
g54
(dp4893
g74
g75
ssg63
g4887
sg56
(lp4894
S'title'
p4895
asbag49
(g70
g51
NtRp4896
(dp4897
g54
(dp4898
g81
g82
ssg63
g4887
sg56
(lp4899
S':'
asbag49
(g70
g51
NtRp4900
(dp4901
g54
(dp4902
sg63
g4887
sg56
(lp4903
g49
(g50
g51
NtRp4904
(dp4905
g54
(dp4906
g62
I5
ssg63
g4900
sg56
(lp4907
S'Sitsit'
p4908
asbasbasbag49
(g65
g51
NtRp4909
(dp4910
g54
(dp4911
sg63
g3398
sg56
(lp4912
g49
(g70
g51
NtRp4913
(dp4914
g54
(dp4915
g74
g75
ssg63
g4909
sg56
(lp4916
g2295
asbag49
(g70
g51
NtRp4917
(dp4918
g54
(dp4919
g81
g82
ssg63
g4909
sg56
(lp4920
S':'
asbag49
(g70
g51
NtRp4921
(dp4922
g54
(dp4923
sg63
g4909
sg56
(lp4924
g49
(g50
g51
NtRp4925
(dp4926
g54
(dp4927
g62
I5
ssg63
g4921
sg56
(lp4928
g2308
asbasbasbag49
(g65
g51
NtRp4929
(dp4930
g54
(dp4931
sg63
g3398
sg56
(lp4932
g49
(g70
g51
NtRp4933
(dp4934
g54
(dp4935
g74
g75
ssg63
g4929
sg56
(lp4936
S'view'
p4937
asbag49
(g70
g51
NtRp4938
(dp4939
g54
(dp4940
g81
g82
ssg63
g4929
sg56
(lp4941
S':'
asbag49
(g70
g51
NtRp4942
(dp4943
g54
(dp4944
sg63
g4929
sg56
(lp4945
g49
(g50
g51
NtRp4946
(dp4947
g54
(dp4948
g62
I5
ssg63
g4942
sg56
(lp4949
S'default/sitsit.html'
p4950
asbasbasbasbasbsS'locals'
p4951
(dp4952
S'Service'
p4953
S"<class 'gluon.tools.Service'>"
p4954
sS'OBJECT'
p4955
S"<class 'gluon.html.OBJECT'>"
p4956
sS'SQLDB'
p4957
S"<class 'gluon.dal.DAL'>"
p4958
sg3002
S"<Storage {'_formkey[register]': '95fc3152-3686-4...login]': '2c67d08f-6731-4638-9bbb-370d487a4b14'}>"
p4959
sS'LINK'
p4960
S"<class 'gluon.html.LINK'>"
p4961
sS'BR'
p4962
S"<class 'gluon.html.BR'>"
p4963
sS'local_import'
p4964
S'<function <lambda> at 0x04DF4A30>'
p4965
sS'OPTGROUP'
p4966
S"<class 'gluon.html.OPTGROUP'>"
p4967
sS'PRE'
p4968
S"<class 'gluon.html.PRE'>"
p4969
sS'IS_INT_IN_RANGE'
p4970
S"<class 'gluon.validators.IS_INT_IN_RANGE'>"
p4971
sS'IS_LOWER'
p4972
S"<class 'gluon.validators.IS_LOWER'>"
p4973
sS'IS_STRONG'
p4974
S"<class 'gluon.validators.IS_STRONG'>"
p4975
sS'cache'
p4976
S'<gluon.cache.Cache object at 0x04FE92D0>'
p4977
sS'IS_IN_DB'
p4978
S"<class 'gluon.validators.IS_IN_DB'>"
p4979
sS'TAG'
p4980
S'<gluon.html.__TAG__ object at 0x0188FE70>'
p4981
sS'SQLField'
p4982
S"<class 'gluon.dal.Field'>"
p4983
sS'mail'
p4984
S'<gluon.tools.Mail object at 0x04FE94B0>'
p4985
sS'BODY'
p4986
S"<class 'gluon.html.BODY'>"
p4987
sS'IS_DATE_IN_RANGE'
p4988
S"<class 'gluon.validators.IS_DATE_IN_RANGE'>"
p4989
sS'TH'
p4990
S"<class 'gluon.html.TH'>"
p4991
sS'URL'
p4992
S'<function URL at 0x018EB270>'
p4993
sS'__file__'
p4994
S"r'C:\\Users\\Osku\\koodaus\\web2py\\applications\\sitsit\\views\\default/sitsit.html'"
p4995
sS'db'
p4996
S"<DAL {'auth_event': <Table {'origin': <gluon.dal... 'id': <gluon.dal.Field object at 0x0227F1D0>}>}>"
p4997
sS'auth'
p4998
S'<gluon.tools.Auth object at 0x04FE9490>'
p4999
sS'P'
S"<class 'gluon.html.P'>"
p5000
sS'TFOOT'
p5001
S"<class 'gluon.html.TFOOT'>"
p5002
sS'XHTML'
p5003
S"<class 'gluon.html.XHTML'>"
p5004
sS'datetime'
p5005
S"<module 'datetime' (built-in)>"
p5006
sS'ON'
p5007
g1631
sS'OL'
p5008
S"<class 'gluon.html.OL'>"
p5009
sS'TEXTAREA'
p5010
S"<class 'gluon.html.TEXTAREA'>"
p5011
sS'MENU'
p5012
S"<class 'gluon.html.MENU'>"
p5013
sS'LOAD'
p5014
S'<function LOAD at 0x01B20D70>'
p5015
sS'CODE'
p5016
S"<class 'gluon.html.CODE'>"
p5017
sS'HTTP'
p5018
S"<class 'gluon.http.HTTP'>"
p5019
sS'HR'
p5020
S"<class 'gluon.html.HR'>"
p5021
sS'IS_DATETIME'
p5022
S"<class 'gluon.validators.IS_DATETIME'>"
p5023
sS'HEAD'
p5024
S"<class 'gluon.html.HEAD'>"
p5025
sS'LABEL'
p5026
S"<class 'gluon.html.LABEL'>"
p5027
sS'CLEANUP'
p5028
S"<class 'gluon.validators.CLEANUP'>"
p5029
sS'plugins'
p5030
S'<gluon.tools.PluginManager object at 0x04FE9690>'
p5031
sS'SELECT'
p5032
S"<class 'gluon.html.SELECT'>"
p5033
sS'use_janrain'
p5034
S'<function use_janrain at 0x0243CB30>'
p5035
sS'CENTER'
p5036
S"<class 'gluon.html.CENTER'>"
p5037
sS'prettydate'
p5038
S'<function prettydate at 0x0243C130>'
p5039
sS'Crud'
p5040
S"<class 'gluon.tools.Crud'>"
p5041
sS'Auth'
p5042
S"<class 'gluon.tools.Auth'>"
p5043
sS'__builtins__'
p5044
S"{'ArithmeticError': <type 'exceptions.ArithmeticError'>, 'AssertionError': <type 'exceptions.AssertionError'>, 'AttributeError': <type 'exceptions.AttributeError'>, 'BaseException': <type 'exceptions.BaseException'>, 'DeprecationWarning': <type 'exceptions.DeprecationWarning'>, 'EOFError': <type 'exceptions.EOFError'>, 'Ellipsis': Ellipsis, 'EnvironmentError': <type 'exceptions.EnvironmentError'>, 'Exception': <type 'exceptions.Exception'>, 'False': False, ...}"
p5045
sS'HTML'
p5046
S"<class 'gluon.html.HTML'>"
p5047
sS'SQLFORM'
p5048
S"<class 'gluon.sqlhtml.SQLFORM'>"
p5049
sS'EM'
p5050
S"<class 'gluon.html.EM'>"
p5051
sS'redirect'
p5052
S'<function redirect at 0x01749C70>'
p5053
sS'FIELDSET'
p5054
S"<class 'gluon.html.FIELDSET'>"
p5055
sS'IS_EQUAL_TO'
p5056
S"<class 'gluon.validators.IS_EQUAL_TO'>"
p5057
sS'embed64'
p5058
S'<function embed64 at 0x018EBD70>'
p5059
sS'IS_LIST_OF'
p5060
S"<class 'gluon.validators.IS_LIST_OF'>"
p5061
sS'__name__'
p5062
S"'__restricted__'"
p5063
sS'EMBED'
p5064
S"<class 'gluon.html.EMBED'>"
p5065
sS'_'
S'<function _ at 0x04EC7770>'
p5066
sS'FORM'
p5067
S"<class 'gluon.html.FORM'>"
p5068
sS'H2'
p5069
S"<class 'gluon.html.H2'>"
p5070
sS'H3'
p5071
S"<class 'gluon.html.H3'>"
p5072
sS'BUTTON'
p5073
S"<class 'gluon.html.BUTTON'>"
p5074
sS'H1'
p5075
S"<class 'gluon.html.H1'>"
p5076
sS'H6'
p5077
S"<class 'gluon.html.H6'>"
p5078
sS'H4'
p5079
S"<class 'gluon.html.H4'>"
p5080
sS'H5'
p5081
S"<class 'gluon.html.H5'>"
p5082
sS'UL'
p5083
S"<class 'gluon.html.UL'>"
p5084
sS'IS_UPPER'
p5085
S"<class 'gluon.validators.IS_UPPER'>"
p5086
sS'xmlescape'
p5087
S'<function xmlescape at 0x018EB1F0>'
p5088
sS'IS_TIME'
p5089
S"<class 'gluon.validators.IS_TIME'>"
p5090
sS'OPTION'
p5091
S"<class 'gluon.html.OPTION'>"
p5092
sS'TITLE'
p5093
S"<class 'gluon.html.TITLE'>"
p5094
sS'CRYPT'
p5095
S"<class 'gluon.validators.CRYPT'>"
p5096
sS'IS_EMPTY_OR'
p5097
S"<class 'gluon.validators.IS_EMPTY_OR'>"
p5098
sS'MARKMIN'
p5099
S"<class 'gluon.html.MARKMIN'>"
p5100
sS'INPUT'
p5101
S"<class 'gluon.html.INPUT'>"
p5102
sS'COL'
p5103
S"<class 'gluon.html.COL'>"
p5104
sS'service'
p5105
S'<gluon.tools.Service object at 0x04FE9130>'
p5106
sS'SCRIPT'
p5107
S"<class 'gluon.html.SCRIPT'>"
p5108
sS'TABLE'
p5109
S"<class 'gluon.html.TABLE'>"
p5110
sS'IS_IPV4'
p5111
S"<class 'gluon.validators.IS_IPV4'>"
p5112
sS'IS_LENGTH'
p5113
S"<class 'gluon.validators.IS_LENGTH'>"
p5114
sS'XML'
p5115
S"<class 'gluon.html.XML'>"
p5116
sS'B'
S"<class 'gluon.html.B'>"
p5117
sS'IMG'
p5118
S"<class 'gluon.html.IMG'>"
p5119
sS'SQLTABLE'
p5120
S"<class 'gluon.sqlhtml.SQLTABLE'>"
p5121
sS'IS_MATCH'
p5122
S"<class 'gluon.validators.IS_MATCH'>"
p5123
sS'IS_ALPHANUMERIC'
p5124
S"<class 'gluon.validators.IS_ALPHANUMERIC'>"
p5125
sS'SPAN'
p5126
S"<class 'gluon.html.SPAN'>"
p5127
sS'IS_SLUG'
p5128
S"<class 'gluon.validators.IS_SLUG'>"
p5129
sS'BEAUTIFY'
p5130
S"<class 'gluon.html.BEAUTIFY'>"
p5131
sS'META'
p5132
S"<class 'gluon.html.META'>"
p5133
sS'IS_DATE'
p5134
S"<class 'gluon.validators.IS_DATE'>"
p5135
sS'IS_EMAIL'
p5136
S"<class 'gluon.validators.IS_EMAIL'>"
p5137
sS'IS_NOT_EMPTY'
p5138
S"<class 'gluon.validators.IS_NOT_EMPTY'>"
p5139
sS'IS_FLOAT_IN_RANGE'
p5140
S"<class 'gluon.validators.IS_FLOAT_IN_RANGE'>"
p5141
sS'TBODY'
p5142
S"<class 'gluon.html.TBODY'>"
p5143
sS'CAT'
p5144
S"<class 'gluon.html.CAT'>"
p5145
sS'Field'
p5146
S"<class 'gluon.dal.Field'>"
p5147
sS'DIV'
p5148
S"<class 'gluon.html.DIV'>"
p5149
sS'LEGEND'
p5150
S"<class 'gluon.html.LEGEND'>"
p5151
sS'COLGROUP'
p5152
S"<class 'gluon.html.COLGROUP'>"
p5153
sS'DAL'
p5154
S"<class 'gluon.dal.DAL'>"
p5155
sS'TT'
p5156
S"<class 'gluon.html.TT'>"
p5157
sS'TR'
p5158
S"<class 'gluon.html.TR'>"
p5159
sS'LI'
p5160
S"<class 'gluon.html.LI'>"
p5161
sS'IFRAME'
p5162
S"<class 'gluon.html.IFRAME'>"
p5163
sS'TD'
p5164
S"<class 'gluon.html.TD'>"
p5165
sS'PluginManager'
p5166
S"<class 'gluon.tools.PluginManager'>"
p5167
sS'IS_URL'
p5168
S"<class 'gluon.validators.IS_URL'>"
p5169
sS'A'
S"<class 'gluon.html.A'>"
p5170
sS'STYLE'
p5171
S"<class 'gluon.html.STYLE'>"
p5172
sS'IS_DATETIME_IN_RANGE'
p5173
S"<class 'gluon.validators.IS_DATETIME_IN_RANGE'>"
p5174
sS'IS_IMAGE'
p5175
S"<class 'gluon.validators.IS_IMAGE'>"
p5176
sS'I'
S"<class 'gluon.html.I'>"
p5177
sS'crud'
p5178
S'<gluon.tools.Crud object at 0x04FE9410>'
p5179
sS'IS_NOT_IN_DB'
p5180
S"<class 'gluon.validators.IS_NOT_IN_DB'>"
p5181
sg3393
S"<Storage {'body': <cStringIO.StringO object at 0...> at 0x04DF48F0>, 'view': 'default/sitsit.html'}>"
p5182
sS'THEAD'
p5183
S"<class 'gluon.html.THEAD'>"
p5184
sS'IS_NULL_OR'
p5185
S"<class 'gluon.validators.IS_EMPTY_OR'>"
p5186
sg48
S"<Storage {'body': <cStringIO.StringO object at 0..._vars': <Storage {}>, 'post_vars': <Storage {}>}>"
p5187
sS'IS_EXPR'
p5188
S"<class 'gluon.validators.IS_EXPR'>"
p5189
sS'T'
S'<gluon.languages.translator object at 0x04FE9AF0>'
p5190
sS'IS_IN_SET'
p5191
S"<class 'gluon.validators.IS_IN_SET'>"
p5192
sS'IS_UPLOAD_FILENAME'
p5193
S"<class 'gluon.validators.IS_UPLOAD_FILENAME'>"
p5194
sS'IS_DECIMAL_IN_RANGE'
p5195
S"<class 'gluon.validators.IS_DECIMAL_IN_RANGE'>"
p5196
sssS'traceback'
p5197
S'Traceback (most recent call last):\n  File "gluon/restricted.py", line 205, in restricted\n  File "C:\\Users\\Osku\\koodaus\\web2py\\applications\\sitsit\\views\\default/sitsit.html", line 2, in <module>\nNameError: name \'found\' is not defined\n'
p5198
s.