(dp1
S'output'
p2
S"<type 'exceptions.AttributeError'> 'NoneType' object has no attribute 'as_dict'"
p3
sS'layer'
p4
S'C:\\Users\\Osku\\koodaus\\web2py\\applications\\sitsit\\controllers/default.py'
p5
sS'code'
p6
S'# -*- coding: utf-8 -*-\n# this file is released under public domain and you can use without limitations\n\n#########################################################################\n## This is a samples controller\n## - index is the default action of any application\n## - user is required for authentication and authorization\n## - download is for downloading files uploaded in the db (does streaming)\n## - call exposes all registered services (none by default)\n#########################################################################\n\ndef index():\n    """\n    example action using the internationalization operator T and flash\n    rendered by views/default/index.html or views/generic.html\n    """\n    response.flash = "Welcome to web2py!"\n    return dict(message=T(\'Hello World\'))\n\t\n\t\ndef sitsit(): \n\tif len(request.args) == 0:\n\t\treturn dict()\n\tif len(request.args):\n\t\tsitsiID = request.args[0]\n\t\tsitsit = db.party[sitsiID]\n\t\treturn dict(sitsit.as_dict())\n\ndef user():\n    """\n    exposes:\n    http://..../[app]/default/user/login\n    http://..../[app]/default/user/logout\n    http://..../[app]/default/user/register\n    http://..../[app]/default/user/profile\n    http://..../[app]/default/user/retrieve_password\n    http://..../[app]/default/user/change_password\n    use @auth.requires_login()\n        @auth.requires_membership(\'group name\')\n        @auth.requires_permission(\'read\',\'table name\',record_id)\n    to decorate functions that need access control\n    """\n    return dict(form=auth())\n\n\ndef download():\n    """\n    allows downloading of uploaded files\n    http://..../[app]/default/download/[filename]\n    """\n    return response.download(request,db)\n\n\ndef call():\n    """\n    exposes services. for example:\n    http://..../[app]/default/call/jsonrpc\n    decorate with @services.jsonrpc the functions to expose\n    supports xml, json, xmlrpc, jsonrpc, amfrpc, rss, csv\n    """\n    return service()\n\n\n@auth.requires_signature()\ndef data():\n    """\n    http://..../[app]/default/data/tables\n    http://..../[app]/default/data/create/[table]\n    http://..../[app]/default/data/read/[table]/[id]\n    http://..../[app]/default/data/update/[table]/[id]\n    http://..../[app]/default/data/delete/[table]/[id]\n    http://..../[app]/default/data/select/[table]\n    http://..../[app]/default/data/search/[table]\n    but URLs must be signed, i.e. linked with\n      A(\'table\',_href=URL(\'data/tables\',user_signature=True))\n    or with the signed load operator\n      LOAD(\'default\',\'data.load\',args=\'tables\',ajax=True,user_signature=True)\n    """\n    return dict(form=crud())\n\n\nresponse._vars=response._caller(sitsit)\n'
p7
sS'snapshot'
p8
(dp9
S'exception'
p10
(dp11
S'__hash__'
p12
S"<method-wrapper '__hash__' of exceptions.AttributeError object at 0x0560C990>"
p13
sS'__setattr__'
p14
S"<method-wrapper '__setattr__' of exceptions.AttributeError object at 0x0560C990>"
p15
sS'__reduce_ex__'
p16
S'<built-in method __reduce_ex__ of exceptions.AttributeError object at 0x0560C990>'
p17
sS'__getslice__'
p18
S"<method-wrapper '__getslice__' of exceptions.AttributeError object at 0x0560C990>"
p19
sS'__getitem__'
p20
S"<method-wrapper '__getitem__' of exceptions.AttributeError object at 0x0560C990>"
p21
sS'__setstate__'
p22
S'<built-in method __setstate__ of exceptions.AttributeError object at 0x0560C990>'
p23
sS'__reduce__'
p24
S'<built-in method __reduce__ of exceptions.AttributeError object at 0x0560C990>'
p25
sS'__str__'
p26
S"<method-wrapper '__str__' of exceptions.AttributeError object at 0x0560C990>"
p27
sS'args'
p28
S'("\'NoneType\' object has no attribute \'as_dict\'",)'
p29
sS'__getattribute__'
p30
S"<method-wrapper '__getattribute__' of exceptions.AttributeError object at 0x0560C990>"
p31
sS'__class__'
p32
S"<type 'exceptions.AttributeError'>"
p33
sS'__delattr__'
p34
S"<method-wrapper '__delattr__' of exceptions.AttributeError object at 0x0560C990>"
p35
sS'__repr__'
p36
S"<method-wrapper '__repr__' of exceptions.AttributeError object at 0x0560C990>"
p37
sS'__dict__'
p38
S'{}'
p39
sS'__doc__'
p40
S"'Attribute not found.'"
p41
sS'__init__'
p42
S"<method-wrapper '__init__' of exceptions.AttributeError object at 0x0560C990>"
p43
sS'__new__'
p44
S'<built-in method __new__ of type object at 0x1E1CDA68>'
p45
ssS'evalue'
p46
S"'NoneType' object has no attribute 'as_dict'"
p47
sS'request'
p48
ccopy_reg
_reconstructor
p49
(cgluon.html
BEAUTIFY
p50
c__builtin__
object
p51
NtRp52
(dp53
S'attributes'
p54
(dp55
sS'components'
p56
(lp57
g49
(cgluon.html
TABLE
p58
g51
NtRp59
(dp60
g54
(dp61
S'level'
p62
I5
ssS'parent'
p63
Nsg56
(lp64
g49
(cgluon.html
TR
p65
g51
NtRp66
(dp67
g54
(dp68
sg63
g59
sg56
(lp69
g49
(cgluon.html
TD
p70
g51
NtRp71
(dp72
g54
(dp73
S'_style'
p74
S'font-weight:bold;vertical-align:top'
p75
ssg63
g66
sg56
(lp76
S'ajax'
p77
asbag49
(g70
g51
NtRp78
(dp79
g54
(dp80
S'_valign'
p81
S'top'
p82
ssg63
g66
sg56
(lp83
S':'
asbag49
(g70
g51
NtRp84
(dp85
g54
(dp86
sg63
g66
sg56
(lp87
g49
(g50
g51
NtRp88
(dp89
g54
(dp90
g62
I5
ssg63
g84
sg56
(lp91
S'False'
p92
asbasbasbag49
(g65
g51
NtRp93
(dp94
g54
(dp95
sg63
g59
sg56
(lp96
g49
(g70
g51
NtRp97
(dp98
g54
(dp99
g74
g75
ssg63
g93
sg56
(lp100
S'application'
p101
asbag49
(g70
g51
NtRp102
(dp103
g54
(dp104
g81
g82
ssg63
g93
sg56
(lp105
S':'
asbag49
(g70
g51
NtRp106
(dp107
g54
(dp108
sg63
g93
sg56
(lp109
g49
(g50
g51
NtRp110
(dp111
g54
(dp112
g62
I5
ssg63
g106
sg56
(lp113
S'sitsit'
p114
asbasbasbag49
(g65
g51
NtRp115
(dp116
g54
(dp117
sg63
g59
sg56
(lp118
g49
(g70
g51
NtRp119
(dp120
g54
(dp121
g74
g75
ssg63
g115
sg56
(lp122
g28
asbag49
(g70
g51
NtRp123
(dp124
g54
(dp125
g81
g82
ssg63
g115
sg56
(lp126
S':'
asbag49
(g70
g51
NtRp127
(dp128
g54
(dp129
sg63
g115
sg56
(lp130
g49
(g50
g51
NtRp131
(dp132
g54
(dp133
g62
I5
ssg63
g127
sg56
(lp134
g49
(g58
g51
NtRp135
(dp136
g54
(dp137
g62
I4
ssg63
Nsg56
(lp138
g49
(g65
g51
NtRp139
(dp140
g54
(dp141
sg63
g135
sg56
(lp142
g49
(g70
g51
NtRp143
(dp144
g54
(dp145
sg63
g139
sg56
(lp146
g49
(g50
g51
NtRp147
(dp148
g54
(dp149
g62
I4
ssg63
g143
sg56
(lp150
S'5'
asbasbasbasbasbasbasbag49
(g65
g51
NtRp151
(dp152
g54
(dp153
sg63
g59
sg56
(lp154
g49
(g70
g51
NtRp155
(dp156
g54
(dp157
g74
g75
ssg63
g151
sg56
(lp158
S'body'
p159
asbag49
(g70
g51
NtRp160
(dp161
g54
(dp162
g81
g82
ssg63
g151
sg56
(lp163
S':'
asbag49
(g70
g51
NtRp164
(dp165
g54
(dp166
sg63
g151
sg56
(lp167
g49
(g50
g51
NtRp168
(dp169
g54
(dp170
g62
I5
ssg63
g164
sg56
(lp171
S'<cStringIO.StringO object at 0x0560A580>'
p172
asbasbasbag49
(g65
g51
NtRp173
(dp174
g54
(dp175
sg63
g59
sg56
(lp176
g49
(g70
g51
NtRp177
(dp178
g54
(dp179
g74
g75
ssg63
g173
sg56
(lp180
S'client'
p181
asbag49
(g70
g51
NtRp182
(dp183
g54
(dp184
g81
g82
ssg63
g173
sg56
(lp185
S':'
asbag49
(g70
g51
NtRp186
(dp187
g54
(dp188
sg63
g173
sg56
(lp189
g49
(g50
g51
NtRp190
(dp191
g54
(dp192
g62
I5
ssg63
g186
sg56
(lp193
S'127.0.0.1'
p194
asbasbasbag49
(g65
g51
NtRp195
(dp196
g54
(dp197
sg63
g59
sg56
(lp198
g49
(g70
g51
NtRp199
(dp200
g54
(dp201
g74
g75
ssg63
g195
sg56
(lp202
S'controller'
p203
asbag49
(g70
g51
NtRp204
(dp205
g54
(dp206
g81
g82
ssg63
g195
sg56
(lp207
S':'
asbag49
(g70
g51
NtRp208
(dp209
g54
(dp210
sg63
g195
sg56
(lp211
g49
(g50
g51
NtRp212
(dp213
g54
(dp214
g62
I5
ssg63
g208
sg56
(lp215
S'default'
p216
asbasbasbag49
(g65
g51
NtRp217
(dp218
g54
(dp219
sg63
g59
sg56
(lp220
g49
(g70
g51
NtRp221
(dp222
g54
(dp223
g74
g75
ssg63
g217
sg56
(lp224
S'cookies'
p225
asbag49
(g70
g51
NtRp226
(dp227
g54
(dp228
g81
g82
ssg63
g217
sg56
(lp229
S':'
asbag49
(g70
g51
NtRp230
(dp231
g54
(dp232
sg63
g217
sg56
(lp233
g49
(g50
g51
NtRp234
(dp235
g54
(dp236
g62
I5
ssg63
g230
sg56
(lp237
g49
(g58
g51
NtRp238
(dp239
g54
(dp240
g62
I4
ssg63
Nsg56
(lp241
g49
(g65
g51
NtRp242
(dp243
g54
(dp244
sg63
g238
sg56
(lp245
g49
(g70
g51
NtRp246
(dp247
g54
(dp248
g74
g75
ssg63
g242
sg56
(lp249
S'session_id_admin'
p250
asbag49
(g70
g51
NtRp251
(dp252
g54
(dp253
g81
g82
ssg63
g242
sg56
(lp254
S':'
asbag49
(g70
g51
NtRp255
(dp256
g54
(dp257
sg63
g242
sg56
(lp258
g49
(g50
g51
NtRp259
(dp260
g54
(dp261
g62
I4
ssg63
g255
sg56
(lp262
g49
(g58
g51
NtRp263
(dp264
g54
(dp265
g62
I3
ssg63
Nsg56
(lp266
g49
(g65
g51
NtRp267
(dp268
g54
(dp269
sg63
g263
sg56
(lp270
g49
(g70
g51
NtRp271
(dp272
g54
(dp273
g74
g75
ssg63
g267
sg56
(lp274
S'comment'
p275
asbag49
(g70
g51
NtRp276
(dp277
g54
(dp278
g81
g82
ssg63
g267
sg56
(lp279
S':'
asbag49
(g70
g51
NtRp280
(dp281
g54
(dp282
sg63
g267
sg56
(lp283
g49
(g50
g51
NtRp284
(dp285
g54
(dp286
g62
I3
ssg63
g280
sg56
(lp287
S''
asbasbasbag49
(g65
g51
NtRp288
(dp289
g54
(dp290
sg63
g263
sg56
(lp291
g49
(g70
g51
NtRp292
(dp293
g54
(dp294
g74
g75
ssg63
g288
sg56
(lp295
S'domain'
p296
asbag49
(g70
g51
NtRp297
(dp298
g54
(dp299
g81
g82
ssg63
g288
sg56
(lp300
S':'
asbag49
(g70
g51
NtRp301
(dp302
g54
(dp303
sg63
g288
sg56
(lp304
g49
(g50
g51
NtRp305
(dp306
g54
(dp307
g62
I3
ssg63
g301
sg56
(lp308
S''
asbasbasbag49
(g65
g51
NtRp309
(dp310
g54
(dp311
sg63
g263
sg56
(lp312
g49
(g70
g51
NtRp313
(dp314
g54
(dp315
g74
g75
ssg63
g309
sg56
(lp316
S'expires'
p317
asbag49
(g70
g51
NtRp318
(dp319
g54
(dp320
g81
g82
ssg63
g309
sg56
(lp321
S':'
asbag49
(g70
g51
NtRp322
(dp323
g54
(dp324
sg63
g309
sg56
(lp325
g49
(g50
g51
NtRp326
(dp327
g54
(dp328
g62
I3
ssg63
g322
sg56
(lp329
S''
asbasbasbag49
(g65
g51
NtRp330
(dp331
g54
(dp332
sg63
g263
sg56
(lp333
g49
(g70
g51
NtRp334
(dp335
g54
(dp336
g74
g75
ssg63
g330
sg56
(lp337
S'max-age'
p338
asbag49
(g70
g51
NtRp339
(dp340
g54
(dp341
g81
g82
ssg63
g330
sg56
(lp342
S':'
asbag49
(g70
g51
NtRp343
(dp344
g54
(dp345
sg63
g330
sg56
(lp346
g49
(g50
g51
NtRp347
(dp348
g54
(dp349
g62
I3
ssg63
g343
sg56
(lp350
S''
asbasbasbag49
(g65
g51
NtRp351
(dp352
g54
(dp353
sg63
g263
sg56
(lp354
g49
(g70
g51
NtRp355
(dp356
g54
(dp357
g74
g75
ssg63
g351
sg56
(lp358
S'path'
p359
asbag49
(g70
g51
NtRp360
(dp361
g54
(dp362
g81
g82
ssg63
g351
sg56
(lp363
S':'
asbag49
(g70
g51
NtRp364
(dp365
g54
(dp366
sg63
g351
sg56
(lp367
g49
(g50
g51
NtRp368
(dp369
g54
(dp370
g62
I3
ssg63
g364
sg56
(lp371
S''
asbasbasbag49
(g65
g51
NtRp372
(dp373
g54
(dp374
sg63
g263
sg56
(lp375
g49
(g70
g51
NtRp376
(dp377
g54
(dp378
g74
g75
ssg63
g372
sg56
(lp379
S'secure'
p380
asbag49
(g70
g51
NtRp381
(dp382
g54
(dp383
g81
g82
ssg63
g372
sg56
(lp384
S':'
asbag49
(g70
g51
NtRp385
(dp386
g54
(dp387
sg63
g372
sg56
(lp388
g49
(g50
g51
NtRp389
(dp390
g54
(dp391
g62
I3
ssg63
g385
sg56
(lp392
S''
asbasbasbag49
(g65
g51
NtRp393
(dp394
g54
(dp395
sg63
g263
sg56
(lp396
g49
(g70
g51
NtRp397
(dp398
g54
(dp399
g74
g75
ssg63
g393
sg56
(lp400
S'version'
p401
asbag49
(g70
g51
NtRp402
(dp403
g54
(dp404
g81
g82
ssg63
g393
sg56
(lp405
S':'
asbag49
(g70
g51
NtRp406
(dp407
g54
(dp408
sg63
g393
sg56
(lp409
g49
(g50
g51
NtRp410
(dp411
g54
(dp412
g62
I3
ssg63
g406
sg56
(lp413
S''
asbasbasbasbasbasbasbag49
(g65
g51
NtRp414
(dp415
g54
(dp416
sg63
g238
sg56
(lp417
g49
(g70
g51
NtRp418
(dp419
g54
(dp420
g74
g75
ssg63
g414
sg56
(lp421
S'session_id_sitsit'
p422
asbag49
(g70
g51
NtRp423
(dp424
g54
(dp425
g81
g82
ssg63
g414
sg56
(lp426
S':'
asbag49
(g70
g51
NtRp427
(dp428
g54
(dp429
sg63
g414
sg56
(lp430
g49
(g50
g51
NtRp431
(dp432
g54
(dp433
g62
I4
ssg63
g427
sg56
(lp434
g49
(g58
g51
NtRp435
(dp436
g54
(dp437
g62
I3
ssg63
Nsg56
(lp438
g49
(g65
g51
NtRp439
(dp440
g54
(dp441
sg63
g435
sg56
(lp442
g49
(g70
g51
NtRp443
(dp444
g54
(dp445
g74
g75
ssg63
g439
sg56
(lp446
g275
asbag49
(g70
g51
NtRp447
(dp448
g54
(dp449
g81
g82
ssg63
g439
sg56
(lp450
S':'
asbag49
(g70
g51
NtRp451
(dp452
g54
(dp453
sg63
g439
sg56
(lp454
g49
(g50
g51
NtRp455
(dp456
g54
(dp457
g62
I3
ssg63
g451
sg56
(lp458
S''
asbasbasbag49
(g65
g51
NtRp459
(dp460
g54
(dp461
sg63
g435
sg56
(lp462
g49
(g70
g51
NtRp463
(dp464
g54
(dp465
g74
g75
ssg63
g459
sg56
(lp466
g296
asbag49
(g70
g51
NtRp467
(dp468
g54
(dp469
g81
g82
ssg63
g459
sg56
(lp470
S':'
asbag49
(g70
g51
NtRp471
(dp472
g54
(dp473
sg63
g459
sg56
(lp474
g49
(g50
g51
NtRp475
(dp476
g54
(dp477
g62
I3
ssg63
g471
sg56
(lp478
S''
asbasbasbag49
(g65
g51
NtRp479
(dp480
g54
(dp481
sg63
g435
sg56
(lp482
g49
(g70
g51
NtRp483
(dp484
g54
(dp485
g74
g75
ssg63
g479
sg56
(lp486
g317
asbag49
(g70
g51
NtRp487
(dp488
g54
(dp489
g81
g82
ssg63
g479
sg56
(lp490
S':'
asbag49
(g70
g51
NtRp491
(dp492
g54
(dp493
sg63
g479
sg56
(lp494
g49
(g50
g51
NtRp495
(dp496
g54
(dp497
g62
I3
ssg63
g491
sg56
(lp498
S''
asbasbasbag49
(g65
g51
NtRp499
(dp500
g54
(dp501
sg63
g435
sg56
(lp502
g49
(g70
g51
NtRp503
(dp504
g54
(dp505
g74
g75
ssg63
g499
sg56
(lp506
g338
asbag49
(g70
g51
NtRp507
(dp508
g54
(dp509
g81
g82
ssg63
g499
sg56
(lp510
S':'
asbag49
(g70
g51
NtRp511
(dp512
g54
(dp513
sg63
g499
sg56
(lp514
g49
(g50
g51
NtRp515
(dp516
g54
(dp517
g62
I3
ssg63
g511
sg56
(lp518
S''
asbasbasbag49
(g65
g51
NtRp519
(dp520
g54
(dp521
sg63
g435
sg56
(lp522
g49
(g70
g51
NtRp523
(dp524
g54
(dp525
g74
g75
ssg63
g519
sg56
(lp526
g359
asbag49
(g70
g51
NtRp527
(dp528
g54
(dp529
g81
g82
ssg63
g519
sg56
(lp530
S':'
asbag49
(g70
g51
NtRp531
(dp532
g54
(dp533
sg63
g519
sg56
(lp534
g49
(g50
g51
NtRp535
(dp536
g54
(dp537
g62
I3
ssg63
g531
sg56
(lp538
S''
asbasbasbag49
(g65
g51
NtRp539
(dp540
g54
(dp541
sg63
g435
sg56
(lp542
g49
(g70
g51
NtRp543
(dp544
g54
(dp545
g74
g75
ssg63
g539
sg56
(lp546
g380
asbag49
(g70
g51
NtRp547
(dp548
g54
(dp549
g81
g82
ssg63
g539
sg56
(lp550
S':'
asbag49
(g70
g51
NtRp551
(dp552
g54
(dp553
sg63
g539
sg56
(lp554
g49
(g50
g51
NtRp555
(dp556
g54
(dp557
g62
I3
ssg63
g551
sg56
(lp558
S''
asbasbasbag49
(g65
g51
NtRp559
(dp560
g54
(dp561
sg63
g435
sg56
(lp562
g49
(g70
g51
NtRp563
(dp564
g54
(dp565
g74
g75
ssg63
g559
sg56
(lp566
g401
asbag49
(g70
g51
NtRp567
(dp568
g54
(dp569
g81
g82
ssg63
g559
sg56
(lp570
S':'
asbag49
(g70
g51
NtRp571
(dp572
g54
(dp573
sg63
g559
sg56
(lp574
g49
(g50
g51
NtRp575
(dp576
g54
(dp577
g62
I3
ssg63
g571
sg56
(lp578
S''
asbasbasbasbasbasbasbag49
(g65
g51
NtRp579
(dp580
g54
(dp581
sg63
g238
sg56
(lp582
g49
(g70
g51
NtRp583
(dp584
g54
(dp585
g74
g75
ssg63
g579
sg56
(lp586
S'session_id_welcome'
p587
asbag49
(g70
g51
NtRp588
(dp589
g54
(dp590
g81
g82
ssg63
g579
sg56
(lp591
S':'
asbag49
(g70
g51
NtRp592
(dp593
g54
(dp594
sg63
g579
sg56
(lp595
g49
(g50
g51
NtRp596
(dp597
g54
(dp598
g62
I4
ssg63
g592
sg56
(lp599
g49
(g58
g51
NtRp600
(dp601
g54
(dp602
g62
I3
ssg63
Nsg56
(lp603
g49
(g65
g51
NtRp604
(dp605
g54
(dp606
sg63
g600
sg56
(lp607
g49
(g70
g51
NtRp608
(dp609
g54
(dp610
g74
g75
ssg63
g604
sg56
(lp611
g275
asbag49
(g70
g51
NtRp612
(dp613
g54
(dp614
g81
g82
ssg63
g604
sg56
(lp615
S':'
asbag49
(g70
g51
NtRp616
(dp617
g54
(dp618
sg63
g604
sg56
(lp619
g49
(g50
g51
NtRp620
(dp621
g54
(dp622
g62
I3
ssg63
g616
sg56
(lp623
S''
asbasbasbag49
(g65
g51
NtRp624
(dp625
g54
(dp626
sg63
g600
sg56
(lp627
g49
(g70
g51
NtRp628
(dp629
g54
(dp630
g74
g75
ssg63
g624
sg56
(lp631
g296
asbag49
(g70
g51
NtRp632
(dp633
g54
(dp634
g81
g82
ssg63
g624
sg56
(lp635
S':'
asbag49
(g70
g51
NtRp636
(dp637
g54
(dp638
sg63
g624
sg56
(lp639
g49
(g50
g51
NtRp640
(dp641
g54
(dp642
g62
I3
ssg63
g636
sg56
(lp643
S''
asbasbasbag49
(g65
g51
NtRp644
(dp645
g54
(dp646
sg63
g600
sg56
(lp647
g49
(g70
g51
NtRp648
(dp649
g54
(dp650
g74
g75
ssg63
g644
sg56
(lp651
g317
asbag49
(g70
g51
NtRp652
(dp653
g54
(dp654
g81
g82
ssg63
g644
sg56
(lp655
S':'
asbag49
(g70
g51
NtRp656
(dp657
g54
(dp658
sg63
g644
sg56
(lp659
g49
(g50
g51
NtRp660
(dp661
g54
(dp662
g62
I3
ssg63
g656
sg56
(lp663
S''
asbasbasbag49
(g65
g51
NtRp664
(dp665
g54
(dp666
sg63
g600
sg56
(lp667
g49
(g70
g51
NtRp668
(dp669
g54
(dp670
g74
g75
ssg63
g664
sg56
(lp671
g338
asbag49
(g70
g51
NtRp672
(dp673
g54
(dp674
g81
g82
ssg63
g664
sg56
(lp675
S':'
asbag49
(g70
g51
NtRp676
(dp677
g54
(dp678
sg63
g664
sg56
(lp679
g49
(g50
g51
NtRp680
(dp681
g54
(dp682
g62
I3
ssg63
g676
sg56
(lp683
S''
asbasbasbag49
(g65
g51
NtRp684
(dp685
g54
(dp686
sg63
g600
sg56
(lp687
g49
(g70
g51
NtRp688
(dp689
g54
(dp690
g74
g75
ssg63
g684
sg56
(lp691
g359
asbag49
(g70
g51
NtRp692
(dp693
g54
(dp694
g81
g82
ssg63
g684
sg56
(lp695
S':'
asbag49
(g70
g51
NtRp696
(dp697
g54
(dp698
sg63
g684
sg56
(lp699
g49
(g50
g51
NtRp700
(dp701
g54
(dp702
g62
I3
ssg63
g696
sg56
(lp703
S''
asbasbasbag49
(g65
g51
NtRp704
(dp705
g54
(dp706
sg63
g600
sg56
(lp707
g49
(g70
g51
NtRp708
(dp709
g54
(dp710
g74
g75
ssg63
g704
sg56
(lp711
g380
asbag49
(g70
g51
NtRp712
(dp713
g54
(dp714
g81
g82
ssg63
g704
sg56
(lp715
S':'
asbag49
(g70
g51
NtRp716
(dp717
g54
(dp718
sg63
g704
sg56
(lp719
g49
(g50
g51
NtRp720
(dp721
g54
(dp722
g62
I3
ssg63
g716
sg56
(lp723
S''
asbasbasbag49
(g65
g51
NtRp724
(dp725
g54
(dp726
sg63
g600
sg56
(lp727
g49
(g70
g51
NtRp728
(dp729
g54
(dp730
g74
g75
ssg63
g724
sg56
(lp731
g401
asbag49
(g70
g51
NtRp732
(dp733
g54
(dp734
g81
g82
ssg63
g724
sg56
(lp735
S':'
asbag49
(g70
g51
NtRp736
(dp737
g54
(dp738
sg63
g724
sg56
(lp739
g49
(g50
g51
NtRp740
(dp741
g54
(dp742
g62
I3
ssg63
g736
sg56
(lp743
S''
asbasbasbasbasbasbasbasbasbasbasbag49
(g65
g51
NtRp744
(dp745
g54
(dp746
sg63
g59
sg56
(lp747
g49
(g70
g51
NtRp748
(dp749
g54
(dp750
g74
g75
ssg63
g744
sg56
(lp751
S'env'
p752
asbag49
(g70
g51
NtRp753
(dp754
g54
(dp755
g81
g82
ssg63
g744
sg56
(lp756
S':'
asbag49
(g70
g51
NtRp757
(dp758
g54
(dp759
sg63
g744
sg56
(lp760
g49
(g50
g51
NtRp761
(dp762
g54
(dp763
g62
I5
ssg63
g757
sg56
(lp764
g49
(g58
g51
NtRp765
(dp766
g54
(dp767
g62
I4
ssg63
Nsg56
(lp768
g49
(g65
g51
NtRp769
(dp770
g54
(dp771
sg63
g765
sg56
(lp772
g49
(g70
g51
NtRp773
(dp774
g54
(dp775
g74
g75
ssg63
g769
sg56
(lp776
S'app_folders'
p777
asbag49
(g70
g51
NtRp778
(dp779
g54
(dp780
g81
g82
ssg63
g769
sg56
(lp781
S':'
asbag49
(g70
g51
NtRp782
(dp783
g54
(dp784
sg63
g769
sg56
(lp785
g49
(g50
g51
NtRp786
(dp787
g54
(dp788
g62
I4
ssg63
g782
sg56
(lp789
S"set(['C:\\\\Users\\\\Osku\\\\koodaus\\\\web2py\\\\applications\\\\sitsit\\\\', 'C:\\\\Users\\\\Osku\\\\koodaus\\\\web2py\\\\applications\\\\welcome\\\\', 'C:\\\\Users\\\\Osku\\\\koodaus\\\\web2py\\\\applications\\\\admin\\\\'])"
p790
asbasbasbag49
(g65
g51
NtRp791
(dp792
g54
(dp793
sg63
g765
sg56
(lp794
g49
(g70
g51
NtRp795
(dp796
g54
(dp797
g74
g75
ssg63
g791
sg56
(lp798
S'applications_parent'
p799
asbag49
(g70
g51
NtRp800
(dp801
g54
(dp802
g81
g82
ssg63
g791
sg56
(lp803
S':'
asbag49
(g70
g51
NtRp804
(dp805
g54
(dp806
sg63
g791
sg56
(lp807
g49
(g50
g51
NtRp808
(dp809
g54
(dp810
g62
I4
ssg63
g804
sg56
(lp811
S'C:\\Users\\Osku\\koodaus\\web2py'
p812
asbasbasbag49
(g65
g51
NtRp813
(dp814
g54
(dp815
sg63
g765
sg56
(lp816
g49
(g70
g51
NtRp817
(dp818
g54
(dp819
g74
g75
ssg63
g813
sg56
(lp820
S'cmd_args'
p821
asbag49
(g70
g51
NtRp822
(dp823
g54
(dp824
g81
g82
ssg63
g813
sg56
(lp825
S':'
asbag49
(g70
g51
NtRp826
(dp827
g54
(dp828
sg63
g813
sg56
(lp829
g49
(g50
g51
NtRp830
(dp831
g54
(dp832
g62
I4
ssg63
g826
sg56
(lp833
g49
(g58
g51
NtRp834
(dp835
g54
(dp836
g62
I3
ssg63
Nsg56
(lp837
sbasbasbasbag49
(g65
g51
NtRp838
(dp839
g54
(dp840
sg63
g765
sg56
(lp841
g49
(g70
g51
NtRp842
(dp843
g54
(dp844
g74
g75
ssg63
g838
sg56
(lp845
S'cmd_options'
p846
asbag49
(g70
g51
NtRp847
(dp848
g54
(dp849
g81
g82
ssg63
g838
sg56
(lp850
S':'
asbag49
(g70
g51
NtRp851
(dp852
g54
(dp853
sg63
g838
sg56
(lp854
g49
(g50
g51
NtRp855
(dp856
g54
(dp857
g62
I4
ssg63
g851
sg56
(lp858
S"<Values at 0x22b0030: {'verbose': False, 'ip': '127.0.0.1', 'shutdown_timeout': 5, 'taskbar': False, 'nocron': False, 'pid_filename': 'httpserver.pid', 'maxthreads': None, 'softcron': False, 'server_name': 'Osku-Kannettava', 'bpython': False, 'nogui': False, 'port': 8000, 'extcron': False, 'debuglevel': 30, 'test': None, 'folder': 'C:\\\\Users\\\\Osku\\\\koodaus\\\\web2py', 'config': '', 'import_models': False, 'winservice': '', 'shell': None, 'run': '', 'log_filename': 'httpserver.log', 'args': [''], 'socket_timeout': 5, 'ssl_ca_certificate': None, 'scheduler': None, 'profiler_filename': None, 'ssl_private_key': '', 'password': '<ask>', 'request_queue_size': 5, 'ssl_certificate': '', 'cronjob': False, 'numthreads': None, 'quiet': False, 'interfaces': None, 'minthreads': None, 'timeout': 10, 'plain': False, 'nobanner': False}>"
p859
asbasbasbag49
(g65
g51
NtRp860
(dp861
g54
(dp862
sg63
g765
sg56
(lp863
g49
(g70
g51
NtRp864
(dp865
g54
(dp866
g74
g75
ssg63
g860
sg56
(lp867
S'db_sessions'
p868
asbag49
(g70
g51
NtRp869
(dp870
g54
(dp871
g81
g82
ssg63
g860
sg56
(lp872
S':'
asbag49
(g70
g51
NtRp873
(dp874
g54
(dp875
sg63
g860
sg56
(lp876
g49
(g50
g51
NtRp877
(dp878
g54
(dp879
g62
I4
ssg63
g873
sg56
(lp880
S'set([])'
p881
asbasbasbag49
(g65
g51
NtRp882
(dp883
g54
(dp884
sg63
g765
sg56
(lp885
g49
(g70
g51
NtRp886
(dp887
g54
(dp888
g74
g75
ssg63
g882
sg56
(lp889
S'debugging'
p890
asbag49
(g70
g51
NtRp891
(dp892
g54
(dp893
g81
g82
ssg63
g882
sg56
(lp894
S':'
asbag49
(g70
g51
NtRp895
(dp896
g54
(dp897
sg63
g882
sg56
(lp898
g49
(g50
g51
NtRp899
(dp900
g54
(dp901
g62
I4
ssg63
g895
sg56
(lp902
g92
asbasbasbag49
(g65
g51
NtRp903
(dp904
g54
(dp905
sg63
g765
sg56
(lp906
g49
(g70
g51
NtRp907
(dp908
g54
(dp909
g74
g75
ssg63
g903
sg56
(lp910
S'gluon_parent'
p911
asbag49
(g70
g51
NtRp912
(dp913
g54
(dp914
g81
g82
ssg63
g903
sg56
(lp915
S':'
asbag49
(g70
g51
NtRp916
(dp917
g54
(dp918
sg63
g903
sg56
(lp919
g49
(g50
g51
NtRp920
(dp921
g54
(dp922
g62
I4
ssg63
g916
sg56
(lp923
S'C:\\Users\\Osku\\koodaus\\web2py'
p924
asbasbasbag49
(g65
g51
NtRp925
(dp926
g54
(dp927
sg63
g765
sg56
(lp928
g49
(g70
g51
NtRp929
(dp930
g54
(dp931
g74
g75
ssg63
g925
sg56
(lp932
S'http_accept'
p933
asbag49
(g70
g51
NtRp934
(dp935
g54
(dp936
g81
g82
ssg63
g925
sg56
(lp937
S':'
asbag49
(g70
g51
NtRp938
(dp939
g54
(dp940
sg63
g925
sg56
(lp941
g49
(g50
g51
NtRp942
(dp943
g54
(dp944
g62
I4
ssg63
g938
sg56
(lp945
S'text/html,application/xhtml+xml,application/xml;q=0.9,*/*;q=0.8'
p946
asbasbasbag49
(g65
g51
NtRp947
(dp948
g54
(dp949
sg63
g765
sg56
(lp950
g49
(g70
g51
NtRp951
(dp952
g54
(dp953
g74
g75
ssg63
g947
sg56
(lp954
S'http_accept_charset'
p955
asbag49
(g70
g51
NtRp956
(dp957
g54
(dp958
g81
g82
ssg63
g947
sg56
(lp959
S':'
asbag49
(g70
g51
NtRp960
(dp961
g54
(dp962
sg63
g947
sg56
(lp963
g49
(g50
g51
NtRp964
(dp965
g54
(dp966
g62
I4
ssg63
g960
sg56
(lp967
S'ISO-8859-1,utf-8;q=0.7,*;q=0.3'
p968
asbasbasbag49
(g65
g51
NtRp969
(dp970
g54
(dp971
sg63
g765
sg56
(lp972
g49
(g70
g51
NtRp973
(dp974
g54
(dp975
g74
g75
ssg63
g969
sg56
(lp976
S'http_accept_encoding'
p977
asbag49
(g70
g51
NtRp978
(dp979
g54
(dp980
g81
g82
ssg63
g969
sg56
(lp981
S':'
asbag49
(g70
g51
NtRp982
(dp983
g54
(dp984
sg63
g969
sg56
(lp985
g49
(g50
g51
NtRp986
(dp987
g54
(dp988
g62
I4
ssg63
g982
sg56
(lp989
S'gzip,deflate,sdch'
p990
asbasbasbag49
(g65
g51
NtRp991
(dp992
g54
(dp993
sg63
g765
sg56
(lp994
g49
(g70
g51
NtRp995
(dp996
g54
(dp997
g74
g75
ssg63
g991
sg56
(lp998
S'http_accept_language'
p999
asbag49
(g70
g51
NtRp1000
(dp1001
g54
(dp1002
g81
g82
ssg63
g991
sg56
(lp1003
S':'
asbag49
(g70
g51
NtRp1004
(dp1005
g54
(dp1006
sg63
g991
sg56
(lp1007
g49
(g50
g51
NtRp1008
(dp1009
g54
(dp1010
g62
I4
ssg63
g1004
sg56
(lp1011
S'en-GB,en-US;q=0.8,en;q=0.6,fi;q=0.4'
p1012
asbasbasbag49
(g65
g51
NtRp1013
(dp1014
g54
(dp1015
sg63
g765
sg56
(lp1016
g49
(g70
g51
NtRp1017
(dp1018
g54
(dp1019
g74
g75
ssg63
g1013
sg56
(lp1020
S'http_cache_control'
p1021
asbag49
(g70
g51
NtRp1022
(dp1023
g54
(dp1024
g81
g82
ssg63
g1013
sg56
(lp1025
S':'
asbag49
(g70
g51
NtRp1026
(dp1027
g54
(dp1028
sg63
g1013
sg56
(lp1029
g49
(g50
g51
NtRp1030
(dp1031
g54
(dp1032
g62
I4
ssg63
g1026
sg56
(lp1033
S'max-age=0'
p1034
asbasbasbag49
(g65
g51
NtRp1035
(dp1036
g54
(dp1037
sg63
g765
sg56
(lp1038
g49
(g70
g51
NtRp1039
(dp1040
g54
(dp1041
g74
g75
ssg63
g1035
sg56
(lp1042
S'http_connection'
p1043
asbag49
(g70
g51
NtRp1044
(dp1045
g54
(dp1046
g81
g82
ssg63
g1035
sg56
(lp1047
S':'
asbag49
(g70
g51
NtRp1048
(dp1049
g54
(dp1050
sg63
g1035
sg56
(lp1051
g49
(g50
g51
NtRp1052
(dp1053
g54
(dp1054
g62
I4
ssg63
g1048
sg56
(lp1055
S'keep-alive'
p1056
asbasbasbag49
(g65
g51
NtRp1057
(dp1058
g54
(dp1059
sg63
g765
sg56
(lp1060
g49
(g70
g51
NtRp1061
(dp1062
g54
(dp1063
g74
g75
ssg63
g1057
sg56
(lp1064
S'http_cookie'
p1065
asbag49
(g70
g51
NtRp1066
(dp1067
g54
(dp1068
g81
g82
ssg63
g1057
sg56
(lp1069
S':'
asbag49
(g70
g51
NtRp1070
(dp1071
g54
(dp1072
sg63
g1057
sg56
(lp1073
g49
(g50
g51
NtRp1074
(dp1075
g54
(dp1076
g62
I4
ssg63
g1070
sg56
(lp1077
S'session_id_welcome=127.0.0.1-731960a1-ea7c-4af8-ac49-7798aa234dcd; session_id_admin=127.0.0.1-941ea7a4-a42e-46de-bdfb-3dd29fbb7e62; session_id_sitsit=127.0.0.1-ec2284ba-32fe-4a19-9a6f-e97c370381b5'
p1078
asbasbasbag49
(g65
g51
NtRp1079
(dp1080
g54
(dp1081
sg63
g765
sg56
(lp1082
g49
(g70
g51
NtRp1083
(dp1084
g54
(dp1085
g74
g75
ssg63
g1079
sg56
(lp1086
S'http_host'
p1087
asbag49
(g70
g51
NtRp1088
(dp1089
g54
(dp1090
g81
g82
ssg63
g1079
sg56
(lp1091
S':'
asbag49
(g70
g51
NtRp1092
(dp1093
g54
(dp1094
sg63
g1079
sg56
(lp1095
g49
(g50
g51
NtRp1096
(dp1097
g54
(dp1098
g62
I4
ssg63
g1092
sg56
(lp1099
S'127.0.0.1:8000'
p1100
asbasbasbag49
(g65
g51
NtRp1101
(dp1102
g54
(dp1103
sg63
g765
sg56
(lp1104
g49
(g70
g51
NtRp1105
(dp1106
g54
(dp1107
g74
g75
ssg63
g1101
sg56
(lp1108
S'http_user_agent'
p1109
asbag49
(g70
g51
NtRp1110
(dp1111
g54
(dp1112
g81
g82
ssg63
g1101
sg56
(lp1113
S':'
asbag49
(g70
g51
NtRp1114
(dp1115
g54
(dp1116
sg63
g1101
sg56
(lp1117
g49
(g50
g51
NtRp1118
(dp1119
g54
(dp1120
g62
I4
ssg63
g1114
sg56
(lp1121
S'Mozilla/5.0 (Windows NT 6.1) AppleWebKit/536.11 (KHTML, like Gecko) Chrome/20.0.1132.47 Safari/536.11'
p1122
asbasbasbag49
(g65
g51
NtRp1123
(dp1124
g54
(dp1125
sg63
g765
sg56
(lp1126
g49
(g70
g51
NtRp1127
(dp1128
g54
(dp1129
g74
g75
ssg63
g1123
sg56
(lp1130
S'is_jython'
p1131
asbag49
(g70
g51
NtRp1132
(dp1133
g54
(dp1134
g81
g82
ssg63
g1123
sg56
(lp1135
S':'
asbag49
(g70
g51
NtRp1136
(dp1137
g54
(dp1138
sg63
g1123
sg56
(lp1139
g49
(g50
g51
NtRp1140
(dp1141
g54
(dp1142
g62
I4
ssg63
g1136
sg56
(lp1143
g92
asbasbasbag49
(g65
g51
NtRp1144
(dp1145
g54
(dp1146
sg63
g765
sg56
(lp1147
g49
(g70
g51
NtRp1148
(dp1149
g54
(dp1150
g74
g75
ssg63
g1144
sg56
(lp1151
S'is_pypy'
p1152
asbag49
(g70
g51
NtRp1153
(dp1154
g54
(dp1155
g81
g82
ssg63
g1144
sg56
(lp1156
S':'
asbag49
(g70
g51
NtRp1157
(dp1158
g54
(dp1159
sg63
g1144
sg56
(lp1160
g49
(g50
g51
NtRp1161
(dp1162
g54
(dp1163
g62
I4
ssg63
g1157
sg56
(lp1164
g92
asbasbasbag49
(g65
g51
NtRp1165
(dp1166
g54
(dp1167
sg63
g765
sg56
(lp1168
g49
(g70
g51
NtRp1169
(dp1170
g54
(dp1171
g74
g75
ssg63
g1165
sg56
(lp1172
S'path_info'
p1173
asbag49
(g70
g51
NtRp1174
(dp1175
g54
(dp1176
g81
g82
ssg63
g1165
sg56
(lp1177
S':'
asbag49
(g70
g51
NtRp1178
(dp1179
g54
(dp1180
sg63
g1165
sg56
(lp1181
g49
(g50
g51
NtRp1182
(dp1183
g54
(dp1184
g62
I4
ssg63
g1178
sg56
(lp1185
S'/sitsit/default/sitsit/5'
p1186
asbasbasbag49
(g65
g51
NtRp1187
(dp1188
g54
(dp1189
sg63
g765
sg56
(lp1190
g49
(g70
g51
NtRp1191
(dp1192
g54
(dp1193
g74
g75
ssg63
g1187
sg56
(lp1194
S'query_string'
p1195
asbag49
(g70
g51
NtRp1196
(dp1197
g54
(dp1198
g81
g82
ssg63
g1187
sg56
(lp1199
S':'
asbag49
(g70
g51
NtRp1200
(dp1201
g54
(dp1202
sg63
g1187
sg56
(lp1203
g49
(g50
g51
NtRp1204
(dp1205
g54
(dp1206
g62
I4
ssg63
g1200
sg56
(lp1207
S''
asbasbasbag49
(g65
g51
NtRp1208
(dp1209
g54
(dp1210
sg63
g765
sg56
(lp1211
g49
(g70
g51
NtRp1212
(dp1213
g54
(dp1214
g74
g75
ssg63
g1208
sg56
(lp1215
S'remote_addr'
p1216
asbag49
(g70
g51
NtRp1217
(dp1218
g54
(dp1219
g81
g82
ssg63
g1208
sg56
(lp1220
S':'
asbag49
(g70
g51
NtRp1221
(dp1222
g54
(dp1223
sg63
g1208
sg56
(lp1224
g49
(g50
g51
NtRp1225
(dp1226
g54
(dp1227
g62
I4
ssg63
g1221
sg56
(lp1228
g194
asbasbasbag49
(g65
g51
NtRp1229
(dp1230
g54
(dp1231
sg63
g765
sg56
(lp1232
g49
(g70
g51
NtRp1233
(dp1234
g54
(dp1235
g74
g75
ssg63
g1229
sg56
(lp1236
S'remote_port'
p1237
asbag49
(g70
g51
NtRp1238
(dp1239
g54
(dp1240
g81
g82
ssg63
g1229
sg56
(lp1241
S':'
asbag49
(g70
g51
NtRp1242
(dp1243
g54
(dp1244
sg63
g1229
sg56
(lp1245
g49
(g50
g51
NtRp1246
(dp1247
g54
(dp1248
g62
I4
ssg63
g1242
sg56
(lp1249
S'57626'
p1250
asbasbasbag49
(g65
g51
NtRp1251
(dp1252
g54
(dp1253
sg63
g765
sg56
(lp1254
g49
(g70
g51
NtRp1255
(dp1256
g54
(dp1257
g74
g75
ssg63
g1251
sg56
(lp1258
S'request_method'
p1259
asbag49
(g70
g51
NtRp1260
(dp1261
g54
(dp1262
g81
g82
ssg63
g1251
sg56
(lp1263
S':'
asbag49
(g70
g51
NtRp1264
(dp1265
g54
(dp1266
sg63
g1251
sg56
(lp1267
g49
(g50
g51
NtRp1268
(dp1269
g54
(dp1270
g62
I4
ssg63
g1264
sg56
(lp1271
S'GET'
p1272
asbasbasbag49
(g65
g51
NtRp1273
(dp1274
g54
(dp1275
sg63
g765
sg56
(lp1276
g49
(g70
g51
NtRp1277
(dp1278
g54
(dp1279
g74
g75
ssg63
g1273
sg56
(lp1280
S'script_name'
p1281
asbag49
(g70
g51
NtRp1282
(dp1283
g54
(dp1284
g81
g82
ssg63
g1273
sg56
(lp1285
S':'
asbag49
(g70
g51
NtRp1286
(dp1287
g54
(dp1288
sg63
g1273
sg56
(lp1289
g49
(g50
g51
NtRp1290
(dp1291
g54
(dp1292
g62
I4
ssg63
g1286
sg56
(lp1293
S''
asbasbasbag49
(g65
g51
NtRp1294
(dp1295
g54
(dp1296
sg63
g765
sg56
(lp1297
g49
(g70
g51
NtRp1298
(dp1299
g54
(dp1300
g74
g75
ssg63
g1294
sg56
(lp1301
S'server_name'
p1302
asbag49
(g70
g51
NtRp1303
(dp1304
g54
(dp1305
g81
g82
ssg63
g1294
sg56
(lp1306
S':'
asbag49
(g70
g51
NtRp1307
(dp1308
g54
(dp1309
sg63
g1294
sg56
(lp1310
g49
(g50
g51
NtRp1311
(dp1312
g54
(dp1313
g62
I4
ssg63
g1307
sg56
(lp1314
S'Osku-Kannettava'
p1315
asbasbasbag49
(g65
g51
NtRp1316
(dp1317
g54
(dp1318
sg63
g765
sg56
(lp1319
g49
(g70
g51
NtRp1320
(dp1321
g54
(dp1322
g74
g75
ssg63
g1316
sg56
(lp1323
S'server_port'
p1324
asbag49
(g70
g51
NtRp1325
(dp1326
g54
(dp1327
g81
g82
ssg63
g1316
sg56
(lp1328
S':'
asbag49
(g70
g51
NtRp1329
(dp1330
g54
(dp1331
sg63
g1316
sg56
(lp1332
g49
(g50
g51
NtRp1333
(dp1334
g54
(dp1335
g62
I4
ssg63
g1329
sg56
(lp1336
S'8000'
p1337
asbasbasbag49
(g65
g51
NtRp1338
(dp1339
g54
(dp1340
sg63
g765
sg56
(lp1341
g49
(g70
g51
NtRp1342
(dp1343
g54
(dp1344
g74
g75
ssg63
g1338
sg56
(lp1345
S'server_protocol'
p1346
asbag49
(g70
g51
NtRp1347
(dp1348
g54
(dp1349
g81
g82
ssg63
g1338
sg56
(lp1350
S':'
asbag49
(g70
g51
NtRp1351
(dp1352
g54
(dp1353
sg63
g1338
sg56
(lp1354
g49
(g50
g51
NtRp1355
(dp1356
g54
(dp1357
g62
I4
ssg63
g1351
sg56
(lp1358
S'HTTP/1.1'
p1359
asbasbasbag49
(g65
g51
NtRp1360
(dp1361
g54
(dp1362
sg63
g765
sg56
(lp1363
g49
(g70
g51
NtRp1364
(dp1365
g54
(dp1366
g74
g75
ssg63
g1360
sg56
(lp1367
S'server_software'
p1368
asbag49
(g70
g51
NtRp1369
(dp1370
g54
(dp1371
g81
g82
ssg63
g1360
sg56
(lp1372
S':'
asbag49
(g70
g51
NtRp1373
(dp1374
g54
(dp1375
sg63
g1360
sg56
(lp1376
g49
(g50
g51
NtRp1377
(dp1378
g54
(dp1379
g62
I4
ssg63
g1373
sg56
(lp1380
S'Rocket 1.2.4'
p1381
asbasbasbag49
(g65
g51
NtRp1382
(dp1383
g54
(dp1384
sg63
g765
sg56
(lp1385
g49
(g70
g51
NtRp1386
(dp1387
g54
(dp1388
g74
g75
ssg63
g1382
sg56
(lp1389
S'web2py_crontype'
p1390
asbag49
(g70
g51
NtRp1391
(dp1392
g54
(dp1393
g81
g82
ssg63
g1382
sg56
(lp1394
S':'
asbag49
(g70
g51
NtRp1395
(dp1396
g54
(dp1397
sg63
g1382
sg56
(lp1398
g49
(g50
g51
NtRp1399
(dp1400
g54
(dp1401
g62
I4
ssg63
g1395
sg56
(lp1402
S'hard'
p1403
asbasbasbag49
(g65
g51
NtRp1404
(dp1405
g54
(dp1406
sg63
g765
sg56
(lp1407
g49
(g70
g51
NtRp1408
(dp1409
g54
(dp1410
g74
g75
ssg63
g1404
sg56
(lp1411
S'web2py_path'
p1412
asbag49
(g70
g51
NtRp1413
(dp1414
g54
(dp1415
g81
g82
ssg63
g1404
sg56
(lp1416
S':'
asbag49
(g70
g51
NtRp1417
(dp1418
g54
(dp1419
sg63
g1404
sg56
(lp1420
g49
(g50
g51
NtRp1421
(dp1422
g54
(dp1423
g62
I4
ssg63
g1417
sg56
(lp1424
g812
asbasbasbag49
(g65
g51
NtRp1425
(dp1426
g54
(dp1427
sg63
g765
sg56
(lp1428
g49
(g70
g51
NtRp1429
(dp1430
g54
(dp1431
g74
g75
ssg63
g1425
sg56
(lp1432
S'web2py_version'
p1433
asbag49
(g70
g51
NtRp1434
(dp1435
g54
(dp1436
g81
g82
ssg63
g1425
sg56
(lp1437
S':'
asbag49
(g70
g51
NtRp1438
(dp1439
g54
(dp1440
sg63
g1425
sg56
(lp1441
g49
(g50
g51
NtRp1442
(dp1443
g54
(dp1444
g62
I4
ssg63
g1438
sg56
(lp1445
g49
(g58
g51
NtRp1446
(dp1447
g54
(dp1448
g62
I3
ssg63
Nsg56
(lp1449
g49
(g65
g51
NtRp1450
(dp1451
g54
(dp1452
sg63
g1446
sg56
(lp1453
g49
(g70
g51
NtRp1454
(dp1455
g54
(dp1456
sg63
g1450
sg56
(lp1457
g49
(g50
g51
NtRp1458
(dp1459
g54
(dp1460
g62
I3
ssg63
g1454
sg56
(lp1461
S'1'
asbasbasbag49
(g65
g51
NtRp1462
(dp1463
g54
(dp1464
sg63
g1446
sg56
(lp1465
g49
(g70
g51
NtRp1466
(dp1467
g54
(dp1468
sg63
g1462
sg56
(lp1469
g49
(g50
g51
NtRp1470
(dp1471
g54
(dp1472
g62
I3
ssg63
g1466
sg56
(lp1473
S'99'
p1474
asbasbasbag49
(g65
g51
NtRp1475
(dp1476
g54
(dp1477
sg63
g1446
sg56
(lp1478
g49
(g70
g51
NtRp1479
(dp1480
g54
(dp1481
sg63
g1475
sg56
(lp1482
g49
(g50
g51
NtRp1483
(dp1484
g54
(dp1485
g62
I3
ssg63
g1479
sg56
(lp1486
S'7'
asbasbasbag49
(g65
g51
NtRp1487
(dp1488
g54
(dp1489
sg63
g1446
sg56
(lp1490
g49
(g70
g51
NtRp1491
(dp1492
g54
(dp1493
sg63
g1487
sg56
(lp1494
g49
(g50
g51
NtRp1495
(dp1496
g54
(dp1497
g62
I3
ssg63
g1491
sg56
(lp1498
S'datetime.datetime(2012, 3, 4, 22, 12, 8)'
p1499
asbasbasbag49
(g65
g51
NtRp1500
(dp1501
g54
(dp1502
sg63
g1446
sg56
(lp1503
g49
(g70
g51
NtRp1504
(dp1505
g54
(dp1506
sg63
g1500
sg56
(lp1507
g49
(g50
g51
NtRp1508
(dp1509
g54
(dp1510
g62
I3
ssg63
g1504
sg56
(lp1511
S'stable'
p1512
asbasbasbasbasbasbasbag49
(g65
g51
NtRp1513
(dp1514
g54
(dp1515
sg63
g765
sg56
(lp1516
g49
(g70
g51
NtRp1517
(dp1518
g54
(dp1519
g74
g75
ssg63
g1513
sg56
(lp1520
S'wsgi_errors'
p1521
asbag49
(g70
g51
NtRp1522
(dp1523
g54
(dp1524
g81
g82
ssg63
g1513
sg56
(lp1525
S':'
asbag49
(g70
g51
NtRp1526
(dp1527
g54
(dp1528
sg63
g1513
sg56
(lp1529
g49
(g50
g51
NtRp1530
(dp1531
g54
(dp1532
g62
I4
ssg63
g1526
sg56
(lp1533
S"<open file '<stderr>', mode 'w' at 0x014D00B0>"
p1534
asbasbasbag49
(g65
g51
NtRp1535
(dp1536
g54
(dp1537
sg63
g765
sg56
(lp1538
g49
(g70
g51
NtRp1539
(dp1540
g54
(dp1541
g74
g75
ssg63
g1535
sg56
(lp1542
S'wsgi_file_wrapper'
p1543
asbag49
(g70
g51
NtRp1544
(dp1545
g54
(dp1546
g81
g82
ssg63
g1535
sg56
(lp1547
S':'
asbag49
(g70
g51
NtRp1548
(dp1549
g54
(dp1550
sg63
g1535
sg56
(lp1551
g49
(g50
g51
NtRp1552
(dp1553
g54
(dp1554
g62
I4
ssg63
g1548
sg56
(lp1555
S'<class wsgiref.util.FileWrapper at 0x020441E0>'
p1556
asbasbasbag49
(g65
g51
NtRp1557
(dp1558
g54
(dp1559
sg63
g765
sg56
(lp1560
g49
(g70
g51
NtRp1561
(dp1562
g54
(dp1563
g74
g75
ssg63
g1557
sg56
(lp1564
S'wsgi_input'
p1565
asbag49
(g70
g51
NtRp1566
(dp1567
g54
(dp1568
g81
g82
ssg63
g1557
sg56
(lp1569
S':'
asbag49
(g70
g51
NtRp1570
(dp1571
g54
(dp1572
sg63
g1557
sg56
(lp1573
g49
(g50
g51
NtRp1574
(dp1575
g54
(dp1576
g62
I4
ssg63
g1570
sg56
(lp1577
S'<socket._fileobject object at 0x0547A4B0>'
p1578
asbasbasbag49
(g65
g51
NtRp1579
(dp1580
g54
(dp1581
sg63
g765
sg56
(lp1582
g49
(g70
g51
NtRp1583
(dp1584
g54
(dp1585
g74
g75
ssg63
g1579
sg56
(lp1586
S'wsgi_multiprocess'
p1587
asbag49
(g70
g51
NtRp1588
(dp1589
g54
(dp1590
g81
g82
ssg63
g1579
sg56
(lp1591
S':'
asbag49
(g70
g51
NtRp1592
(dp1593
g54
(dp1594
sg63
g1579
sg56
(lp1595
g49
(g50
g51
NtRp1596
(dp1597
g54
(dp1598
g62
I4
ssg63
g1592
sg56
(lp1599
g92
asbasbasbag49
(g65
g51
NtRp1600
(dp1601
g54
(dp1602
sg63
g765
sg56
(lp1603
g49
(g70
g51
NtRp1604
(dp1605
g54
(dp1606
g74
g75
ssg63
g1600
sg56
(lp1607
S'wsgi_multithread'
p1608
asbag49
(g70
g51
NtRp1609
(dp1610
g54
(dp1611
g81
g82
ssg63
g1600
sg56
(lp1612
S':'
asbag49
(g70
g51
NtRp1613
(dp1614
g54
(dp1615
sg63
g1600
sg56
(lp1616
g49
(g50
g51
NtRp1617
(dp1618
g54
(dp1619
g62
I4
ssg63
g1613
sg56
(lp1620
S'True'
p1621
asbasbasbag49
(g65
g51
NtRp1622
(dp1623
g54
(dp1624
sg63
g765
sg56
(lp1625
g49
(g70
g51
NtRp1626
(dp1627
g54
(dp1628
g74
g75
ssg63
g1622
sg56
(lp1629
S'wsgi_run_once'
p1630
asbag49
(g70
g51
NtRp1631
(dp1632
g54
(dp1633
g81
g82
ssg63
g1622
sg56
(lp1634
S':'
asbag49
(g70
g51
NtRp1635
(dp1636
g54
(dp1637
sg63
g1622
sg56
(lp1638
g49
(g50
g51
NtRp1639
(dp1640
g54
(dp1641
g62
I4
ssg63
g1635
sg56
(lp1642
g92
asbasbasbag49
(g65
g51
NtRp1643
(dp1644
g54
(dp1645
sg63
g765
sg56
(lp1646
g49
(g70
g51
NtRp1647
(dp1648
g54
(dp1649
g74
g75
ssg63
g1643
sg56
(lp1650
S'wsgi_url_scheme'
p1651
asbag49
(g70
g51
NtRp1652
(dp1653
g54
(dp1654
g81
g82
ssg63
g1643
sg56
(lp1655
S':'
asbag49
(g70
g51
NtRp1656
(dp1657
g54
(dp1658
sg63
g1643
sg56
(lp1659
g49
(g50
g51
NtRp1660
(dp1661
g54
(dp1662
g62
I4
ssg63
g1656
sg56
(lp1663
S'http'
p1664
asbasbasbag49
(g65
g51
NtRp1665
(dp1666
g54
(dp1667
sg63
g765
sg56
(lp1668
g49
(g70
g51
NtRp1669
(dp1670
g54
(dp1671
g74
g75
ssg63
g1665
sg56
(lp1672
S'wsgi_version'
p1673
asbag49
(g70
g51
NtRp1674
(dp1675
g54
(dp1676
g81
g82
ssg63
g1665
sg56
(lp1677
S':'
asbag49
(g70
g51
NtRp1678
(dp1679
g54
(dp1680
sg63
g1665
sg56
(lp1681
g49
(g50
g51
NtRp1682
(dp1683
g54
(dp1684
g62
I4
ssg63
g1678
sg56
(lp1685
g49
(g58
g51
NtRp1686
(dp1687
g54
(dp1688
g62
I3
ssg63
Nsg56
(lp1689
g49
(g65
g51
NtRp1690
(dp1691
g54
(dp1692
sg63
g1686
sg56
(lp1693
g49
(g70
g51
NtRp1694
(dp1695
g54
(dp1696
sg63
g1690
sg56
(lp1697
g49
(g50
g51
NtRp1698
(dp1699
g54
(dp1700
g62
I3
ssg63
g1694
sg56
(lp1701
S'1'
asbasbasbag49
(g65
g51
NtRp1702
(dp1703
g54
(dp1704
sg63
g1686
sg56
(lp1705
g49
(g70
g51
NtRp1706
(dp1707
g54
(dp1708
sg63
g1702
sg56
(lp1709
g49
(g50
g51
NtRp1710
(dp1711
g54
(dp1712
g62
I3
ssg63
g1706
sg56
(lp1713
S'0'
asbasbasbasbasbasbasbasbasbasbasbag49
(g65
g51
NtRp1714
(dp1715
g54
(dp1716
sg63
g59
sg56
(lp1717
g49
(g70
g51
NtRp1718
(dp1719
g54
(dp1720
g74
g75
ssg63
g1714
sg56
(lp1721
S'extension'
p1722
asbag49
(g70
g51
NtRp1723
(dp1724
g54
(dp1725
g81
g82
ssg63
g1714
sg56
(lp1726
S':'
asbag49
(g70
g51
NtRp1727
(dp1728
g54
(dp1729
sg63
g1714
sg56
(lp1730
g49
(g50
g51
NtRp1731
(dp1732
g54
(dp1733
g62
I5
ssg63
g1727
sg56
(lp1734
S'html'
p1735
asbasbasbag49
(g65
g51
NtRp1736
(dp1737
g54
(dp1738
sg63
g59
sg56
(lp1739
g49
(g70
g51
NtRp1740
(dp1741
g54
(dp1742
g74
g75
ssg63
g1736
sg56
(lp1743
S'folder'
p1744
asbag49
(g70
g51
NtRp1745
(dp1746
g54
(dp1747
g81
g82
ssg63
g1736
sg56
(lp1748
S':'
asbag49
(g70
g51
NtRp1749
(dp1750
g54
(dp1751
sg63
g1736
sg56
(lp1752
g49
(g50
g51
NtRp1753
(dp1754
g54
(dp1755
g62
I5
ssg63
g1749
sg56
(lp1756
S'C:\\Users\\Osku\\koodaus\\web2py\\applications\\sitsit\\'
p1757
asbasbasbag49
(g65
g51
NtRp1758
(dp1759
g54
(dp1760
sg63
g59
sg56
(lp1761
g49
(g70
g51
NtRp1762
(dp1763
g54
(dp1764
g74
g75
ssg63
g1758
sg56
(lp1765
S'function'
p1766
asbag49
(g70
g51
NtRp1767
(dp1768
g54
(dp1769
g81
g82
ssg63
g1758
sg56
(lp1770
S':'
asbag49
(g70
g51
NtRp1771
(dp1772
g54
(dp1773
sg63
g1758
sg56
(lp1774
g49
(g50
g51
NtRp1775
(dp1776
g54
(dp1777
g62
I5
ssg63
g1771
sg56
(lp1778
S'sitsit'
p1779
asbasbasbag49
(g65
g51
NtRp1780
(dp1781
g54
(dp1782
sg63
g59
sg56
(lp1783
g49
(g70
g51
NtRp1784
(dp1785
g54
(dp1786
g74
g75
ssg63
g1780
sg56
(lp1787
S'get_vars'
p1788
asbag49
(g70
g51
NtRp1789
(dp1790
g54
(dp1791
g81
g82
ssg63
g1780
sg56
(lp1792
S':'
asbag49
(g70
g51
NtRp1793
(dp1794
g54
(dp1795
sg63
g1780
sg56
(lp1796
g49
(g50
g51
NtRp1797
(dp1798
g54
(dp1799
g62
I5
ssg63
g1793
sg56
(lp1800
g49
(g58
g51
NtRp1801
(dp1802
g54
(dp1803
g62
I4
ssg63
Nsg56
(lp1804
sbasbasbasbag49
(g65
g51
NtRp1805
(dp1806
g54
(dp1807
sg63
g59
sg56
(lp1808
g49
(g70
g51
NtRp1809
(dp1810
g54
(dp1811
g74
g75
ssg63
g1805
sg56
(lp1812
S'global_settings'
p1813
asbag49
(g70
g51
NtRp1814
(dp1815
g54
(dp1816
g81
g82
ssg63
g1805
sg56
(lp1817
S':'
asbag49
(g70
g51
NtRp1818
(dp1819
g54
(dp1820
sg63
g1805
sg56
(lp1821
g49
(g50
g51
NtRp1822
(dp1823
g54
(dp1824
g62
I5
ssg63
g1818
sg56
(lp1825
g49
(g58
g51
NtRp1826
(dp1827
g54
(dp1828
g62
I4
ssg63
Nsg56
(lp1829
g49
(g65
g51
NtRp1830
(dp1831
g54
(dp1832
sg63
g1826
sg56
(lp1833
g49
(g70
g51
NtRp1834
(dp1835
g54
(dp1836
g74
g75
ssg63
g1830
sg56
(lp1837
g777
asbag49
(g70
g51
NtRp1838
(dp1839
g54
(dp1840
g81
g82
ssg63
g1830
sg56
(lp1841
S':'
asbag49
(g70
g51
NtRp1842
(dp1843
g54
(dp1844
sg63
g1830
sg56
(lp1845
g49
(g50
g51
NtRp1846
(dp1847
g54
(dp1848
g62
I4
ssg63
g1842
sg56
(lp1849
S"set(['C:\\\\Users\\\\Osku\\\\koodaus\\\\web2py\\\\applications\\\\sitsit\\\\', 'C:\\\\Users\\\\Osku\\\\koodaus\\\\web2py\\\\applications\\\\welcome\\\\', 'C:\\\\Users\\\\Osku\\\\koodaus\\\\web2py\\\\applications\\\\admin\\\\'])"
p1850
asbasbasbag49
(g65
g51
NtRp1851
(dp1852
g54
(dp1853
sg63
g1826
sg56
(lp1854
g49
(g70
g51
NtRp1855
(dp1856
g54
(dp1857
g74
g75
ssg63
g1851
sg56
(lp1858
g799
asbag49
(g70
g51
NtRp1859
(dp1860
g54
(dp1861
g81
g82
ssg63
g1851
sg56
(lp1862
S':'
asbag49
(g70
g51
NtRp1863
(dp1864
g54
(dp1865
sg63
g1851
sg56
(lp1866
g49
(g50
g51
NtRp1867
(dp1868
g54
(dp1869
g62
I4
ssg63
g1863
sg56
(lp1870
g812
asbasbasbag49
(g65
g51
NtRp1871
(dp1872
g54
(dp1873
sg63
g1826
sg56
(lp1874
g49
(g70
g51
NtRp1875
(dp1876
g54
(dp1877
g74
g75
ssg63
g1871
sg56
(lp1878
g821
asbag49
(g70
g51
NtRp1879
(dp1880
g54
(dp1881
g81
g82
ssg63
g1871
sg56
(lp1882
S':'
asbag49
(g70
g51
NtRp1883
(dp1884
g54
(dp1885
sg63
g1871
sg56
(lp1886
g49
(g50
g51
NtRp1887
(dp1888
g54
(dp1889
g62
I4
ssg63
g1883
sg56
(lp1890
g49
(g58
g51
NtRp1891
(dp1892
g54
(dp1893
g62
I3
ssg63
Nsg56
(lp1894
sbasbasbasbag49
(g65
g51
NtRp1895
(dp1896
g54
(dp1897
sg63
g1826
sg56
(lp1898
g49
(g70
g51
NtRp1899
(dp1900
g54
(dp1901
g74
g75
ssg63
g1895
sg56
(lp1902
g846
asbag49
(g70
g51
NtRp1903
(dp1904
g54
(dp1905
g81
g82
ssg63
g1895
sg56
(lp1906
S':'
asbag49
(g70
g51
NtRp1907
(dp1908
g54
(dp1909
sg63
g1895
sg56
(lp1910
g49
(g50
g51
NtRp1911
(dp1912
g54
(dp1913
g62
I4
ssg63
g1907
sg56
(lp1914
S"<Values at 0x22b0030: {'verbose': False, 'ip': '127.0.0.1', 'shutdown_timeout': 5, 'taskbar': False, 'nocron': False, 'pid_filename': 'httpserver.pid', 'maxthreads': None, 'softcron': False, 'server_name': 'Osku-Kannettava', 'bpython': False, 'nogui': False, 'port': 8000, 'extcron': False, 'debuglevel': 30, 'test': None, 'folder': 'C:\\\\Users\\\\Osku\\\\koodaus\\\\web2py', 'config': '', 'import_models': False, 'winservice': '', 'shell': None, 'run': '', 'log_filename': 'httpserver.log', 'args': [''], 'socket_timeout': 5, 'ssl_ca_certificate': None, 'scheduler': None, 'profiler_filename': None, 'ssl_private_key': '', 'password': '<ask>', 'request_queue_size': 5, 'ssl_certificate': '', 'cronjob': False, 'numthreads': None, 'quiet': False, 'interfaces': None, 'minthreads': None, 'timeout': 10, 'plain': False, 'nobanner': False}>"
p1915
asbasbasbag49
(g65
g51
NtRp1916
(dp1917
g54
(dp1918
sg63
g1826
sg56
(lp1919
g49
(g70
g51
NtRp1920
(dp1921
g54
(dp1922
g74
g75
ssg63
g1916
sg56
(lp1923
g868
asbag49
(g70
g51
NtRp1924
(dp1925
g54
(dp1926
g81
g82
ssg63
g1916
sg56
(lp1927
S':'
asbag49
(g70
g51
NtRp1928
(dp1929
g54
(dp1930
sg63
g1916
sg56
(lp1931
g49
(g50
g51
NtRp1932
(dp1933
g54
(dp1934
g62
I4
ssg63
g1928
sg56
(lp1935
S'set([])'
p1936
asbasbasbag49
(g65
g51
NtRp1937
(dp1938
g54
(dp1939
sg63
g1826
sg56
(lp1940
g49
(g70
g51
NtRp1941
(dp1942
g54
(dp1943
g74
g75
ssg63
g1937
sg56
(lp1944
g890
asbag49
(g70
g51
NtRp1945
(dp1946
g54
(dp1947
g81
g82
ssg63
g1937
sg56
(lp1948
S':'
asbag49
(g70
g51
NtRp1949
(dp1950
g54
(dp1951
sg63
g1937
sg56
(lp1952
g49
(g50
g51
NtRp1953
(dp1954
g54
(dp1955
g62
I4
ssg63
g1949
sg56
(lp1956
g92
asbasbasbag49
(g65
g51
NtRp1957
(dp1958
g54
(dp1959
sg63
g1826
sg56
(lp1960
g49
(g70
g51
NtRp1961
(dp1962
g54
(dp1963
g74
g75
ssg63
g1957
sg56
(lp1964
g911
asbag49
(g70
g51
NtRp1965
(dp1966
g54
(dp1967
g81
g82
ssg63
g1957
sg56
(lp1968
S':'
asbag49
(g70
g51
NtRp1969
(dp1970
g54
(dp1971
sg63
g1957
sg56
(lp1972
g49
(g50
g51
NtRp1973
(dp1974
g54
(dp1975
g62
I4
ssg63
g1969
sg56
(lp1976
g924
asbasbasbag49
(g65
g51
NtRp1977
(dp1978
g54
(dp1979
sg63
g1826
sg56
(lp1980
g49
(g70
g51
NtRp1981
(dp1982
g54
(dp1983
g74
g75
ssg63
g1977
sg56
(lp1984
g1131
asbag49
(g70
g51
NtRp1985
(dp1986
g54
(dp1987
g81
g82
ssg63
g1977
sg56
(lp1988
S':'
asbag49
(g70
g51
NtRp1989
(dp1990
g54
(dp1991
sg63
g1977
sg56
(lp1992
g49
(g50
g51
NtRp1993
(dp1994
g54
(dp1995
g62
I4
ssg63
g1989
sg56
(lp1996
g92
asbasbasbag49
(g65
g51
NtRp1997
(dp1998
g54
(dp1999
sg63
g1826
sg56
(lp2000
g49
(g70
g51
NtRp2001
(dp2002
g54
(dp2003
g74
g75
ssg63
g1997
sg56
(lp2004
g1152
asbag49
(g70
g51
NtRp2005
(dp2006
g54
(dp2007
g81
g82
ssg63
g1997
sg56
(lp2008
S':'
asbag49
(g70
g51
NtRp2009
(dp2010
g54
(dp2011
sg63
g1997
sg56
(lp2012
g49
(g50
g51
NtRp2013
(dp2014
g54
(dp2015
g62
I4
ssg63
g2009
sg56
(lp2016
g92
asbasbasbag49
(g65
g51
NtRp2017
(dp2018
g54
(dp2019
sg63
g1826
sg56
(lp2020
g49
(g70
g51
NtRp2021
(dp2022
g54
(dp2023
g74
g75
ssg63
g2017
sg56
(lp2024
g1390
asbag49
(g70
g51
NtRp2025
(dp2026
g54
(dp2027
g81
g82
ssg63
g2017
sg56
(lp2028
S':'
asbag49
(g70
g51
NtRp2029
(dp2030
g54
(dp2031
sg63
g2017
sg56
(lp2032
g49
(g50
g51
NtRp2033
(dp2034
g54
(dp2035
g62
I4
ssg63
g2029
sg56
(lp2036
g1403
asbasbasbag49
(g65
g51
NtRp2037
(dp2038
g54
(dp2039
sg63
g1826
sg56
(lp2040
g49
(g70
g51
NtRp2041
(dp2042
g54
(dp2043
g74
g75
ssg63
g2037
sg56
(lp2044
g1433
asbag49
(g70
g51
NtRp2045
(dp2046
g54
(dp2047
g81
g82
ssg63
g2037
sg56
(lp2048
S':'
asbag49
(g70
g51
NtRp2049
(dp2050
g54
(dp2051
sg63
g2037
sg56
(lp2052
g49
(g50
g51
NtRp2053
(dp2054
g54
(dp2055
g62
I4
ssg63
g2049
sg56
(lp2056
g49
(g58
g51
NtRp2057
(dp2058
g54
(dp2059
g62
I3
ssg63
Nsg56
(lp2060
g49
(g65
g51
NtRp2061
(dp2062
g54
(dp2063
sg63
g2057
sg56
(lp2064
g49
(g70
g51
NtRp2065
(dp2066
g54
(dp2067
sg63
g2061
sg56
(lp2068
g49
(g50
g51
NtRp2069
(dp2070
g54
(dp2071
g62
I3
ssg63
g2065
sg56
(lp2072
S'1'
asbasbasbag49
(g65
g51
NtRp2073
(dp2074
g54
(dp2075
sg63
g2057
sg56
(lp2076
g49
(g70
g51
NtRp2077
(dp2078
g54
(dp2079
sg63
g2073
sg56
(lp2080
g49
(g50
g51
NtRp2081
(dp2082
g54
(dp2083
g62
I3
ssg63
g2077
sg56
(lp2084
S'99'
p2085
asbasbasbag49
(g65
g51
NtRp2086
(dp2087
g54
(dp2088
sg63
g2057
sg56
(lp2089
g49
(g70
g51
NtRp2090
(dp2091
g54
(dp2092
sg63
g2086
sg56
(lp2093
g49
(g50
g51
NtRp2094
(dp2095
g54
(dp2096
g62
I3
ssg63
g2090
sg56
(lp2097
S'7'
asbasbasbag49
(g65
g51
NtRp2098
(dp2099
g54
(dp2100
sg63
g2057
sg56
(lp2101
g49
(g70
g51
NtRp2102
(dp2103
g54
(dp2104
sg63
g2098
sg56
(lp2105
g49
(g50
g51
NtRp2106
(dp2107
g54
(dp2108
g62
I3
ssg63
g2102
sg56
(lp2109
S'datetime.datetime(2012, 3, 4, 22, 12, 8)'
p2110
asbasbasbag49
(g65
g51
NtRp2111
(dp2112
g54
(dp2113
sg63
g2057
sg56
(lp2114
g49
(g70
g51
NtRp2115
(dp2116
g54
(dp2117
sg63
g2111
sg56
(lp2118
g49
(g50
g51
NtRp2119
(dp2120
g54
(dp2121
g62
I3
ssg63
g2115
sg56
(lp2122
g1512
asbasbasbasbasbasbasbasbasbasbasbag49
(g65
g51
NtRp2123
(dp2124
g54
(dp2125
sg63
g59
sg56
(lp2126
g49
(g70
g51
NtRp2127
(dp2128
g54
(dp2129
g74
g75
ssg63
g2123
sg56
(lp2130
S'is_https'
p2131
asbag49
(g70
g51
NtRp2132
(dp2133
g54
(dp2134
g81
g82
ssg63
g2123
sg56
(lp2135
S':'
asbag49
(g70
g51
NtRp2136
(dp2137
g54
(dp2138
sg63
g2123
sg56
(lp2139
g49
(g50
g51
NtRp2140
(dp2141
g54
(dp2142
g62
I5
ssg63
g2136
sg56
(lp2143
g92
asbasbasbag49
(g65
g51
NtRp2144
(dp2145
g54
(dp2146
sg63
g59
sg56
(lp2147
g49
(g70
g51
NtRp2148
(dp2149
g54
(dp2150
g74
g75
ssg63
g2144
sg56
(lp2151
S'is_local'
p2152
asbag49
(g70
g51
NtRp2153
(dp2154
g54
(dp2155
g81
g82
ssg63
g2144
sg56
(lp2156
S':'
asbag49
(g70
g51
NtRp2157
(dp2158
g54
(dp2159
sg63
g2144
sg56
(lp2160
g49
(g50
g51
NtRp2161
(dp2162
g54
(dp2163
g62
I5
ssg63
g2157
sg56
(lp2164
g1621
asbasbasbag49
(g65
g51
NtRp2165
(dp2166
g54
(dp2167
sg63
g59
sg56
(lp2168
g49
(g70
g51
NtRp2169
(dp2170
g54
(dp2171
g74
g75
ssg63
g2165
sg56
(lp2172
S'is_restful'
p2173
asbag49
(g70
g51
NtRp2174
(dp2175
g54
(dp2176
g81
g82
ssg63
g2165
sg56
(lp2177
S':'
asbag49
(g70
g51
NtRp2178
(dp2179
g54
(dp2180
sg63
g2165
sg56
(lp2181
g49
(g50
g51
NtRp2182
(dp2183
g54
(dp2184
g62
I5
ssg63
g2178
sg56
(lp2185
g92
asbasbasbag49
(g65
g51
NtRp2186
(dp2187
g54
(dp2188
sg63
g59
sg56
(lp2189
g49
(g70
g51
NtRp2190
(dp2191
g54
(dp2192
g74
g75
ssg63
g2186
sg56
(lp2193
S'now'
p2194
asbag49
(g70
g51
NtRp2195
(dp2196
g54
(dp2197
g81
g82
ssg63
g2186
sg56
(lp2198
S':'
asbag49
(g70
g51
NtRp2199
(dp2200
g54
(dp2201
sg63
g2186
sg56
(lp2202
g49
(g50
g51
NtRp2203
(dp2204
g54
(dp2205
g62
I5
ssg63
g2199
sg56
(lp2206
S'datetime.datetime(2012, 7, 6, 22, 54, 12, 811000)'
p2207
asbasbasbag49
(g65
g51
NtRp2208
(dp2209
g54
(dp2210
sg63
g59
sg56
(lp2211
g49
(g70
g51
NtRp2212
(dp2213
g54
(dp2214
g74
g75
ssg63
g2208
sg56
(lp2215
S'post_vars'
p2216
asbag49
(g70
g51
NtRp2217
(dp2218
g54
(dp2219
g81
g82
ssg63
g2208
sg56
(lp2220
S':'
asbag49
(g70
g51
NtRp2221
(dp2222
g54
(dp2223
sg63
g2208
sg56
(lp2224
g49
(g50
g51
NtRp2225
(dp2226
g54
(dp2227
g62
I5
ssg63
g2221
sg56
(lp2228
g49
(g58
g51
NtRp2229
(dp2230
g54
(dp2231
g62
I4
ssg63
Nsg56
(lp2232
sbasbasbasbag49
(g65
g51
NtRp2233
(dp2234
g54
(dp2235
sg63
g59
sg56
(lp2236
g49
(g70
g51
NtRp2237
(dp2238
g54
(dp2239
g74
g75
ssg63
g2233
sg56
(lp2240
S'raw_args'
p2241
asbag49
(g70
g51
NtRp2242
(dp2243
g54
(dp2244
g81
g82
ssg63
g2233
sg56
(lp2245
S':'
asbag49
(g70
g51
NtRp2246
(dp2247
g54
(dp2248
sg63
g2233
sg56
(lp2249
g49
(g50
g51
NtRp2250
(dp2251
g54
(dp2252
g62
I5
ssg63
g2246
sg56
(lp2253
S'5'
asbasbasbag49
(g65
g51
NtRp2254
(dp2255
g54
(dp2256
sg63
g59
sg56
(lp2257
g49
(g70
g51
NtRp2258
(dp2259
g54
(dp2260
g74
g75
ssg63
g2254
sg56
(lp2261
S'url'
p2262
asbag49
(g70
g51
NtRp2263
(dp2264
g54
(dp2265
g81
g82
ssg63
g2254
sg56
(lp2266
S':'
asbag49
(g70
g51
NtRp2267
(dp2268
g54
(dp2269
sg63
g2254
sg56
(lp2270
g49
(g50
g51
NtRp2271
(dp2272
g54
(dp2273
g62
I5
ssg63
g2267
sg56
(lp2274
S'/sitsit/default/sitsit/5'
p2275
asbasbasbag49
(g65
g51
NtRp2276
(dp2277
g54
(dp2278
sg63
g59
sg56
(lp2279
g49
(g70
g51
NtRp2280
(dp2281
g54
(dp2282
g74
g75
ssg63
g2276
sg56
(lp2283
S'utcnow'
p2284
asbag49
(g70
g51
NtRp2285
(dp2286
g54
(dp2287
g81
g82
ssg63
g2276
sg56
(lp2288
S':'
asbag49
(g70
g51
NtRp2289
(dp2290
g54
(dp2291
sg63
g2276
sg56
(lp2292
g49
(g50
g51
NtRp2293
(dp2294
g54
(dp2295
g62
I5
ssg63
g2289
sg56
(lp2296
S'datetime.datetime(2012, 7, 6, 20, 54, 12, 811000)'
p2297
asbasbasbag49
(g65
g51
NtRp2298
(dp2299
g54
(dp2300
sg63
g59
sg56
(lp2301
g49
(g70
g51
NtRp2302
(dp2303
g54
(dp2304
g74
g75
ssg63
g2298
sg56
(lp2305
S'uuid'
p2306
asbag49
(g70
g51
NtRp2307
(dp2308
g54
(dp2309
g81
g82
ssg63
g2298
sg56
(lp2310
S':'
asbag49
(g70
g51
NtRp2311
(dp2312
g54
(dp2313
sg63
g2298
sg56
(lp2314
g49
(g50
g51
NtRp2315
(dp2316
g54
(dp2317
g62
I5
ssg63
g2311
sg56
(lp2318
S'sitsit/127.0.0.1.2012-07-06.22-54-12.df0af675-ad03-49d7-8644-69ec77565bae'
p2319
asbasbasbag49
(g65
g51
NtRp2320
(dp2321
g54
(dp2322
sg63
g59
sg56
(lp2323
g49
(g70
g51
NtRp2324
(dp2325
g54
(dp2326
g74
g75
ssg63
g2320
sg56
(lp2327
S'vars'
p2328
asbag49
(g70
g51
NtRp2329
(dp2330
g54
(dp2331
g81
g82
ssg63
g2320
sg56
(lp2332
S':'
asbag49
(g70
g51
NtRp2333
(dp2334
g54
(dp2335
sg63
g2320
sg56
(lp2336
g49
(g50
g51
NtRp2337
(dp2338
g54
(dp2339
g62
I5
ssg63
g2333
sg56
(lp2340
g49
(g58
g51
NtRp2341
(dp2342
g54
(dp2343
g62
I4
ssg63
Nsg56
(lp2344
sbasbasbasbag49
(g65
g51
NtRp2345
(dp2346
g54
(dp2347
sg63
g59
sg56
(lp2348
g49
(g70
g51
NtRp2349
(dp2350
g54
(dp2351
g74
g75
ssg63
g2345
sg56
(lp2352
S'wsgi'
p2353
asbag49
(g70
g51
NtRp2354
(dp2355
g54
(dp2356
g81
g82
ssg63
g2345
sg56
(lp2357
S':'
asbag49
(g70
g51
NtRp2358
(dp2359
g54
(dp2360
sg63
g2345
sg56
(lp2361
g49
(g50
g51
NtRp2362
(dp2363
g54
(dp2364
g62
I5
ssg63
g2358
sg56
(lp2365
g49
(g58
g51
NtRp2366
(dp2367
g54
(dp2368
g62
I4
ssg63
Nsg56
(lp2369
g49
(g65
g51
NtRp2370
(dp2371
g54
(dp2372
sg63
g2366
sg56
(lp2373
g49
(g70
g51
NtRp2374
(dp2375
g54
(dp2376
g74
g75
ssg63
g2370
sg56
(lp2377
S'environ'
p2378
asbag49
(g70
g51
NtRp2379
(dp2380
g54
(dp2381
g81
g82
ssg63
g2370
sg56
(lp2382
S':'
asbag49
(g70
g51
NtRp2383
(dp2384
g54
(dp2385
sg63
g2370
sg56
(lp2386
g49
(g50
g51
NtRp2387
(dp2388
g54
(dp2389
g62
I4
ssg63
g2383
sg56
(lp2390
g49
(g58
g51
NtRp2391
(dp2392
g54
(dp2393
g62
I3
ssg63
Nsg56
(lp2394
g49
(g65
g51
NtRp2395
(dp2396
g54
(dp2397
sg63
g2391
sg56
(lp2398
g49
(g70
g51
NtRp2399
(dp2400
g54
(dp2401
g74
g75
ssg63
g2395
sg56
(lp2402
S'HTTP_ACCEPT'
p2403
asbag49
(g70
g51
NtRp2404
(dp2405
g54
(dp2406
g81
g82
ssg63
g2395
sg56
(lp2407
S':'
asbag49
(g70
g51
NtRp2408
(dp2409
g54
(dp2410
sg63
g2395
sg56
(lp2411
g49
(g50
g51
NtRp2412
(dp2413
g54
(dp2414
g62
I3
ssg63
g2408
sg56
(lp2415
g946
asbasbasbag49
(g65
g51
NtRp2416
(dp2417
g54
(dp2418
sg63
g2391
sg56
(lp2419
g49
(g70
g51
NtRp2420
(dp2421
g54
(dp2422
g74
g75
ssg63
g2416
sg56
(lp2423
S'HTTP_ACCEPT_CHARSET'
p2424
asbag49
(g70
g51
NtRp2425
(dp2426
g54
(dp2427
g81
g82
ssg63
g2416
sg56
(lp2428
S':'
asbag49
(g70
g51
NtRp2429
(dp2430
g54
(dp2431
sg63
g2416
sg56
(lp2432
g49
(g50
g51
NtRp2433
(dp2434
g54
(dp2435
g62
I3
ssg63
g2429
sg56
(lp2436
g968
asbasbasbag49
(g65
g51
NtRp2437
(dp2438
g54
(dp2439
sg63
g2391
sg56
(lp2440
g49
(g70
g51
NtRp2441
(dp2442
g54
(dp2443
g74
g75
ssg63
g2437
sg56
(lp2444
S'HTTP_ACCEPT_ENCODING'
p2445
asbag49
(g70
g51
NtRp2446
(dp2447
g54
(dp2448
g81
g82
ssg63
g2437
sg56
(lp2449
S':'
asbag49
(g70
g51
NtRp2450
(dp2451
g54
(dp2452
sg63
g2437
sg56
(lp2453
g49
(g50
g51
NtRp2454
(dp2455
g54
(dp2456
g62
I3
ssg63
g2450
sg56
(lp2457
g990
asbasbasbag49
(g65
g51
NtRp2458
(dp2459
g54
(dp2460
sg63
g2391
sg56
(lp2461
g49
(g70
g51
NtRp2462
(dp2463
g54
(dp2464
g74
g75
ssg63
g2458
sg56
(lp2465
S'HTTP_ACCEPT_LANGUAGE'
p2466
asbag49
(g70
g51
NtRp2467
(dp2468
g54
(dp2469
g81
g82
ssg63
g2458
sg56
(lp2470
S':'
asbag49
(g70
g51
NtRp2471
(dp2472
g54
(dp2473
sg63
g2458
sg56
(lp2474
g49
(g50
g51
NtRp2475
(dp2476
g54
(dp2477
g62
I3
ssg63
g2471
sg56
(lp2478
g1012
asbasbasbag49
(g65
g51
NtRp2479
(dp2480
g54
(dp2481
sg63
g2391
sg56
(lp2482
g49
(g70
g51
NtRp2483
(dp2484
g54
(dp2485
g74
g75
ssg63
g2479
sg56
(lp2486
S'HTTP_CACHE_CONTROL'
p2487
asbag49
(g70
g51
NtRp2488
(dp2489
g54
(dp2490
g81
g82
ssg63
g2479
sg56
(lp2491
S':'
asbag49
(g70
g51
NtRp2492
(dp2493
g54
(dp2494
sg63
g2479
sg56
(lp2495
g49
(g50
g51
NtRp2496
(dp2497
g54
(dp2498
g62
I3
ssg63
g2492
sg56
(lp2499
g1034
asbasbasbag49
(g65
g51
NtRp2500
(dp2501
g54
(dp2502
sg63
g2391
sg56
(lp2503
g49
(g70
g51
NtRp2504
(dp2505
g54
(dp2506
g74
g75
ssg63
g2500
sg56
(lp2507
S'HTTP_CONNECTION'
p2508
asbag49
(g70
g51
NtRp2509
(dp2510
g54
(dp2511
g81
g82
ssg63
g2500
sg56
(lp2512
S':'
asbag49
(g70
g51
NtRp2513
(dp2514
g54
(dp2515
sg63
g2500
sg56
(lp2516
g49
(g50
g51
NtRp2517
(dp2518
g54
(dp2519
g62
I3
ssg63
g2513
sg56
(lp2520
g1056
asbasbasbag49
(g65
g51
NtRp2521
(dp2522
g54
(dp2523
sg63
g2391
sg56
(lp2524
g49
(g70
g51
NtRp2525
(dp2526
g54
(dp2527
g74
g75
ssg63
g2521
sg56
(lp2528
S'HTTP_COOKIE'
p2529
asbag49
(g70
g51
NtRp2530
(dp2531
g54
(dp2532
g81
g82
ssg63
g2521
sg56
(lp2533
S':'
asbag49
(g70
g51
NtRp2534
(dp2535
g54
(dp2536
sg63
g2521
sg56
(lp2537
g49
(g50
g51
NtRp2538
(dp2539
g54
(dp2540
g62
I3
ssg63
g2534
sg56
(lp2541
g1078
asbasbasbag49
(g65
g51
NtRp2542
(dp2543
g54
(dp2544
sg63
g2391
sg56
(lp2545
g49
(g70
g51
NtRp2546
(dp2547
g54
(dp2548
g74
g75
ssg63
g2542
sg56
(lp2549
S'HTTP_HOST'
p2550
asbag49
(g70
g51
NtRp2551
(dp2552
g54
(dp2553
g81
g82
ssg63
g2542
sg56
(lp2554
S':'
asbag49
(g70
g51
NtRp2555
(dp2556
g54
(dp2557
sg63
g2542
sg56
(lp2558
g49
(g50
g51
NtRp2559
(dp2560
g54
(dp2561
g62
I3
ssg63
g2555
sg56
(lp2562
g1100
asbasbasbag49
(g65
g51
NtRp2563
(dp2564
g54
(dp2565
sg63
g2391
sg56
(lp2566
g49
(g70
g51
NtRp2567
(dp2568
g54
(dp2569
g74
g75
ssg63
g2563
sg56
(lp2570
S'HTTP_USER_AGENT'
p2571
asbag49
(g70
g51
NtRp2572
(dp2573
g54
(dp2574
g81
g82
ssg63
g2563
sg56
(lp2575
S':'
asbag49
(g70
g51
NtRp2576
(dp2577
g54
(dp2578
sg63
g2563
sg56
(lp2579
g49
(g50
g51
NtRp2580
(dp2581
g54
(dp2582
g62
I3
ssg63
g2576
sg56
(lp2583
g1122
asbasbasbag49
(g65
g51
NtRp2584
(dp2585
g54
(dp2586
sg63
g2391
sg56
(lp2587
g49
(g70
g51
NtRp2588
(dp2589
g54
(dp2590
g74
g75
ssg63
g2584
sg56
(lp2591
S'PATH_INFO'
p2592
asbag49
(g70
g51
NtRp2593
(dp2594
g54
(dp2595
g81
g82
ssg63
g2584
sg56
(lp2596
S':'
asbag49
(g70
g51
NtRp2597
(dp2598
g54
(dp2599
sg63
g2584
sg56
(lp2600
g49
(g50
g51
NtRp2601
(dp2602
g54
(dp2603
g62
I3
ssg63
g2597
sg56
(lp2604
g1186
asbasbasbag49
(g65
g51
NtRp2605
(dp2606
g54
(dp2607
sg63
g2391
sg56
(lp2608
g49
(g70
g51
NtRp2609
(dp2610
g54
(dp2611
g74
g75
ssg63
g2605
sg56
(lp2612
S'QUERY_STRING'
p2613
asbag49
(g70
g51
NtRp2614
(dp2615
g54
(dp2616
g81
g82
ssg63
g2605
sg56
(lp2617
S':'
asbag49
(g70
g51
NtRp2618
(dp2619
g54
(dp2620
sg63
g2605
sg56
(lp2621
g49
(g50
g51
NtRp2622
(dp2623
g54
(dp2624
g62
I3
ssg63
g2618
sg56
(lp2625
S''
asbasbasbag49
(g65
g51
NtRp2626
(dp2627
g54
(dp2628
sg63
g2391
sg56
(lp2629
g49
(g70
g51
NtRp2630
(dp2631
g54
(dp2632
g74
g75
ssg63
g2626
sg56
(lp2633
S'REMOTE_ADDR'
p2634
asbag49
(g70
g51
NtRp2635
(dp2636
g54
(dp2637
g81
g82
ssg63
g2626
sg56
(lp2638
S':'
asbag49
(g70
g51
NtRp2639
(dp2640
g54
(dp2641
sg63
g2626
sg56
(lp2642
g49
(g50
g51
NtRp2643
(dp2644
g54
(dp2645
g62
I3
ssg63
g2639
sg56
(lp2646
g194
asbasbasbag49
(g65
g51
NtRp2647
(dp2648
g54
(dp2649
sg63
g2391
sg56
(lp2650
g49
(g70
g51
NtRp2651
(dp2652
g54
(dp2653
g74
g75
ssg63
g2647
sg56
(lp2654
S'REMOTE_PORT'
p2655
asbag49
(g70
g51
NtRp2656
(dp2657
g54
(dp2658
g81
g82
ssg63
g2647
sg56
(lp2659
S':'
asbag49
(g70
g51
NtRp2660
(dp2661
g54
(dp2662
sg63
g2647
sg56
(lp2663
g49
(g50
g51
NtRp2664
(dp2665
g54
(dp2666
g62
I3
ssg63
g2660
sg56
(lp2667
g1250
asbasbasbag49
(g65
g51
NtRp2668
(dp2669
g54
(dp2670
sg63
g2391
sg56
(lp2671
g49
(g70
g51
NtRp2672
(dp2673
g54
(dp2674
g74
g75
ssg63
g2668
sg56
(lp2675
S'REQUEST_METHOD'
p2676
asbag49
(g70
g51
NtRp2677
(dp2678
g54
(dp2679
g81
g82
ssg63
g2668
sg56
(lp2680
S':'
asbag49
(g70
g51
NtRp2681
(dp2682
g54
(dp2683
sg63
g2668
sg56
(lp2684
g49
(g50
g51
NtRp2685
(dp2686
g54
(dp2687
g62
I3
ssg63
g2681
sg56
(lp2688
g1272
asbasbasbag49
(g65
g51
NtRp2689
(dp2690
g54
(dp2691
sg63
g2391
sg56
(lp2692
g49
(g70
g51
NtRp2693
(dp2694
g54
(dp2695
g74
g75
ssg63
g2689
sg56
(lp2696
S'SCRIPT_NAME'
p2697
asbag49
(g70
g51
NtRp2698
(dp2699
g54
(dp2700
g81
g82
ssg63
g2689
sg56
(lp2701
S':'
asbag49
(g70
g51
NtRp2702
(dp2703
g54
(dp2704
sg63
g2689
sg56
(lp2705
g49
(g50
g51
NtRp2706
(dp2707
g54
(dp2708
g62
I3
ssg63
g2702
sg56
(lp2709
S''
asbasbasbag49
(g65
g51
NtRp2710
(dp2711
g54
(dp2712
sg63
g2391
sg56
(lp2713
g49
(g70
g51
NtRp2714
(dp2715
g54
(dp2716
g74
g75
ssg63
g2710
sg56
(lp2717
S'SERVER_NAME'
p2718
asbag49
(g70
g51
NtRp2719
(dp2720
g54
(dp2721
g81
g82
ssg63
g2710
sg56
(lp2722
S':'
asbag49
(g70
g51
NtRp2723
(dp2724
g54
(dp2725
sg63
g2710
sg56
(lp2726
g49
(g50
g51
NtRp2727
(dp2728
g54
(dp2729
g62
I3
ssg63
g2723
sg56
(lp2730
g1315
asbasbasbag49
(g65
g51
NtRp2731
(dp2732
g54
(dp2733
sg63
g2391
sg56
(lp2734
g49
(g70
g51
NtRp2735
(dp2736
g54
(dp2737
g74
g75
ssg63
g2731
sg56
(lp2738
S'SERVER_PORT'
p2739
asbag49
(g70
g51
NtRp2740
(dp2741
g54
(dp2742
g81
g82
ssg63
g2731
sg56
(lp2743
S':'
asbag49
(g70
g51
NtRp2744
(dp2745
g54
(dp2746
sg63
g2731
sg56
(lp2747
g49
(g50
g51
NtRp2748
(dp2749
g54
(dp2750
g62
I3
ssg63
g2744
sg56
(lp2751
g1337
asbasbasbag49
(g65
g51
NtRp2752
(dp2753
g54
(dp2754
sg63
g2391
sg56
(lp2755
g49
(g70
g51
NtRp2756
(dp2757
g54
(dp2758
g74
g75
ssg63
g2752
sg56
(lp2759
S'SERVER_PROTOCOL'
p2760
asbag49
(g70
g51
NtRp2761
(dp2762
g54
(dp2763
g81
g82
ssg63
g2752
sg56
(lp2764
S':'
asbag49
(g70
g51
NtRp2765
(dp2766
g54
(dp2767
sg63
g2752
sg56
(lp2768
g49
(g50
g51
NtRp2769
(dp2770
g54
(dp2771
g62
I3
ssg63
g2765
sg56
(lp2772
g1359
asbasbasbag49
(g65
g51
NtRp2773
(dp2774
g54
(dp2775
sg63
g2391
sg56
(lp2776
g49
(g70
g51
NtRp2777
(dp2778
g54
(dp2779
g74
g75
ssg63
g2773
sg56
(lp2780
S'SERVER_SOFTWARE'
p2781
asbag49
(g70
g51
NtRp2782
(dp2783
g54
(dp2784
g81
g82
ssg63
g2773
sg56
(lp2785
S':'
asbag49
(g70
g51
NtRp2786
(dp2787
g54
(dp2788
sg63
g2773
sg56
(lp2789
g49
(g50
g51
NtRp2790
(dp2791
g54
(dp2792
g62
I3
ssg63
g2786
sg56
(lp2793
g1381
asbasbasbag49
(g65
g51
NtRp2794
(dp2795
g54
(dp2796
sg63
g2391
sg56
(lp2797
g49
(g70
g51
NtRp2798
(dp2799
g54
(dp2800
g74
g75
ssg63
g2794
sg56
(lp2801
S'wsgi.errors'
p2802
asbag49
(g70
g51
NtRp2803
(dp2804
g54
(dp2805
g81
g82
ssg63
g2794
sg56
(lp2806
S':'
asbag49
(g70
g51
NtRp2807
(dp2808
g54
(dp2809
sg63
g2794
sg56
(lp2810
g49
(g50
g51
NtRp2811
(dp2812
g54
(dp2813
g62
I3
ssg63
g2807
sg56
(lp2814
S"<open file '<stderr>', mode 'w' at 0x014D00B0>"
p2815
asbasbasbag49
(g65
g51
NtRp2816
(dp2817
g54
(dp2818
sg63
g2391
sg56
(lp2819
g49
(g70
g51
NtRp2820
(dp2821
g54
(dp2822
g74
g75
ssg63
g2816
sg56
(lp2823
S'wsgi.file_wrapper'
p2824
asbag49
(g70
g51
NtRp2825
(dp2826
g54
(dp2827
g81
g82
ssg63
g2816
sg56
(lp2828
S':'
asbag49
(g70
g51
NtRp2829
(dp2830
g54
(dp2831
sg63
g2816
sg56
(lp2832
g49
(g50
g51
NtRp2833
(dp2834
g54
(dp2835
g62
I3
ssg63
g2829
sg56
(lp2836
S'<class wsgiref.util.FileWrapper at 0x020441E0>'
p2837
asbasbasbag49
(g65
g51
NtRp2838
(dp2839
g54
(dp2840
sg63
g2391
sg56
(lp2841
g49
(g70
g51
NtRp2842
(dp2843
g54
(dp2844
g74
g75
ssg63
g2838
sg56
(lp2845
S'wsgi.input'
p2846
asbag49
(g70
g51
NtRp2847
(dp2848
g54
(dp2849
g81
g82
ssg63
g2838
sg56
(lp2850
S':'
asbag49
(g70
g51
NtRp2851
(dp2852
g54
(dp2853
sg63
g2838
sg56
(lp2854
g49
(g50
g51
NtRp2855
(dp2856
g54
(dp2857
g62
I3
ssg63
g2851
sg56
(lp2858
S'<cStringIO.StringO object at 0x0560A580>'
p2859
asbasbasbag49
(g65
g51
NtRp2860
(dp2861
g54
(dp2862
sg63
g2391
sg56
(lp2863
g49
(g70
g51
NtRp2864
(dp2865
g54
(dp2866
g74
g75
ssg63
g2860
sg56
(lp2867
S'wsgi.multiprocess'
p2868
asbag49
(g70
g51
NtRp2869
(dp2870
g54
(dp2871
g81
g82
ssg63
g2860
sg56
(lp2872
S':'
asbag49
(g70
g51
NtRp2873
(dp2874
g54
(dp2875
sg63
g2860
sg56
(lp2876
g49
(g50
g51
NtRp2877
(dp2878
g54
(dp2879
g62
I3
ssg63
g2873
sg56
(lp2880
g92
asbasbasbag49
(g65
g51
NtRp2881
(dp2882
g54
(dp2883
sg63
g2391
sg56
(lp2884
g49
(g70
g51
NtRp2885
(dp2886
g54
(dp2887
g74
g75
ssg63
g2881
sg56
(lp2888
S'wsgi.multithread'
p2889
asbag49
(g70
g51
NtRp2890
(dp2891
g54
(dp2892
g81
g82
ssg63
g2881
sg56
(lp2893
S':'
asbag49
(g70
g51
NtRp2894
(dp2895
g54
(dp2896
sg63
g2881
sg56
(lp2897
g49
(g50
g51
NtRp2898
(dp2899
g54
(dp2900
g62
I3
ssg63
g2894
sg56
(lp2901
g1621
asbasbasbag49
(g65
g51
NtRp2902
(dp2903
g54
(dp2904
sg63
g2391
sg56
(lp2905
g49
(g70
g51
NtRp2906
(dp2907
g54
(dp2908
g74
g75
ssg63
g2902
sg56
(lp2909
S'wsgi.run_once'
p2910
asbag49
(g70
g51
NtRp2911
(dp2912
g54
(dp2913
g81
g82
ssg63
g2902
sg56
(lp2914
S':'
asbag49
(g70
g51
NtRp2915
(dp2916
g54
(dp2917
sg63
g2902
sg56
(lp2918
g49
(g50
g51
NtRp2919
(dp2920
g54
(dp2921
g62
I3
ssg63
g2915
sg56
(lp2922
g92
asbasbasbag49
(g65
g51
NtRp2923
(dp2924
g54
(dp2925
sg63
g2391
sg56
(lp2926
g49
(g70
g51
NtRp2927
(dp2928
g54
(dp2929
g74
g75
ssg63
g2923
sg56
(lp2930
S'wsgi.url_scheme'
p2931
asbag49
(g70
g51
NtRp2932
(dp2933
g54
(dp2934
g81
g82
ssg63
g2923
sg56
(lp2935
S':'
asbag49
(g70
g51
NtRp2936
(dp2937
g54
(dp2938
sg63
g2923
sg56
(lp2939
g49
(g50
g51
NtRp2940
(dp2941
g54
(dp2942
g62
I3
ssg63
g2936
sg56
(lp2943
g1664
asbasbasbag49
(g65
g51
NtRp2944
(dp2945
g54
(dp2946
sg63
g2391
sg56
(lp2947
g49
(g70
g51
NtRp2948
(dp2949
g54
(dp2950
g74
g75
ssg63
g2944
sg56
(lp2951
S'wsgi.version'
p2952
asbag49
(g70
g51
NtRp2953
(dp2954
g54
(dp2955
g81
g82
ssg63
g2944
sg56
(lp2956
S':'
asbag49
(g70
g51
NtRp2957
(dp2958
g54
(dp2959
sg63
g2944
sg56
(lp2960
g49
(g50
g51
NtRp2961
(dp2962
g54
(dp2963
g62
I3
ssg63
g2957
sg56
(lp2964
S'1'
asbasbasbasbasbasbasbasbasbasbasbasbasbsS'frames'
p2965
(lp2966
(dp2967
S'file'
p2968
S'C:\\Users\\Osku\\koodaus\\web2py\\gluon\\restricted.py'
p2969
sS'dump'
p2970
(dp2971
sS'lnum'
p2972
I205
sS'lines'
p2973
(dp2974
sS'call'
p2975
S"(code='# -*- coding: utf-8 -*-\\n# this file is released ...rud())\\n\\n\\nresponse._vars=response._caller(sitsit)\\n', environment={'A': <class 'gluon.html.A'>, 'Auth': <class 'gluon.tools.Auth'>, 'B': <class 'gluon.html.B'>, 'BEAUTIFY': <class 'gluon.html.BEAUTIFY'>, 'BODY': <class 'gluon.html.BODY'>, 'BR': <class 'gluon.html.BR'>, 'BUTTON': <class 'gluon.html.BUTTON'>, 'CAT': <class 'gluon.html.CAT'>, 'CENTER': <class 'gluon.html.CENTER'>, 'CLEANUP': <class 'gluon.validators.CLEANUP'>, ...}, layer=r'C:\\Users\\Osku\\koodaus\\web2py\\applications\\sitsit\\controllers/default.py')"
p2976
sS'func'
p2977
S'restricted'
p2978
sa(dp2979
g2968
S'C:\\Users\\Osku\\koodaus\\web2py\\applications\\sitsit\\controllers\\default.py'
p2980
sg2970
(dp2981
sg2972
I82
sg2973
(dp2982
I71
S'    http://..../[app]/default/data/delete/[table]/[id]'
p2983
sI72
S'    http://..../[app]/default/data/select/[table]'
p2984
sI73
S'    http://..../[app]/default/data/search/[table]'
p2985
sI74
S'    but URLs must be signed, i.e. linked with'
p2986
sI75
S"      A('table',_href=URL('data/tables',user_signature=True))"
p2987
sI76
S'    or with the signed load operator'
p2988
sI77
S"      LOAD('default','data.load',args='tables',ajax=True,user_signature=True)"
p2989
sI78
S'    """'
p2990
sI79
S'    return dict(form=crud())'
p2991
sI80
S''
ssg2975
S'()'
p2992
sg2977
S'<module>'
p2993
sa(dp2994
g2968
S'C:\\Users\\Osku\\koodaus\\web2py\\gluon\\globals.py'
p2995
sg2970
(dp2996
sg2972
I173
sg2973
(dp2997
sg2975
S'(f=<function sitsit at 0x05688270>)'
p2998
sg2977
S'<lambda>'
p2999
sa(dp3000
g2968
S'C:\\Users\\Osku\\koodaus\\web2py\\applications\\sitsit\\controllers\\default.py'
p3001
sg2970
(dp3002
sg2972
I27
sg2973
(dp3003
I22
S'\tif len(request.args) == 0:'
p3004
sI23
S'\t\treturn dict()'
p3005
sI24
S'\tif len(request.args):'
p3006
sI25
S'\t\tsitsiID = request.args[0]'
p3007
sI26
S'\t\tsitsit = db.party[sitsiID]'
p3008
sI27
S'\t\treturn dict(sitsit.as_dict())'
p3009
sI28
S''
sI29
S'def user():'
p3010
sI30
S'    """'
p3011
sI31
S'    exposes:'
p3012
ssg2975
S'()'
p3013
sg2977
S'sitsit'
p3014
sasS'pyver'
p3015
S'Python 2.5.4: C:\\Users\\Osku\\koodaus\\web2py\\web2py.exe'
p3016
sS'session'
p3017
g49
(g50
g51
NtRp3018
(dp3019
g54
(dp3020
sg56
(lp3021
g49
(g58
g51
NtRp3022
(dp3023
g54
(dp3024
g62
I5
ssg63
Nsg56
(lp3025
g49
(g65
g51
NtRp3026
(dp3027
g54
(dp3028
sg63
g3022
sg56
(lp3029
g49
(g70
g51
NtRp3030
(dp3031
g54
(dp3032
g74
g75
ssg63
g3026
sg56
(lp3033
S'auth'
p3034
asbag49
(g70
g51
NtRp3035
(dp3036
g54
(dp3037
g81
g82
ssg63
g3026
sg56
(lp3038
S':'
asbag49
(g70
g51
NtRp3039
(dp3040
g54
(dp3041
sg63
g3026
sg56
(lp3042
g49
(g50
g51
NtRp3043
(dp3044
g54
(dp3045
g62
I5
ssg63
g3039
sg56
(lp3046
g49
(g58
g51
NtRp3047
(dp3048
g54
(dp3049
g62
I4
ssg63
Nsg56
(lp3050
g49
(g65
g51
NtRp3051
(dp3052
g54
(dp3053
sg63
g3047
sg56
(lp3054
g49
(g70
g51
NtRp3055
(dp3056
g54
(dp3057
g74
g75
ssg63
g3051
sg56
(lp3058
S'expiration'
p3059
asbag49
(g70
g51
NtRp3060
(dp3061
g54
(dp3062
g81
g82
ssg63
g3051
sg56
(lp3063
S':'
asbag49
(g70
g51
NtRp3064
(dp3065
g54
(dp3066
sg63
g3051
sg56
(lp3067
g49
(g50
g51
NtRp3068
(dp3069
g54
(dp3070
g62
I4
ssg63
g3064
sg56
(lp3071
S'3600'
p3072
asbasbasbag49
(g65
g51
NtRp3073
(dp3074
g54
(dp3075
sg63
g3047
sg56
(lp3076
g49
(g70
g51
NtRp3077
(dp3078
g54
(dp3079
g74
g75
ssg63
g3073
sg56
(lp3080
S'hmac_key'
p3081
asbag49
(g70
g51
NtRp3082
(dp3083
g54
(dp3084
g81
g82
ssg63
g3073
sg56
(lp3085
S':'
asbag49
(g70
g51
NtRp3086
(dp3087
g54
(dp3088
sg63
g3073
sg56
(lp3089
g49
(g50
g51
NtRp3090
(dp3091
g54
(dp3092
g62
I4
ssg63
g3086
sg56
(lp3093
S'871ae63d-f3e0-499f-bd79-a2b724d0a3d4'
p3094
asbasbasbag49
(g65
g51
NtRp3095
(dp3096
g54
(dp3097
sg63
g3047
sg56
(lp3098
g49
(g70
g51
NtRp3099
(dp3100
g54
(dp3101
g74
g75
ssg63
g3095
sg56
(lp3102
S'last_visit'
p3103
asbag49
(g70
g51
NtRp3104
(dp3105
g54
(dp3106
g81
g82
ssg63
g3095
sg56
(lp3107
S':'
asbag49
(g70
g51
NtRp3108
(dp3109
g54
(dp3110
sg63
g3095
sg56
(lp3111
g49
(g50
g51
NtRp3112
(dp3113
g54
(dp3114
g62
I4
ssg63
g3108
sg56
(lp3115
S'datetime.datetime(2012, 7, 6, 22, 53, 17, 533000)'
p3116
asbasbasbag49
(g65
g51
NtRp3117
(dp3118
g54
(dp3119
sg63
g3047
sg56
(lp3120
g49
(g70
g51
NtRp3121
(dp3122
g54
(dp3123
g74
g75
ssg63
g3117
sg56
(lp3124
S'user'
p3125
asbag49
(g70
g51
NtRp3126
(dp3127
g54
(dp3128
g81
g82
ssg63
g3117
sg56
(lp3129
S':'
asbag49
(g70
g51
NtRp3130
(dp3131
g54
(dp3132
sg63
g3117
sg56
(lp3133
g49
(g50
g51
NtRp3134
(dp3135
g54
(dp3136
g62
I4
ssg63
g3130
sg56
(lp3137
g49
(g58
g51
NtRp3138
(dp3139
g54
(dp3140
g62
I3
ssg63
Nsg56
(lp3141
g49
(g65
g51
NtRp3142
(dp3143
g54
(dp3144
sg63
g3138
sg56
(lp3145
g49
(g70
g51
NtRp3146
(dp3147
g54
(dp3148
g74
g75
ssg63
g3142
sg56
(lp3149
S'birthdate'
p3150
asbag49
(g70
g51
NtRp3151
(dp3152
g54
(dp3153
g81
g82
ssg63
g3142
sg56
(lp3154
S':'
asbag49
(g70
g51
NtRp3155
(dp3156
g54
(dp3157
sg63
g3142
sg56
(lp3158
g49
(g50
g51
NtRp3159
(dp3160
g54
(dp3161
g62
I3
ssg63
g3155
sg56
(lp3162
S'None'
p3163
asbasbasbag49
(g65
g51
NtRp3164
(dp3165
g54
(dp3166
sg63
g3138
sg56
(lp3167
g49
(g70
g51
NtRp3168
(dp3169
g54
(dp3170
g74
g75
ssg63
g3164
sg56
(lp3171
S'email'
p3172
asbag49
(g70
g51
NtRp3173
(dp3174
g54
(dp3175
g81
g82
ssg63
g3164
sg56
(lp3176
S':'
asbag49
(g70
g51
NtRp3177
(dp3178
g54
(dp3179
sg63
g3164
sg56
(lp3180
g49
(g50
g51
NtRp3181
(dp3182
g54
(dp3183
g62
I3
ssg63
g3177
sg56
(lp3184
S'oskari.petas@gmail.com'
p3185
asbasbasbag49
(g65
g51
NtRp3186
(dp3187
g54
(dp3188
sg63
g3138
sg56
(lp3189
g49
(g70
g51
NtRp3190
(dp3191
g54
(dp3192
g74
g75
ssg63
g3186
sg56
(lp3193
S'first_name'
p3194
asbag49
(g70
g51
NtRp3195
(dp3196
g54
(dp3197
g81
g82
ssg63
g3186
sg56
(lp3198
S':'
asbag49
(g70
g51
NtRp3199
(dp3200
g54
(dp3201
sg63
g3186
sg56
(lp3202
g49
(g50
g51
NtRp3203
(dp3204
g54
(dp3205
g62
I3
ssg63
g3199
sg56
(lp3206
S'Oskari'
p3207
asbasbasbag49
(g65
g51
NtRp3208
(dp3209
g54
(dp3210
sg63
g3138
sg56
(lp3211
g49
(g70
g51
NtRp3212
(dp3213
g54
(dp3214
g74
g75
ssg63
g3208
sg56
(lp3215
S'id'
p3216
asbag49
(g70
g51
NtRp3217
(dp3218
g54
(dp3219
g81
g82
ssg63
g3208
sg56
(lp3220
S':'
asbag49
(g70
g51
NtRp3221
(dp3222
g54
(dp3223
sg63
g3208
sg56
(lp3224
g49
(g50
g51
NtRp3225
(dp3226
g54
(dp3227
g62
I3
ssg63
g3221
sg56
(lp3228
S'1'
asbasbasbag49
(g65
g51
NtRp3229
(dp3230
g54
(dp3231
sg63
g3138
sg56
(lp3232
g49
(g70
g51
NtRp3233
(dp3234
g54
(dp3235
g74
g75
ssg63
g3229
sg56
(lp3236
S'last_name'
p3237
asbag49
(g70
g51
NtRp3238
(dp3239
g54
(dp3240
g81
g82
ssg63
g3229
sg56
(lp3241
S':'
asbag49
(g70
g51
NtRp3242
(dp3243
g54
(dp3244
sg63
g3229
sg56
(lp3245
g49
(g50
g51
NtRp3246
(dp3247
g54
(dp3248
g62
I3
ssg63
g3242
sg56
(lp3249
S'Petas'
p3250
asbasbasbag49
(g65
g51
NtRp3251
(dp3252
g54
(dp3253
sg63
g3138
sg56
(lp3254
g49
(g70
g51
NtRp3255
(dp3256
g54
(dp3257
g74
g75
ssg63
g3251
sg56
(lp3258
S'password'
p3259
asbag49
(g70
g51
NtRp3260
(dp3261
g54
(dp3262
g81
g82
ssg63
g3251
sg56
(lp3263
S':'
asbag49
(g70
g51
NtRp3264
(dp3265
g54
(dp3266
sg63
g3251
sg56
(lp3267
g49
(g50
g51
NtRp3268
(dp3269
g54
(dp3270
g62
I3
ssg63
g3264
sg56
(lp3271
S'b11d7fe42f4ed95554a3bb1f580d7880'
p3272
asbasbasbag49
(g65
g51
NtRp3273
(dp3274
g54
(dp3275
sg63
g3138
sg56
(lp3276
g49
(g70
g51
NtRp3277
(dp3278
g54
(dp3279
g74
g75
ssg63
g3273
sg56
(lp3280
S'registration_id'
p3281
asbag49
(g70
g51
NtRp3282
(dp3283
g54
(dp3284
g81
g82
ssg63
g3273
sg56
(lp3285
S':'
asbag49
(g70
g51
NtRp3286
(dp3287
g54
(dp3288
sg63
g3273
sg56
(lp3289
g49
(g50
g51
NtRp3290
(dp3291
g54
(dp3292
g62
I3
ssg63
g3286
sg56
(lp3293
S''
asbasbasbag49
(g65
g51
NtRp3294
(dp3295
g54
(dp3296
sg63
g3138
sg56
(lp3297
g49
(g70
g51
NtRp3298
(dp3299
g54
(dp3300
g74
g75
ssg63
g3294
sg56
(lp3301
S'registration_key'
p3302
asbag49
(g70
g51
NtRp3303
(dp3304
g54
(dp3305
g81
g82
ssg63
g3294
sg56
(lp3306
S':'
asbag49
(g70
g51
NtRp3307
(dp3308
g54
(dp3309
sg63
g3294
sg56
(lp3310
g49
(g50
g51
NtRp3311
(dp3312
g54
(dp3313
g62
I3
ssg63
g3307
sg56
(lp3314
S''
asbasbasbag49
(g65
g51
NtRp3315
(dp3316
g54
(dp3317
sg63
g3138
sg56
(lp3318
g49
(g70
g51
NtRp3319
(dp3320
g54
(dp3321
g74
g75
ssg63
g3315
sg56
(lp3322
S'representation'
p3323
asbag49
(g70
g51
NtRp3324
(dp3325
g54
(dp3326
g81
g82
ssg63
g3315
sg56
(lp3327
S':'
asbag49
(g70
g51
NtRp3328
(dp3329
g54
(dp3330
sg63
g3315
sg56
(lp3331
g49
(g50
g51
NtRp3332
(dp3333
g54
(dp3334
g62
I3
ssg63
g3328
sg56
(lp3335
S'AS'
p3336
asbasbasbag49
(g65
g51
NtRp3337
(dp3338
g54
(dp3339
sg63
g3138
sg56
(lp3340
g49
(g70
g51
NtRp3341
(dp3342
g54
(dp3343
g74
g75
ssg63
g3337
sg56
(lp3344
S'reset_password_key'
p3345
asbag49
(g70
g51
NtRp3346
(dp3347
g54
(dp3348
g81
g82
ssg63
g3337
sg56
(lp3349
S':'
asbag49
(g70
g51
NtRp3350
(dp3351
g54
(dp3352
sg63
g3337
sg56
(lp3353
g49
(g50
g51
NtRp3354
(dp3355
g54
(dp3356
g62
I3
ssg63
g3350
sg56
(lp3357
S''
asbasbasbasbasbasbasbag49
(g65
g51
NtRp3358
(dp3359
g54
(dp3360
sg63
g3047
sg56
(lp3361
g49
(g70
g51
NtRp3362
(dp3363
g54
(dp3364
g74
g75
ssg63
g3358
sg56
(lp3365
S'user_groups'
p3366
asbag49
(g70
g51
NtRp3367
(dp3368
g54
(dp3369
g81
g82
ssg63
g3358
sg56
(lp3370
S':'
asbag49
(g70
g51
NtRp3371
(dp3372
g54
(dp3373
sg63
g3358
sg56
(lp3374
g49
(g50
g51
NtRp3375
(dp3376
g54
(dp3377
g62
I4
ssg63
g3371
sg56
(lp3378
g49
(g58
g51
NtRp3379
(dp3380
g54
(dp3381
g62
I3
ssg63
Nsg56
(lp3382
g49
(g65
g51
NtRp3383
(dp3384
g54
(dp3385
sg63
g3379
sg56
(lp3386
g49
(g70
g51
NtRp3387
(dp3388
g54
(dp3389
g74
g75
ssg63
g3383
sg56
(lp3390
S'1'
asbag49
(g70
g51
NtRp3391
(dp3392
g54
(dp3393
g81
g82
ssg63
g3383
sg56
(lp3394
S':'
asbag49
(g70
g51
NtRp3395
(dp3396
g54
(dp3397
sg63
g3383
sg56
(lp3398
g49
(g50
g51
NtRp3399
(dp3400
g54
(dp3401
g62
I3
ssg63
g3395
sg56
(lp3402
S'user_1'
p3403
asbasbasbasbasbasbasbasbasbasbasbasbasbsS'etype'
p3404
S"<type 'exceptions.AttributeError'>"
p3405
sS'date'
p3406
S'Fri Jul 06 22:54:12 2012'
p3407
sS'response'
p3408
g49
(g50
g51
NtRp3409
(dp3410
g54
(dp3411
sg56
(lp3412
g49
(g58
g51
NtRp3413
(dp3414
g54
(dp3415
g62
I5
ssg63
Nsg56
(lp3416
g49
(g65
g51
NtRp3417
(dp3418
g54
(dp3419
sg63
g3413
sg56
(lp3420
g49
(g70
g51
NtRp3421
(dp3422
g54
(dp3423
g74
g75
ssg63
g3417
sg56
(lp3424
g159
asbag49
(g70
g51
NtRp3425
(dp3426
g54
(dp3427
g81
g82
ssg63
g3417
sg56
(lp3428
S':'
asbag49
(g70
g51
NtRp3429
(dp3430
g54
(dp3431
sg63
g3417
sg56
(lp3432
g49
(g50
g51
NtRp3433
(dp3434
g54
(dp3435
g62
I5
ssg63
g3429
sg56
(lp3436
S'<cStringIO.StringO object at 0x05684060>'
p3437
asbasbasbag49
(g65
g51
NtRp3438
(dp3439
g54
(dp3440
sg63
g3413
sg56
(lp3441
g49
(g70
g51
NtRp3442
(dp3443
g54
(dp3444
g74
g75
ssg63
g3438
sg56
(lp3445
g225
asbag49
(g70
g51
NtRp3446
(dp3447
g54
(dp3448
g81
g82
ssg63
g3438
sg56
(lp3449
S':'
asbag49
(g70
g51
NtRp3450
(dp3451
g54
(dp3452
sg63
g3438
sg56
(lp3453
g49
(g50
g51
NtRp3454
(dp3455
g54
(dp3456
g62
I5
ssg63
g3450
sg56
(lp3457
g49
(g58
g51
NtRp3458
(dp3459
g54
(dp3460
g62
I4
ssg63
Nsg56
(lp3461
g49
(g65
g51
NtRp3462
(dp3463
g54
(dp3464
sg63
g3458
sg56
(lp3465
g49
(g70
g51
NtRp3466
(dp3467
g54
(dp3468
g74
g75
ssg63
g3462
sg56
(lp3469
S'session_id_sitsit'
p3470
asbag49
(g70
g51
NtRp3471
(dp3472
g54
(dp3473
g81
g82
ssg63
g3462
sg56
(lp3474
S':'
asbag49
(g70
g51
NtRp3475
(dp3476
g54
(dp3477
sg63
g3462
sg56
(lp3478
g49
(g50
g51
NtRp3479
(dp3480
g54
(dp3481
g62
I4
ssg63
g3475
sg56
(lp3482
g49
(g58
g51
NtRp3483
(dp3484
g54
(dp3485
g62
I3
ssg63
Nsg56
(lp3486
g49
(g65
g51
NtRp3487
(dp3488
g54
(dp3489
sg63
g3483
sg56
(lp3490
g49
(g70
g51
NtRp3491
(dp3492
g54
(dp3493
g74
g75
ssg63
g3487
sg56
(lp3494
g275
asbag49
(g70
g51
NtRp3495
(dp3496
g54
(dp3497
g81
g82
ssg63
g3487
sg56
(lp3498
S':'
asbag49
(g70
g51
NtRp3499
(dp3500
g54
(dp3501
sg63
g3487
sg56
(lp3502
g49
(g50
g51
NtRp3503
(dp3504
g54
(dp3505
g62
I3
ssg63
g3499
sg56
(lp3506
S''
asbasbasbag49
(g65
g51
NtRp3507
(dp3508
g54
(dp3509
sg63
g3483
sg56
(lp3510
g49
(g70
g51
NtRp3511
(dp3512
g54
(dp3513
g74
g75
ssg63
g3507
sg56
(lp3514
g296
asbag49
(g70
g51
NtRp3515
(dp3516
g54
(dp3517
g81
g82
ssg63
g3507
sg56
(lp3518
S':'
asbag49
(g70
g51
NtRp3519
(dp3520
g54
(dp3521
sg63
g3507
sg56
(lp3522
g49
(g50
g51
NtRp3523
(dp3524
g54
(dp3525
g62
I3
ssg63
g3519
sg56
(lp3526
S''
asbasbasbag49
(g65
g51
NtRp3527
(dp3528
g54
(dp3529
sg63
g3483
sg56
(lp3530
g49
(g70
g51
NtRp3531
(dp3532
g54
(dp3533
g74
g75
ssg63
g3527
sg56
(lp3534
g317
asbag49
(g70
g51
NtRp3535
(dp3536
g54
(dp3537
g81
g82
ssg63
g3527
sg56
(lp3538
S':'
asbag49
(g70
g51
NtRp3539
(dp3540
g54
(dp3541
sg63
g3527
sg56
(lp3542
g49
(g50
g51
NtRp3543
(dp3544
g54
(dp3545
g62
I3
ssg63
g3539
sg56
(lp3546
S''
asbasbasbag49
(g65
g51
NtRp3547
(dp3548
g54
(dp3549
sg63
g3483
sg56
(lp3550
g49
(g70
g51
NtRp3551
(dp3552
g54
(dp3553
g74
g75
ssg63
g3547
sg56
(lp3554
g338
asbag49
(g70
g51
NtRp3555
(dp3556
g54
(dp3557
g81
g82
ssg63
g3547
sg56
(lp3558
S':'
asbag49
(g70
g51
NtRp3559
(dp3560
g54
(dp3561
sg63
g3547
sg56
(lp3562
g49
(g50
g51
NtRp3563
(dp3564
g54
(dp3565
g62
I3
ssg63
g3559
sg56
(lp3566
S''
asbasbasbag49
(g65
g51
NtRp3567
(dp3568
g54
(dp3569
sg63
g3483
sg56
(lp3570
g49
(g70
g51
NtRp3571
(dp3572
g54
(dp3573
g74
g75
ssg63
g3567
sg56
(lp3574
g359
asbag49
(g70
g51
NtRp3575
(dp3576
g54
(dp3577
g81
g82
ssg63
g3567
sg56
(lp3578
S':'
asbag49
(g70
g51
NtRp3579
(dp3580
g54
(dp3581
sg63
g3567
sg56
(lp3582
g49
(g50
g51
NtRp3583
(dp3584
g54
(dp3585
g62
I3
ssg63
g3579
sg56
(lp3586
S'/'
asbasbasbag49
(g65
g51
NtRp3587
(dp3588
g54
(dp3589
sg63
g3483
sg56
(lp3590
g49
(g70
g51
NtRp3591
(dp3592
g54
(dp3593
g74
g75
ssg63
g3587
sg56
(lp3594
g380
asbag49
(g70
g51
NtRp3595
(dp3596
g54
(dp3597
g81
g82
ssg63
g3587
sg56
(lp3598
S':'
asbag49
(g70
g51
NtRp3599
(dp3600
g54
(dp3601
sg63
g3587
sg56
(lp3602
g49
(g50
g51
NtRp3603
(dp3604
g54
(dp3605
g62
I3
ssg63
g3599
sg56
(lp3606
S''
asbasbasbag49
(g65
g51
NtRp3607
(dp3608
g54
(dp3609
sg63
g3483
sg56
(lp3610
g49
(g70
g51
NtRp3611
(dp3612
g54
(dp3613
g74
g75
ssg63
g3607
sg56
(lp3614
g401
asbag49
(g70
g51
NtRp3615
(dp3616
g54
(dp3617
g81
g82
ssg63
g3607
sg56
(lp3618
S':'
asbag49
(g70
g51
NtRp3619
(dp3620
g54
(dp3621
sg63
g3607
sg56
(lp3622
g49
(g50
g51
NtRp3623
(dp3624
g54
(dp3625
g62
I3
ssg63
g3619
sg56
(lp3626
S''
asbasbasbasbasbasbasbasbasbasbasbag49
(g65
g51
NtRp3627
(dp3628
g54
(dp3629
sg63
g3413
sg56
(lp3630
g49
(g70
g51
NtRp3631
(dp3632
g54
(dp3633
g74
g75
ssg63
g3627
sg56
(lp3634
S'delimiters'
p3635
asbag49
(g70
g51
NtRp3636
(dp3637
g54
(dp3638
g81
g82
ssg63
g3627
sg56
(lp3639
S':'
asbag49
(g70
g51
NtRp3640
(dp3641
g54
(dp3642
sg63
g3627
sg56
(lp3643
g49
(g50
g51
NtRp3644
(dp3645
g54
(dp3646
g62
I5
ssg63
g3640
sg56
(lp3647
g49
(g58
g51
NtRp3648
(dp3649
g54
(dp3650
g62
I4
ssg63
Nsg56
(lp3651
g49
(g65
g51
NtRp3652
(dp3653
g54
(dp3654
sg63
g3648
sg56
(lp3655
g49
(g70
g51
NtRp3656
(dp3657
g54
(dp3658
sg63
g3652
sg56
(lp3659
g49
(g50
g51
NtRp3660
(dp3661
g54
(dp3662
g62
I4
ssg63
g3656
sg56
(lp3663
S'{{'
p3664
asbasbasbag49
(g65
g51
NtRp3665
(dp3666
g54
(dp3667
sg63
g3648
sg56
(lp3668
g49
(g70
g51
NtRp3669
(dp3670
g54
(dp3671
sg63
g3665
sg56
(lp3672
g49
(g50
g51
NtRp3673
(dp3674
g54
(dp3675
g62
I4
ssg63
g3669
sg56
(lp3676
S'}}'
p3677
asbasbasbasbasbasbasbag49
(g65
g51
NtRp3678
(dp3679
g54
(dp3680
sg63
g3413
sg56
(lp3681
g49
(g70
g51
NtRp3682
(dp3683
g54
(dp3684
g74
g75
ssg63
g3678
sg56
(lp3685
S'files'
p3686
asbag49
(g70
g51
NtRp3687
(dp3688
g54
(dp3689
g81
g82
ssg63
g3678
sg56
(lp3690
S':'
asbag49
(g70
g51
NtRp3691
(dp3692
g54
(dp3693
sg63
g3678
sg56
(lp3694
g49
(g50
g51
NtRp3695
(dp3696
g54
(dp3697
g62
I5
ssg63
g3691
sg56
(lp3698
g49
(g58
g51
NtRp3699
(dp3700
g54
(dp3701
g62
I4
ssg63
Nsg56
(lp3702
sbasbasbasbag49
(g65
g51
NtRp3703
(dp3704
g54
(dp3705
sg63
g3413
sg56
(lp3706
g49
(g70
g51
NtRp3707
(dp3708
g54
(dp3709
g74
g75
ssg63
g3703
sg56
(lp3710
S'flash'
p3711
asbag49
(g70
g51
NtRp3712
(dp3713
g54
(dp3714
g81
g82
ssg63
g3703
sg56
(lp3715
S':'
asbag49
(g70
g51
NtRp3716
(dp3717
g54
(dp3718
sg63
g3703
sg56
(lp3719
g49
(g50
g51
NtRp3720
(dp3721
g54
(dp3722
g62
I5
ssg63
g3716
sg56
(lp3723
S''
asbasbasbag49
(g65
g51
NtRp3724
(dp3725
g54
(dp3726
sg63
g3413
sg56
(lp3727
g49
(g70
g51
NtRp3728
(dp3729
g54
(dp3730
g74
g75
ssg63
g3724
sg56
(lp3731
S'generic_patterns'
p3732
asbag49
(g70
g51
NtRp3733
(dp3734
g54
(dp3735
g81
g82
ssg63
g3724
sg56
(lp3736
S':'
asbag49
(g70
g51
NtRp3737
(dp3738
g54
(dp3739
sg63
g3724
sg56
(lp3740
g49
(g50
g51
NtRp3741
(dp3742
g54
(dp3743
g62
I5
ssg63
g3737
sg56
(lp3744
g49
(g58
g51
NtRp3745
(dp3746
g54
(dp3747
g62
I4
ssg63
Nsg56
(lp3748
g49
(g65
g51
NtRp3749
(dp3750
g54
(dp3751
sg63
g3745
sg56
(lp3752
g49
(g70
g51
NtRp3753
(dp3754
g54
(dp3755
sg63
g3749
sg56
(lp3756
g49
(g50
g51
NtRp3757
(dp3758
g54
(dp3759
g62
I4
ssg63
g3753
sg56
(lp3760
S'*'
asbasbasbasbasbasbasbag49
(g65
g51
NtRp3761
(dp3762
g54
(dp3763
sg63
g3413
sg56
(lp3764
g49
(g70
g51
NtRp3765
(dp3766
g54
(dp3767
g74
g75
ssg63
g3761
sg56
(lp3768
S'headers'
p3769
asbag49
(g70
g51
NtRp3770
(dp3771
g54
(dp3772
g81
g82
ssg63
g3761
sg56
(lp3773
S':'
asbag49
(g70
g51
NtRp3774
(dp3775
g54
(dp3776
sg63
g3761
sg56
(lp3777
g49
(g50
g51
NtRp3778
(dp3779
g54
(dp3780
g62
I5
ssg63
g3774
sg56
(lp3781
g49
(g58
g51
NtRp3782
(dp3783
g54
(dp3784
g62
I4
ssg63
Nsg56
(lp3785
g49
(g65
g51
NtRp3786
(dp3787
g54
(dp3788
sg63
g3782
sg56
(lp3789
g49
(g70
g51
NtRp3790
(dp3791
g54
(dp3792
g74
g75
ssg63
g3786
sg56
(lp3793
S'Cache-Control'
p3794
asbag49
(g70
g51
NtRp3795
(dp3796
g54
(dp3797
g81
g82
ssg63
g3786
sg56
(lp3798
S':'
asbag49
(g70
g51
NtRp3799
(dp3800
g54
(dp3801
sg63
g3786
sg56
(lp3802
g49
(g50
g51
NtRp3803
(dp3804
g54
(dp3805
g62
I4
ssg63
g3799
sg56
(lp3806
S'no-store, no-cache, must-revalidate, post-check=0, pre-check=0'
p3807
asbasbasbag49
(g65
g51
NtRp3808
(dp3809
g54
(dp3810
sg63
g3782
sg56
(lp3811
g49
(g70
g51
NtRp3812
(dp3813
g54
(dp3814
g74
g75
ssg63
g3808
sg56
(lp3815
S'Content-Type'
p3816
asbag49
(g70
g51
NtRp3817
(dp3818
g54
(dp3819
g81
g82
ssg63
g3808
sg56
(lp3820
S':'
asbag49
(g70
g51
NtRp3821
(dp3822
g54
(dp3823
sg63
g3808
sg56
(lp3824
g49
(g50
g51
NtRp3825
(dp3826
g54
(dp3827
g62
I4
ssg63
g3821
sg56
(lp3828
S'text/html; charset=utf-8'
p3829
asbasbasbag49
(g65
g51
NtRp3830
(dp3831
g54
(dp3832
sg63
g3782
sg56
(lp3833
g49
(g70
g51
NtRp3834
(dp3835
g54
(dp3836
g74
g75
ssg63
g3830
sg56
(lp3837
S'Expires'
p3838
asbag49
(g70
g51
NtRp3839
(dp3840
g54
(dp3841
g81
g82
ssg63
g3830
sg56
(lp3842
S':'
asbag49
(g70
g51
NtRp3843
(dp3844
g54
(dp3845
sg63
g3830
sg56
(lp3846
g49
(g50
g51
NtRp3847
(dp3848
g54
(dp3849
g62
I4
ssg63
g3843
sg56
(lp3850
S'Fri, 06 Jul 2012 20:54:12 GMT'
p3851
asbasbasbag49
(g65
g51
NtRp3852
(dp3853
g54
(dp3854
sg63
g3782
sg56
(lp3855
g49
(g70
g51
NtRp3856
(dp3857
g54
(dp3858
g74
g75
ssg63
g3852
sg56
(lp3859
S'Pragma'
p3860
asbag49
(g70
g51
NtRp3861
(dp3862
g54
(dp3863
g81
g82
ssg63
g3852
sg56
(lp3864
S':'
asbag49
(g70
g51
NtRp3865
(dp3866
g54
(dp3867
sg63
g3852
sg56
(lp3868
g49
(g50
g51
NtRp3869
(dp3870
g54
(dp3871
g62
I4
ssg63
g3865
sg56
(lp3872
S'no-cache'
p3873
asbasbasbag49
(g65
g51
NtRp3874
(dp3875
g54
(dp3876
sg63
g3782
sg56
(lp3877
g49
(g70
g51
NtRp3878
(dp3879
g54
(dp3880
g74
g75
ssg63
g3874
sg56
(lp3881
S'X-Powered-By'
p3882
asbag49
(g70
g51
NtRp3883
(dp3884
g54
(dp3885
g81
g82
ssg63
g3874
sg56
(lp3886
S':'
asbag49
(g70
g51
NtRp3887
(dp3888
g54
(dp3889
sg63
g3874
sg56
(lp3890
g49
(g50
g51
NtRp3891
(dp3892
g54
(dp3893
g62
I4
ssg63
g3887
sg56
(lp3894
S'web2py'
p3895
asbasbasbasbasbasbasbag49
(g65
g51
NtRp3896
(dp3897
g54
(dp3898
sg63
g3413
sg56
(lp3899
g49
(g70
g51
NtRp3900
(dp3901
g54
(dp3902
g74
g75
ssg63
g3896
sg56
(lp3903
S'menu'
p3904
asbag49
(g70
g51
NtRp3905
(dp3906
g54
(dp3907
g81
g82
ssg63
g3896
sg56
(lp3908
S':'
asbag49
(g70
g51
NtRp3909
(dp3910
g54
(dp3911
sg63
g3896
sg56
(lp3912
g49
(g50
g51
NtRp3913
(dp3914
g54
(dp3915
g62
I5
ssg63
g3909
sg56
(lp3916
g49
(g58
g51
NtRp3917
(dp3918
g54
(dp3919
g62
I4
ssg63
Nsg56
(lp3920
g49
(g65
g51
NtRp3921
(dp3922
g54
(dp3923
sg63
g3917
sg56
(lp3924
g49
(g70
g51
NtRp3925
(dp3926
g54
(dp3927
sg63
g3921
sg56
(lp3928
g49
(g50
g51
NtRp3929
(dp3930
g54
(dp3931
g62
I4
ssg63
g3925
sg56
(lp3932
g49
(g58
g51
NtRp3933
(dp3934
g54
(dp3935
g62
I3
ssg63
Nsg56
(lp3936
g49
(g65
g51
NtRp3937
(dp3938
g54
(dp3939
sg63
g3933
sg56
(lp3940
g49
(g70
g51
NtRp3941
(dp3942
g54
(dp3943
sg63
g3937
sg56
(lp3944
g49
(g50
g51
NtRp3945
(dp3946
g54
(dp3947
g62
I3
ssg63
g3941
sg56
(lp3948
cgluon.languages
lazyT_unpickle
p3949
(S's\x04\x00\x00\x00Home'
tRp3950
asbasbasbag49
(g65
g51
NtRp3951
(dp3952
g54
(dp3953
sg63
g3933
sg56
(lp3954
g49
(g70
g51
NtRp3955
(dp3956
g54
(dp3957
sg63
g3951
sg56
(lp3958
g49
(g50
g51
NtRp3959
(dp3960
g54
(dp3961
g62
I3
ssg63
g3955
sg56
(lp3962
g92
asbasbasbag49
(g65
g51
NtRp3963
(dp3964
g54
(dp3965
sg63
g3933
sg56
(lp3966
g49
(g70
g51
NtRp3967
(dp3968
g54
(dp3969
sg63
g3963
sg56
(lp3970
g49
(g50
g51
NtRp3971
(dp3972
g54
(dp3973
g62
I3
ssg63
g3967
sg56
(lp3974
S'/sitsit/default/index'
p3975
asbasbasbag49
(g65
g51
NtRp3976
(dp3977
g54
(dp3978
sg63
g3933
sg56
(lp3979
g49
(g70
g51
NtRp3980
(dp3981
g54
(dp3982
sg63
g3976
sg56
(lp3983
g49
(g50
g51
NtRp3984
(dp3985
g54
(dp3986
g62
I3
ssg63
g3980
sg56
(lp3987
g49
(g58
g51
NtRp3988
(dp3989
g54
(dp3990
g62
I2
ssg63
Nsg56
(lp3991
sbasbasbasbasbasbasbasbag49
(g65
g51
NtRp3992
(dp3993
g54
(dp3994
sg63
g3917
sg56
(lp3995
g49
(g70
g51
NtRp3996
(dp3997
g54
(dp3998
sg63
g3992
sg56
(lp3999
g49
(g50
g51
NtRp4000
(dp4001
g54
(dp4002
g62
I4
ssg63
g3996
sg56
(lp4003
g49
(g58
g51
NtRp4004
(dp4005
g54
(dp4006
g62
I3
ssg63
Nsg56
(lp4007
g49
(g65
g51
NtRp4008
(dp4009
g54
(dp4010
sg63
g4004
sg56
(lp4011
g49
(g70
g51
NtRp4012
(dp4013
g54
(dp4014
sg63
g4008
sg56
(lp4015
g49
(g50
g51
NtRp4016
(dp4017
g54
(dp4018
g62
I3
ssg63
g4012
sg56
(lp4019
g49
(cgluon.html
SPAN
p4020
g51
NtRp4021
(dp4022
g54
(dp4023
g74
S'color:yellow'
p4024
ssg63
Nsg56
(lp4025
g3895
asbasbasbasbag49
(g65
g51
NtRp4026
(dp4027
g54
(dp4028
sg63
g4004
sg56
(lp4029
g49
(g70
g51
NtRp4030
(dp4031
g54
(dp4032
sg63
g4026
sg56
(lp4033
g49
(g50
g51
NtRp4034
(dp4035
g54
(dp4036
g62
I3
ssg63
g4030
sg56
(lp4037
g92
asbasbasbag49
(g65
g51
NtRp4038
(dp4039
g54
(dp4040
sg63
g4004
sg56
(lp4041
g49
(g70
g51
NtRp4042
(dp4043
g54
(dp4044
sg63
g4038
sg56
(lp4045
g49
(g50
g51
NtRp4046
(dp4047
g54
(dp4048
g62
I3
ssg63
g4042
sg56
(lp4049
S'None'
p4050
asbasbasbag49
(g65
g51
NtRp4051
(dp4052
g54
(dp4053
sg63
g4004
sg56
(lp4054
g49
(g70
g51
NtRp4055
(dp4056
g54
(dp4057
sg63
g4051
sg56
(lp4058
g49
(g50
g51
NtRp4059
(dp4060
g54
(dp4061
g62
I3
ssg63
g4055
sg56
(lp4062
g49
(g58
g51
NtRp4063
(dp4064
g54
(dp4065
g62
I2
ssg63
Nsg56
(lp4066
g49
(g65
g51
NtRp4067
(dp4068
g54
(dp4069
sg63
g4063
sg56
(lp4070
g49
(g70
g51
NtRp4071
(dp4072
g54
(dp4073
sg63
g4067
sg56
(lp4074
g49
(g50
g51
NtRp4075
(dp4076
g54
(dp4077
g62
I2
ssg63
g4071
sg56
(lp4078
g49
(g58
g51
NtRp4079
(dp4080
g54
(dp4081
g62
I1
ssg63
Nsg56
(lp4082
g49
(g65
g51
NtRp4083
(dp4084
g54
(dp4085
sg63
g4079
sg56
(lp4086
g49
(g70
g51
NtRp4087
(dp4088
g54
(dp4089
sg63
g4083
sg56
(lp4090
g49
(g50
g51
NtRp4091
(dp4092
g54
(dp4093
g62
I1
ssg63
g4087
sg56
(lp4094
g3949
(S's\x08\x00\x00\x00My Sites'
tRp4095
asbasbasbag49
(g65
g51
NtRp4096
(dp4097
g54
(dp4098
sg63
g4079
sg56
(lp4099
g49
(g70
g51
NtRp4100
(dp4101
g54
(dp4102
sg63
g4096
sg56
(lp4103
g49
(g50
g51
NtRp4104
(dp4105
g54
(dp4106
g62
I1
ssg63
g4100
sg56
(lp4107
I00
asbasbasbag49
(g65
g51
NtRp4108
(dp4109
g54
(dp4110
sg63
g4079
sg56
(lp4111
g49
(g70
g51
NtRp4112
(dp4113
g54
(dp4114
sg63
g4108
sg56
(lp4115
g49
(g50
g51
NtRp4116
(dp4117
g54
(dp4118
g62
I1
ssg63
g4112
sg56
(lp4119
S'/admin/default/site'
p4120
asbasbasbasbasbasbasbag49
(g65
g51
NtRp4121
(dp4122
g54
(dp4123
sg63
g4063
sg56
(lp4124
g49
(g70
g51
NtRp4125
(dp4126
g54
(dp4127
sg63
g4121
sg56
(lp4128
g49
(g50
g51
NtRp4129
(dp4130
g54
(dp4131
g62
I2
ssg63
g4125
sg56
(lp4132
g49
(g58
g51
NtRp4133
(dp4134
g54
(dp4135
g62
I1
ssg63
Nsg56
(lp4136
g49
(g65
g51
NtRp4137
(dp4138
g54
(dp4139
sg63
g4133
sg56
(lp4140
g49
(g70
g51
NtRp4141
(dp4142
g54
(dp4143
sg63
g4137
sg56
(lp4144
g49
(g50
g51
NtRp4145
(dp4146
g54
(dp4147
g62
I1
ssg63
g4141
sg56
(lp4148
g3949
(S's\x08\x00\x00\x00This App'
tRp4149
asbasbasbag49
(g65
g51
NtRp4150
(dp4151
g54
(dp4152
sg63
g4133
sg56
(lp4153
g49
(g70
g51
NtRp4154
(dp4155
g54
(dp4156
sg63
g4150
sg56
(lp4157
g49
(g50
g51
NtRp4158
(dp4159
g54
(dp4160
g62
I1
ssg63
g4154
sg56
(lp4161
I00
asbasbasbag49
(g65
g51
NtRp4162
(dp4163
g54
(dp4164
sg63
g4133
sg56
(lp4165
g49
(g70
g51
NtRp4166
(dp4167
g54
(dp4168
sg63
g4162
sg56
(lp4169
g49
(g50
g51
NtRp4170
(dp4171
g54
(dp4172
g62
I1
ssg63
g4166
sg56
(lp4173
S'/admin/default/design/sitsit'
p4174
asbasbasbag49
(g65
g51
NtRp4175
(dp4176
g54
(dp4177
sg63
g4133
sg56
(lp4178
g49
(g70
g51
NtRp4179
(dp4180
g54
(dp4181
sg63
g4175
sg56
(lp4182
g49
(g50
g51
NtRp4183
(dp4184
g54
(dp4185
g62
I1
ssg63
g4179
sg56
(lp4186
(lp4187
(g3949
(S's\n\x00\x00\x00Controller'
tRp4188
I00
S'/admin/default/edit/sitsit/controllers/default.py'
tp4189
a(g3949
(S's\x04\x00\x00\x00View'
tRp4190
I00
S'/admin/default/edit/sitsit/views/default/sitsit.html'
tp4191
a(g3949
(S's\x06\x00\x00\x00Layout'
tRp4192
I00
S'/admin/default/edit/sitsit/views/layout.html'
tp4193
a(g3949
(S's\n\x00\x00\x00Stylesheet'
tRp4194
I00
S'/admin/default/edit/sitsit/static/css/web2py.css'
tp4195
a(g3949
(S's\x08\x00\x00\x00DB Model'
tRp4196
I00
S'/admin/default/edit/sitsit/models/db.py'
tp4197
a(g3949
(S's\n\x00\x00\x00Menu Model'
tRp4198
I00
S'/admin/default/edit/sitsit/models/menu.py'
tp4199
a(g3949
(S's\x08\x00\x00\x00Database'
tRp4200
I00
S'/sitsit/appadmin/index'
tp4201
a(g3949
(S's\x06\x00\x00\x00Errors'
tRp4202
I00
S'/admin/default/errors/sitsit'
tp4203
a(g3949
(S's\x05\x00\x00\x00About'
tRp4204
I00
S'/admin/default/about/sitsit'
tp4205
aasbasbasbasbasbasbasbag49
(g65
g51
NtRp4206
(dp4207
g54
(dp4208
sg63
g4063
sg56
(lp4209
g49
(g70
g51
NtRp4210
(dp4211
g54
(dp4212
sg63
g4206
sg56
(lp4213
g49
(g50
g51
NtRp4214
(dp4215
g54
(dp4216
g62
I2
ssg63
g4210
sg56
(lp4217
g49
(g58
g51
NtRp4218
(dp4219
g54
(dp4220
g62
I1
ssg63
Nsg56
(lp4221
g49
(g65
g51
NtRp4222
(dp4223
g54
(dp4224
sg63
g4218
sg56
(lp4225
g49
(g70
g51
NtRp4226
(dp4227
g54
(dp4228
sg63
g4222
sg56
(lp4229
g49
(g50
g51
NtRp4230
(dp4231
g54
(dp4232
g62
I1
ssg63
g4226
sg56
(lp4233
S'web2py.com'
p4234
asbasbasbag49
(g65
g51
NtRp4235
(dp4236
g54
(dp4237
sg63
g4218
sg56
(lp4238
g49
(g70
g51
NtRp4239
(dp4240
g54
(dp4241
sg63
g4235
sg56
(lp4242
g49
(g50
g51
NtRp4243
(dp4244
g54
(dp4245
g62
I1
ssg63
g4239
sg56
(lp4246
I00
asbasbasbag49
(g65
g51
NtRp4247
(dp4248
g54
(dp4249
sg63
g4218
sg56
(lp4250
g49
(g70
g51
NtRp4251
(dp4252
g54
(dp4253
sg63
g4247
sg56
(lp4254
g49
(g50
g51
NtRp4255
(dp4256
g54
(dp4257
g62
I1
ssg63
g4251
sg56
(lp4258
S'http://www.web2py.com'
p4259
asbasbasbag49
(g65
g51
NtRp4260
(dp4261
g54
(dp4262
sg63
g4218
sg56
(lp4263
g49
(g70
g51
NtRp4264
(dp4265
g54
(dp4266
sg63
g4260
sg56
(lp4267
g49
(g50
g51
NtRp4268
(dp4269
g54
(dp4270
g62
I1
ssg63
g4264
sg56
(lp4271
(lp4272
(g3949
(S's\x08\x00\x00\x00Download'
tRp4273
I00
S'http://www.web2py.com/examples/default/download'
p4274
tp4275
a(g3949
(S's\x07\x00\x00\x00Support'
tRp4276
I00
S'http://www.web2py.com/examples/default/support'
p4277
tp4278
a(g3949
(S's\x04\x00\x00\x00Demo'
tRp4279
I00
S'http://web2py.com/demo_admin'
p4280
tp4281
a(g3949
(S's\x0e\x00\x00\x00Quick Examples'
tRp4282
I00
S'http://web2py.com/examples/default/examples'
p4283
tp4284
a(g3949
(S's\x03\x00\x00\x00FAQ'
tRp4285
I00
S'http://web2py.com/AlterEgo'
p4286
tp4287
a(g3949
(S's\x06\x00\x00\x00Videos'
tRp4288
I00
S'http://www.web2py.com/examples/default/videos/'
p4289
tp4290
a(g3949
(S's\x11\x00\x00\x00Free Applications'
tRp4291
I00
S'http://web2py.com/appliances'
p4292
tp4293
a(g3949
(S's\x07\x00\x00\x00Plugins'
tRp4294
I00
S'http://web2py.com/plugins'
p4295
tp4296
a(g3949
(S's\x07\x00\x00\x00Layouts'
tRp4297
I00
S'http://web2py.com/layouts'
p4298
tp4299
a(g3949
(S's\x07\x00\x00\x00Recipes'
tRp4300
I00
S'http://web2pyslices.com/'
p4301
tp4302
a(g3949
(S's\x08\x00\x00\x00Semantic'
tRp4303
I00
S'http://web2py.com/semantic'
p4304
tp4305
aasbasbasbasbasbasbasbag49
(g65
g51
NtRp4306
(dp4307
g54
(dp4308
sg63
g4063
sg56
(lp4309
g49
(g70
g51
NtRp4310
(dp4311
g54
(dp4312
sg63
g4306
sg56
(lp4313
g49
(g50
g51
NtRp4314
(dp4315
g54
(dp4316
g62
I2
ssg63
g4310
sg56
(lp4317
g49
(g58
g51
NtRp4318
(dp4319
g54
(dp4320
g62
I1
ssg63
Nsg56
(lp4321
g49
(g65
g51
NtRp4322
(dp4323
g54
(dp4324
sg63
g4318
sg56
(lp4325
g49
(g70
g51
NtRp4326
(dp4327
g54
(dp4328
sg63
g4322
sg56
(lp4329
g49
(g50
g51
NtRp4330
(dp4331
g54
(dp4332
g62
I1
ssg63
g4326
sg56
(lp4333
g3949
(S's\r\x00\x00\x00Documentation'
tRp4334
asbasbasbag49
(g65
g51
NtRp4335
(dp4336
g54
(dp4337
sg63
g4318
sg56
(lp4338
g49
(g70
g51
NtRp4339
(dp4340
g54
(dp4341
sg63
g4335
sg56
(lp4342
g49
(g50
g51
NtRp4343
(dp4344
g54
(dp4345
g62
I1
ssg63
g4339
sg56
(lp4346
I00
asbasbasbag49
(g65
g51
NtRp4347
(dp4348
g54
(dp4349
sg63
g4318
sg56
(lp4350
g49
(g70
g51
NtRp4351
(dp4352
g54
(dp4353
sg63
g4347
sg56
(lp4354
g49
(g50
g51
NtRp4355
(dp4356
g54
(dp4357
g62
I1
ssg63
g4351
sg56
(lp4358
S'http://www.web2py.com/book'
p4359
asbasbasbag49
(g65
g51
NtRp4360
(dp4361
g54
(dp4362
sg63
g4318
sg56
(lp4363
g49
(g70
g51
NtRp4364
(dp4365
g54
(dp4366
sg63
g4360
sg56
(lp4367
g49
(g50
g51
NtRp4368
(dp4369
g54
(dp4370
g62
I1
ssg63
g4364
sg56
(lp4371
(lp4372
(g3949
(S's\x07\x00\x00\x00Preface'
tRp4373
I00
S'http://www.web2py.com/book/default/chapter/00'
p4374
tp4375
a(g3949
(S's\x0c\x00\x00\x00Introduction'
tRp4376
I00
S'http://www.web2py.com/book/default/chapter/01'
p4377
tp4378
a(g3949
(S's\x06\x00\x00\x00Python'
tRp4379
I00
S'http://www.web2py.com/book/default/chapter/02'
p4380
tp4381
a(g3949
(S's\x08\x00\x00\x00Overview'
tRp4382
I00
S'http://www.web2py.com/book/default/chapter/03'
p4383
tp4384
a(g3949
(S's\x08\x00\x00\x00The Core'
tRp4385
I00
S'http://www.web2py.com/book/default/chapter/04'
p4386
tp4387
a(g3949
(S's\t\x00\x00\x00The Views'
tRp4388
I00
S'http://www.web2py.com/book/default/chapter/05'
p4389
tp4390
a(g3949
(S's\x08\x00\x00\x00Database'
tRp4391
I00
S'http://www.web2py.com/book/default/chapter/06'
p4392
tp4393
a(g3949
(S's\x14\x00\x00\x00Forms and Validators'
tRp4394
I00
S'http://www.web2py.com/book/default/chapter/07'
p4395
tp4396
a(g3949
(S's\r\x00\x00\x00Email and SMS'
tRp4397
I00
S'http://www.web2py.com/book/default/chapter/08'
p4398
tp4399
a(g3949
(S's\x0e\x00\x00\x00Access Control'
tRp4400
I00
S'http://www.web2py.com/book/default/chapter/09'
p4401
tp4402
a(g3949
(S's\x08\x00\x00\x00Services'
tRp4403
I00
S'http://www.web2py.com/book/default/chapter/10'
p4404
tp4405
a(g3949
(S's\x0c\x00\x00\x00Ajax Recipes'
tRp4406
I00
S'http://www.web2py.com/book/default/chapter/11'
p4407
tp4408
a(g3949
(S's\x16\x00\x00\x00Components and Plugins'
tRp4409
I00
S'http://www.web2py.com/book/default/chapter/12'
p4410
tp4411
a(g3949
(S's\x12\x00\x00\x00Deployment Recipes'
tRp4412
I00
S'http://www.web2py.com/book/default/chapter/13'
p4413
tp4414
a(g3949
(S's\r\x00\x00\x00Other Recipes'
tRp4415
I00
S'http://www.web2py.com/book/default/chapter/14'
p4416
tp4417
a(g3949
(S's\r\x00\x00\x00Buy this book'
tRp4418
I00
S'http://stores.lulu.com/web2py'
p4419
tp4420
aasbasbasbasbasbasbasbag49
(g65
g51
NtRp4421
(dp4422
g54
(dp4423
sg63
g4063
sg56
(lp4424
g49
(g70
g51
NtRp4425
(dp4426
g54
(dp4427
sg63
g4421
sg56
(lp4428
g49
(g50
g51
NtRp4429
(dp4430
g54
(dp4431
g62
I2
ssg63
g4425
sg56
(lp4432
g49
(g58
g51
NtRp4433
(dp4434
g54
(dp4435
g62
I1
ssg63
Nsg56
(lp4436
g49
(g65
g51
NtRp4437
(dp4438
g54
(dp4439
sg63
g4433
sg56
(lp4440
g49
(g70
g51
NtRp4441
(dp4442
g54
(dp4443
sg63
g4437
sg56
(lp4444
g49
(g50
g51
NtRp4445
(dp4446
g54
(dp4447
g62
I1
ssg63
g4441
sg56
(lp4448
g3949
(S's\t\x00\x00\x00Community'
tRp4449
asbasbasbag49
(g65
g51
NtRp4450
(dp4451
g54
(dp4452
sg63
g4433
sg56
(lp4453
g49
(g70
g51
NtRp4454
(dp4455
g54
(dp4456
sg63
g4450
sg56
(lp4457
g49
(g50
g51
NtRp4458
(dp4459
g54
(dp4460
g62
I1
ssg63
g4454
sg56
(lp4461
I00
asbasbasbag49
(g65
g51
NtRp4462
(dp4463
g54
(dp4464
sg63
g4433
sg56
(lp4465
g49
(g70
g51
NtRp4466
(dp4467
g54
(dp4468
sg63
g4462
sg56
(lp4469
g49
(g50
g51
NtRp4470
(dp4471
g54
(dp4472
g62
I1
ssg63
g4466
sg56
(lp4473
Nasbasbasbag49
(g65
g51
NtRp4474
(dp4475
g54
(dp4476
sg63
g4433
sg56
(lp4477
g49
(g70
g51
NtRp4478
(dp4479
g54
(dp4480
sg63
g4474
sg56
(lp4481
g49
(g50
g51
NtRp4482
(dp4483
g54
(dp4484
g62
I1
ssg63
g4478
sg56
(lp4485
(lp4486
(g3949
(S's\x06\x00\x00\x00Groups'
tRp4487
I00
S'http://www.web2py.com/examples/default/usergroups'
p4488
tp4489
a(g3949
(S's\x07\x00\x00\x00Twitter'
tRp4490
I00
S'http://twitter.com/web2py'
p4491
tp4492
a(g3949
(S's\t\x00\x00\x00Live Chat'
tRp4493
I00
S'http://webchat.freenode.net/?channels=web2py'
p4494
tp4495
aasbasbasbasbasbasbasbag49
(g65
g51
NtRp4496
(dp4497
g54
(dp4498
sg63
g4063
sg56
(lp4499
g49
(g70
g51
NtRp4500
(dp4501
g54
(dp4502
sg63
g4496
sg56
(lp4503
g49
(g50
g51
NtRp4504
(dp4505
g54
(dp4506
g62
I2
ssg63
g4500
sg56
(lp4507
g49
(g58
g51
NtRp4508
(dp4509
g54
(dp4510
g62
I1
ssg63
Nsg56
(lp4511
g49
(g65
g51
NtRp4512
(dp4513
g54
(dp4514
sg63
g4508
sg56
(lp4515
g49
(g70
g51
NtRp4516
(dp4517
g54
(dp4518
sg63
g4512
sg56
(lp4519
g49
(g50
g51
NtRp4520
(dp4521
g54
(dp4522
g62
I1
ssg63
g4516
sg56
(lp4523
g3949
(S's\x07\x00\x00\x00Plugins'
tRp4524
asbasbasbag49
(g65
g51
NtRp4525
(dp4526
g54
(dp4527
sg63
g4508
sg56
(lp4528
g49
(g70
g51
NtRp4529
(dp4530
g54
(dp4531
sg63
g4525
sg56
(lp4532
g49
(g50
g51
NtRp4533
(dp4534
g54
(dp4535
g62
I1
ssg63
g4529
sg56
(lp4536
I00
asbasbasbag49
(g65
g51
NtRp4537
(dp4538
g54
(dp4539
sg63
g4508
sg56
(lp4540
g49
(g70
g51
NtRp4541
(dp4542
g54
(dp4543
sg63
g4537
sg56
(lp4544
g49
(g50
g51
NtRp4545
(dp4546
g54
(dp4547
g62
I1
ssg63
g4541
sg56
(lp4548
Nasbasbasbag49
(g65
g51
NtRp4549
(dp4550
g54
(dp4551
sg63
g4508
sg56
(lp4552
g49
(g70
g51
NtRp4553
(dp4554
g54
(dp4555
sg63
g4549
sg56
(lp4556
g49
(g50
g51
NtRp4557
(dp4558
g54
(dp4559
g62
I1
ssg63
g4553
sg56
(lp4560
(lp4561
(S'plugin_wiki'
p4562
I00
S'http://web2py.com/examples/default/download'
p4563
tp4564
a(g3949
(S's\r\x00\x00\x00Other Plugins'
tRp4565
I00
g4295
tp4566
a(g3949
(S's\x0e\x00\x00\x00Layout Plugins'
tRp4567
I00
g4298
tp4568
aasbasbasbasbasbasbasbasbasbasbasbasbasbasbasbasbasbasbasbag49
(g65
g51
NtRp4569
(dp4570
g54
(dp4571
sg63
g3413
sg56
(lp4572
g49
(g70
g51
NtRp4573
(dp4574
g54
(dp4575
g74
g75
ssg63
g4569
sg56
(lp4576
S'meta'
p4577
asbag49
(g70
g51
NtRp4578
(dp4579
g54
(dp4580
g81
g82
ssg63
g4569
sg56
(lp4581
S':'
asbag49
(g70
g51
NtRp4582
(dp4583
g54
(dp4584
sg63
g4569
sg56
(lp4585
g49
(g50
g51
NtRp4586
(dp4587
g54
(dp4588
g62
I5
ssg63
g4582
sg56
(lp4589
g49
(g58
g51
NtRp4590
(dp4591
g54
(dp4592
g62
I4
ssg63
Nsg56
(lp4593
g49
(g65
g51
NtRp4594
(dp4595
g54
(dp4596
sg63
g4590
sg56
(lp4597
g49
(g70
g51
NtRp4598
(dp4599
g54
(dp4600
g74
g75
ssg63
g4594
sg56
(lp4601
S'author'
p4602
asbag49
(g70
g51
NtRp4603
(dp4604
g54
(dp4605
g81
g82
ssg63
g4594
sg56
(lp4606
S':'
asbag49
(g70
g51
NtRp4607
(dp4608
g54
(dp4609
sg63
g4594
sg56
(lp4610
g49
(g50
g51
NtRp4611
(dp4612
g54
(dp4613
g62
I4
ssg63
g4607
sg56
(lp4614
S'Your Name <you@example.com>'
p4615
asbasbasbag49
(g65
g51
NtRp4616
(dp4617
g54
(dp4618
sg63
g4590
sg56
(lp4619
g49
(g70
g51
NtRp4620
(dp4621
g54
(dp4622
g74
g75
ssg63
g4616
sg56
(lp4623
S'copyright'
p4624
asbag49
(g70
g51
NtRp4625
(dp4626
g54
(dp4627
g81
g82
ssg63
g4616
sg56
(lp4628
S':'
asbag49
(g70
g51
NtRp4629
(dp4630
g54
(dp4631
sg63
g4616
sg56
(lp4632
g49
(g50
g51
NtRp4633
(dp4634
g54
(dp4635
g62
I4
ssg63
g4629
sg56
(lp4636
S'Copyright 2011'
p4637
asbasbasbag49
(g65
g51
NtRp4638
(dp4639
g54
(dp4640
sg63
g4590
sg56
(lp4641
g49
(g70
g51
NtRp4642
(dp4643
g54
(dp4644
g74
g75
ssg63
g4638
sg56
(lp4645
S'description'
p4646
asbag49
(g70
g51
NtRp4647
(dp4648
g54
(dp4649
g81
g82
ssg63
g4638
sg56
(lp4650
S':'
asbag49
(g70
g51
NtRp4651
(dp4652
g54
(dp4653
sg63
g4638
sg56
(lp4654
g49
(g50
g51
NtRp4655
(dp4656
g54
(dp4657
g62
I4
ssg63
g4651
sg56
(lp4658
S'a cool new app'
p4659
asbasbasbag49
(g65
g51
NtRp4660
(dp4661
g54
(dp4662
sg63
g4590
sg56
(lp4663
g49
(g70
g51
NtRp4664
(dp4665
g54
(dp4666
g74
g75
ssg63
g4660
sg56
(lp4667
S'generator'
p4668
asbag49
(g70
g51
NtRp4669
(dp4670
g54
(dp4671
g81
g82
ssg63
g4660
sg56
(lp4672
S':'
asbag49
(g70
g51
NtRp4673
(dp4674
g54
(dp4675
sg63
g4660
sg56
(lp4676
g49
(g50
g51
NtRp4677
(dp4678
g54
(dp4679
g62
I4
ssg63
g4673
sg56
(lp4680
S'Web2py Web Framework'
p4681
asbasbasbag49
(g65
g51
NtRp4682
(dp4683
g54
(dp4684
sg63
g4590
sg56
(lp4685
g49
(g70
g51
NtRp4686
(dp4687
g54
(dp4688
g74
g75
ssg63
g4682
sg56
(lp4689
S'keywords'
p4690
asbag49
(g70
g51
NtRp4691
(dp4692
g54
(dp4693
g81
g82
ssg63
g4682
sg56
(lp4694
S':'
asbag49
(g70
g51
NtRp4695
(dp4696
g54
(dp4697
sg63
g4682
sg56
(lp4698
g49
(g50
g51
NtRp4699
(dp4700
g54
(dp4701
g62
I4
ssg63
g4695
sg56
(lp4702
S'web2py, python, framework'
p4703
asbasbasbasbasbasbasbag49
(g65
g51
NtRp4704
(dp4705
g54
(dp4706
sg63
g3413
sg56
(lp4707
g49
(g70
g51
NtRp4708
(dp4709
g54
(dp4710
g74
g75
ssg63
g4704
sg56
(lp4711
S'postprocessing'
p4712
asbag49
(g70
g51
NtRp4713
(dp4714
g54
(dp4715
g81
g82
ssg63
g4704
sg56
(lp4716
S':'
asbag49
(g70
g51
NtRp4717
(dp4718
g54
(dp4719
sg63
g4704
sg56
(lp4720
g49
(g50
g51
NtRp4721
(dp4722
g54
(dp4723
g62
I5
ssg63
g4717
sg56
(lp4724
g49
(g58
g51
NtRp4725
(dp4726
g54
(dp4727
g62
I4
ssg63
Nsg56
(lp4728
sbasbasbasbag49
(g65
g51
NtRp4729
(dp4730
g54
(dp4731
sg63
g3413
sg56
(lp4732
g49
(g70
g51
NtRp4733
(dp4734
g54
(dp4735
g74
g75
ssg63
g4729
sg56
(lp4736
S'session_file'
p4737
asbag49
(g70
g51
NtRp4738
(dp4739
g54
(dp4740
g81
g82
ssg63
g4729
sg56
(lp4741
S':'
asbag49
(g70
g51
NtRp4742
(dp4743
g54
(dp4744
sg63
g4729
sg56
(lp4745
g49
(g50
g51
NtRp4746
(dp4747
g54
(dp4748
g62
I5
ssg63
g4742
sg56
(lp4749
S"<open file 'C:\\Users\\Osku\\koodaus\\web2py\\applications\\sitsit\\sessions\\127.0.0.1-ec2284ba-32fe-4a19-9a6f-e97c370381b5', mode 'rb+' at 0x0568BAD0>"
p4750
asbasbasbag49
(g65
g51
NtRp4751
(dp4752
g54
(dp4753
sg63
g3413
sg56
(lp4754
g49
(g70
g51
NtRp4755
(dp4756
g54
(dp4757
g74
g75
ssg63
g4751
sg56
(lp4758
S'session_filename'
p4759
asbag49
(g70
g51
NtRp4760
(dp4761
g54
(dp4762
g81
g82
ssg63
g4751
sg56
(lp4763
S':'
asbag49
(g70
g51
NtRp4764
(dp4765
g54
(dp4766
sg63
g4751
sg56
(lp4767
g49
(g50
g51
NtRp4768
(dp4769
g54
(dp4770
g62
I5
ssg63
g4764
sg56
(lp4771
S'C:\\Users\\Osku\\koodaus\\web2py\\applications\\sitsit\\sessions\\127.0.0.1-ec2284ba-32fe-4a19-9a6f-e97c370381b5'
p4772
asbasbasbag49
(g65
g51
NtRp4773
(dp4774
g54
(dp4775
sg63
g3413
sg56
(lp4776
g49
(g70
g51
NtRp4777
(dp4778
g54
(dp4779
g74
g75
ssg63
g4773
sg56
(lp4780
S'session_id'
p4781
asbag49
(g70
g51
NtRp4782
(dp4783
g54
(dp4784
g81
g82
ssg63
g4773
sg56
(lp4785
S':'
asbag49
(g70
g51
NtRp4786
(dp4787
g54
(dp4788
sg63
g4773
sg56
(lp4789
g49
(g50
g51
NtRp4790
(dp4791
g54
(dp4792
g62
I5
ssg63
g4786
sg56
(lp4793
S'127.0.0.1-ec2284ba-32fe-4a19-9a6f-e97c370381b5'
p4794
asbasbasbag49
(g65
g51
NtRp4795
(dp4796
g54
(dp4797
sg63
g3413
sg56
(lp4798
g49
(g70
g51
NtRp4799
(dp4800
g54
(dp4801
g74
g75
ssg63
g4795
sg56
(lp4802
S'session_id_name'
p4803
asbag49
(g70
g51
NtRp4804
(dp4805
g54
(dp4806
g81
g82
ssg63
g4795
sg56
(lp4807
S':'
asbag49
(g70
g51
NtRp4808
(dp4809
g54
(dp4810
sg63
g4795
sg56
(lp4811
g49
(g50
g51
NtRp4812
(dp4813
g54
(dp4814
g62
I5
ssg63
g4808
sg56
(lp4815
g3470
asbasbasbag49
(g65
g51
NtRp4816
(dp4817
g54
(dp4818
sg63
g3413
sg56
(lp4819
g49
(g70
g51
NtRp4820
(dp4821
g54
(dp4822
g74
g75
ssg63
g4816
sg56
(lp4823
S'session_locked'
p4824
asbag49
(g70
g51
NtRp4825
(dp4826
g54
(dp4827
g81
g82
ssg63
g4816
sg56
(lp4828
S':'
asbag49
(g70
g51
NtRp4829
(dp4830
g54
(dp4831
sg63
g4816
sg56
(lp4832
g49
(g50
g51
NtRp4833
(dp4834
g54
(dp4835
g62
I5
ssg63
g4829
sg56
(lp4836
g1621
asbasbasbag49
(g65
g51
NtRp4837
(dp4838
g54
(dp4839
sg63
g3413
sg56
(lp4840
g49
(g70
g51
NtRp4841
(dp4842
g54
(dp4843
g74
g75
ssg63
g4837
sg56
(lp4844
S'session_new'
p4845
asbag49
(g70
g51
NtRp4846
(dp4847
g54
(dp4848
g81
g82
ssg63
g4837
sg56
(lp4849
S':'
asbag49
(g70
g51
NtRp4850
(dp4851
g54
(dp4852
sg63
g4837
sg56
(lp4853
g49
(g50
g51
NtRp4854
(dp4855
g54
(dp4856
g62
I5
ssg63
g4850
sg56
(lp4857
g92
asbasbasbag49
(g65
g51
NtRp4858
(dp4859
g54
(dp4860
sg63
g3413
sg56
(lp4861
g49
(g70
g51
NtRp4862
(dp4863
g54
(dp4864
g74
g75
ssg63
g4858
sg56
(lp4865
S'status'
p4866
asbag49
(g70
g51
NtRp4867
(dp4868
g54
(dp4869
g81
g82
ssg63
g4858
sg56
(lp4870
S':'
asbag49
(g70
g51
NtRp4871
(dp4872
g54
(dp4873
sg63
g4858
sg56
(lp4874
g49
(g50
g51
NtRp4875
(dp4876
g54
(dp4877
g62
I5
ssg63
g4871
sg56
(lp4878
S'200'
p4879
asbasbasbag49
(g65
g51
NtRp4880
(dp4881
g54
(dp4882
sg63
g3413
sg56
(lp4883
g49
(g70
g51
NtRp4884
(dp4885
g54
(dp4886
g74
g75
ssg63
g4880
sg56
(lp4887
S'subtitle'
p4888
asbag49
(g70
g51
NtRp4889
(dp4890
g54
(dp4891
g81
g82
ssg63
g4880
sg56
(lp4892
S':'
asbag49
(g70
g51
NtRp4893
(dp4894
g54
(dp4895
sg63
g4880
sg56
(lp4896
g49
(g50
g51
NtRp4897
(dp4898
g54
(dp4899
g62
I5
ssg63
g4893
sg56
(lp4900
g3949
(S's\r\x00\x00\x00customize me!'
tRp4901
asbasbasbag49
(g65
g51
NtRp4902
(dp4903
g54
(dp4904
sg63
g3413
sg56
(lp4905
g49
(g70
g51
NtRp4906
(dp4907
g54
(dp4908
g74
g75
ssg63
g4902
sg56
(lp4909
S'title'
p4910
asbag49
(g70
g51
NtRp4911
(dp4912
g54
(dp4913
g81
g82
ssg63
g4902
sg56
(lp4914
S':'
asbag49
(g70
g51
NtRp4915
(dp4916
g54
(dp4917
sg63
g4902
sg56
(lp4918
g49
(g50
g51
NtRp4919
(dp4920
g54
(dp4921
g62
I5
ssg63
g4915
sg56
(lp4922
S'Sitsit'
p4923
asbasbasbag49
(g65
g51
NtRp4924
(dp4925
g54
(dp4926
sg63
g3413
sg56
(lp4927
g49
(g70
g51
NtRp4928
(dp4929
g54
(dp4930
g74
g75
ssg63
g4924
sg56
(lp4931
g2306
asbag49
(g70
g51
NtRp4932
(dp4933
g54
(dp4934
g81
g82
ssg63
g4924
sg56
(lp4935
S':'
asbag49
(g70
g51
NtRp4936
(dp4937
g54
(dp4938
sg63
g4924
sg56
(lp4939
g49
(g50
g51
NtRp4940
(dp4941
g54
(dp4942
g62
I5
ssg63
g4936
sg56
(lp4943
g2319
asbasbasbag49
(g65
g51
NtRp4944
(dp4945
g54
(dp4946
sg63
g3413
sg56
(lp4947
g49
(g70
g51
NtRp4948
(dp4949
g54
(dp4950
g74
g75
ssg63
g4944
sg56
(lp4951
S'view'
p4952
asbag49
(g70
g51
NtRp4953
(dp4954
g54
(dp4955
g81
g82
ssg63
g4944
sg56
(lp4956
S':'
asbag49
(g70
g51
NtRp4957
(dp4958
g54
(dp4959
sg63
g4944
sg56
(lp4960
g49
(g50
g51
NtRp4961
(dp4962
g54
(dp4963
g62
I5
ssg63
g4957
sg56
(lp4964
S'default/sitsit.html'
p4965
asbasbasbasbasbsS'locals'
p4966
(dp4967
S'sitsiID'
p4968
S"'5'"
p4969
sg3014
S'None'
p4970
sssS'traceback'
p4971
S'Traceback (most recent call last):\n  File "gluon/restricted.py", line 205, in restricted\n  File "C:\\Users\\Osku\\koodaus\\web2py\\applications\\sitsit\\controllers/default.py", line 82, in <module>\n  File "gluon/globals.py", line 173, in <lambda>\n  File "C:\\Users\\Osku\\koodaus\\web2py\\applications\\sitsit\\controllers/default.py", line 27, in sitsit\nAttributeError: \'NoneType\' object has no attribute \'as_dict\'\n'
p4972
s.