(dp1
S'output'
p2
S"<type 'exceptions.IndentationError'> unindent does not match any outer indentation level (controllers/default.py, line 44)"
p3
sS'layer'
p4
S'C:\\Users\\Osku\\koodaus\\web2py\\applications\\sitsit\\controllers/default.py'
p5
sS'code'
p6
S'# -*- coding: utf-8 -*-\n# this file is released under public domain and you can use without limitations\n\n#########################################################################\n## This is a samples controller\n## - index is the default action of any application\n## - user is required for authentication and authorization\n## - download is for downloading files uploaded in the db (does streaming)\n## - call exposes all registered services (none by default)\n#########################################################################\n\ndef index():\n    """\n    example action using the internationalization operator T and flash\n    rendered by views/default/index.html or views/generic.html\n    """\n    response.flash = "Welcome to web2py!"\n    return dict(message=T(\'Hello World\'))\n\n\ndef sitsit(): \n\tif len(request.args) == 0:\n\t\tresponse.view = "%s/%s.%s" % (request.controller, request.function+"new", request.extension)\n\t\tform = SQLFORM(db.party)\n\t\tif form.process().accepted:\n\t\t\treturn redirect(URL(args=form.vars.id))\n\t\treturn dict(form=form)\n\tif len(request.args):\n\t\tsitsiID = request.args[0]\n\t\tsitsi = db.party[sitsiID]\n\t\tpeople = db(db.guest_party_attending.party == sitsiID).select().as_dict()\n\t\towner=False\n\t\tif auth.is_logged_in():\n\t\t\tif auth.user.id == sitsi.owner:\n\t\t\t\towner=True\n\t\tif sitsit:\n\t\t\treturn dict(sitsi=sitsi.as_dict(),found=True,people=people,owner=owner)\n\t\telse:\n\t\t\treturn dict(found=False)\n\t\t\t\ndef join():\n\tif auth.is_logged_in():\n\t\treturn "Successfully joined "+ auth.user.first_name\n    return "False"\n\ndef user():\n    """\n    exposes:\n    http://..../[app]/default/user/login\n    http://..../[app]/default/user/logout\n    http://..../[app]/default/user/register\n    http://..../[app]/default/user/profile\n    http://..../[app]/default/user/retrieve_password\n    http://..../[app]/default/user/change_password\n    use @auth.requires_login()\n        @auth.requires_membership(\'group name\')\n        @auth.requires_permission(\'read\',\'table name\',record_id)\n    to decorate functions that need access control\n    """\n    return dict(form=auth())\n\n\ndef download():\n    """\n    allows downloading of uploaded files\n    http://..../[app]/default/download/[filename]\n    """\n    return response.download(request,db)\n\n\ndef call():\n    """\n    exposes services. for example:\n    http://..../[app]/default/call/jsonrpc\n    decorate with @services.jsonrpc the functions to expose\n    supports xml, json, xmlrpc, jsonrpc, amfrpc, rss, csv\n    """\n    return service()\n\n\n@auth.requires_signature()\ndef data():\n    """\n    http://..../[app]/default/data/tables\n    http://..../[app]/default/data/create/[table]\n    http://..../[app]/default/data/read/[table]/[id]\n    http://..../[app]/default/data/update/[table]/[id]\n    http://..../[app]/default/data/delete/[table]/[id]\n    http://..../[app]/default/data/select/[table]\n    http://..../[app]/default/data/search/[table]\n    but URLs must be signed, i.e. linked with\n      A(\'table\',_href=URL(\'data/tables\',user_signature=True))\n    or with the signed load operator\n      LOAD(\'default\',\'data.load\',args=\'tables\',ajax=True,user_signature=True)\n    """\n    return dict(form=crud())\n\n\nresponse._vars=response._caller(sitsit)\n'
p7
sS'snapshot'
p8
(dp9
S'exception'
p10
(dp11
S'__getslice__'
p12
S"<method-wrapper '__getslice__' of exceptions.IndentationError object at 0x04DFA7F0>"
p13
sS'text'
p14
S'\'    return "False"\\n\''
p15
sS'__str__'
p16
S"<method-wrapper '__str__' of exceptions.IndentationError object at 0x04DFA7F0>"
p17
sS'__reduce__'
p18
S'<built-in method __reduce__ of exceptions.IndentationError object at 0x04DFA7F0>'
p19
sS'__dict__'
p20
S'{}'
p21
sS'__init__'
p22
S"<method-wrapper '__init__' of exceptions.IndentationError object at 0x04DFA7F0>"
p23
sS'__setattr__'
p24
S"<method-wrapper '__setattr__' of exceptions.IndentationError object at 0x04DFA7F0>"
p25
sS'__reduce_ex__'
p26
S'<built-in method __reduce_ex__ of exceptions.IndentationError object at 0x04DFA7F0>'
p27
sS'__new__'
p28
S'<built-in method __new__ of type object at 0x1E1CDC98>'
p29
sS'__class__'
p30
S"<type 'exceptions.IndentationError'>"
p31
sS'filename'
p32
S"r'C:\\Users\\Osku\\koodaus\\web2py\\applications\\sitsit\\controllers/default.py'"
p33
sS'lineno'
p34
S'44'
p35
sS'msg'
p36
S"'unindent does not match any outer indentation level'"
p37
sS'__doc__'
p38
S"'Improper indentation.'"
p39
sS'__getitem__'
p40
S"<method-wrapper '__getitem__' of exceptions.IndentationError object at 0x04DFA7F0>"
p41
sS'__setstate__'
p42
S'<built-in method __setstate__ of exceptions.IndentationError object at 0x04DFA7F0>'
p43
sS'__getattribute__'
p44
S"<method-wrapper '__getattribute__' of exceptions.IndentationError object at 0x04DFA7F0>"
p45
sS'print_file_and_line'
p46
S'None'
p47
sS'args'
p48
S'(\'unindent does not match any outer indentation level\', (r\'C:\\Users\\Osku\\koodaus\\web2py\\applications\\sitsit\\controllers/default.py\', 44, 19, \'    return "False"\\n\'))'
p49
sS'offset'
p50
S'19'
p51
sS'__delattr__'
p52
S"<method-wrapper '__delattr__' of exceptions.IndentationError object at 0x04DFA7F0>"
p53
sS'__repr__'
p54
S"<method-wrapper '__repr__' of exceptions.IndentationError object at 0x04DFA7F0>"
p55
sS'__hash__'
p56
S"<method-wrapper '__hash__' of exceptions.IndentationError object at 0x04DFA7F0>"
p57
ssS'evalue'
p58
S'unindent does not match any outer indentation level (controllers/default.py, line 44)'
p59
sS'request'
p60
ccopy_reg
_reconstructor
p61
(cgluon.html
BEAUTIFY
p62
c__builtin__
object
p63
NtRp64
(dp65
S'attributes'
p66
(dp67
sS'components'
p68
(lp69
g61
(cgluon.html
TABLE
p70
g63
NtRp71
(dp72
g66
(dp73
S'level'
p74
I5
ssS'parent'
p75
Nsg68
(lp76
g61
(cgluon.html
TR
p77
g63
NtRp78
(dp79
g66
(dp80
sg75
g71
sg68
(lp81
g61
(cgluon.html
TD
p82
g63
NtRp83
(dp84
g66
(dp85
S'_style'
p86
S'font-weight:bold;vertical-align:top'
p87
ssg75
g78
sg68
(lp88
S'ajax'
p89
asbag61
(g82
g63
NtRp90
(dp91
g66
(dp92
S'_valign'
p93
S'top'
p94
ssg75
g78
sg68
(lp95
S':'
asbag61
(g82
g63
NtRp96
(dp97
g66
(dp98
sg75
g78
sg68
(lp99
g61
(g62
g63
NtRp100
(dp101
g66
(dp102
g74
I5
ssg75
g96
sg68
(lp103
S'False'
p104
asbasbasbag61
(g77
g63
NtRp105
(dp106
g66
(dp107
sg75
g71
sg68
(lp108
g61
(g82
g63
NtRp109
(dp110
g66
(dp111
g86
g87
ssg75
g105
sg68
(lp112
S'application'
p113
asbag61
(g82
g63
NtRp114
(dp115
g66
(dp116
g93
g94
ssg75
g105
sg68
(lp117
S':'
asbag61
(g82
g63
NtRp118
(dp119
g66
(dp120
sg75
g105
sg68
(lp121
g61
(g62
g63
NtRp122
(dp123
g66
(dp124
g74
I5
ssg75
g118
sg68
(lp125
S'sitsit'
p126
asbasbasbag61
(g77
g63
NtRp127
(dp128
g66
(dp129
sg75
g71
sg68
(lp130
g61
(g82
g63
NtRp131
(dp132
g66
(dp133
g86
g87
ssg75
g127
sg68
(lp134
g48
asbag61
(g82
g63
NtRp135
(dp136
g66
(dp137
g93
g94
ssg75
g127
sg68
(lp138
S':'
asbag61
(g82
g63
NtRp139
(dp140
g66
(dp141
sg75
g127
sg68
(lp142
g61
(g62
g63
NtRp143
(dp144
g66
(dp145
g74
I5
ssg75
g139
sg68
(lp146
g61
(g70
g63
NtRp147
(dp148
g66
(dp149
g74
I4
ssg75
Nsg68
(lp150
g61
(g77
g63
NtRp151
(dp152
g66
(dp153
sg75
g147
sg68
(lp154
g61
(g82
g63
NtRp155
(dp156
g66
(dp157
sg75
g151
sg68
(lp158
g61
(g62
g63
NtRp159
(dp160
g66
(dp161
g74
I4
ssg75
g155
sg68
(lp162
S'1'
asbasbasbasbasbasbasbag61
(g77
g63
NtRp163
(dp164
g66
(dp165
sg75
g71
sg68
(lp166
g61
(g82
g63
NtRp167
(dp168
g66
(dp169
g86
g87
ssg75
g163
sg68
(lp170
S'body'
p171
asbag61
(g82
g63
NtRp172
(dp173
g66
(dp174
g93
g94
ssg75
g163
sg68
(lp175
S':'
asbag61
(g82
g63
NtRp176
(dp177
g66
(dp178
sg75
g163
sg68
(lp179
g61
(g62
g63
NtRp180
(dp181
g66
(dp182
g74
I5
ssg75
g176
sg68
(lp183
S'<cStringIO.StringO object at 0x0534E4E0>'
p184
asbasbasbag61
(g77
g63
NtRp185
(dp186
g66
(dp187
sg75
g71
sg68
(lp188
g61
(g82
g63
NtRp189
(dp190
g66
(dp191
g86
g87
ssg75
g185
sg68
(lp192
S'client'
p193
asbag61
(g82
g63
NtRp194
(dp195
g66
(dp196
g93
g94
ssg75
g185
sg68
(lp197
S':'
asbag61
(g82
g63
NtRp198
(dp199
g66
(dp200
sg75
g185
sg68
(lp201
g61
(g62
g63
NtRp202
(dp203
g66
(dp204
g74
I5
ssg75
g198
sg68
(lp205
S'127.0.0.1'
p206
asbasbasbag61
(g77
g63
NtRp207
(dp208
g66
(dp209
sg75
g71
sg68
(lp210
g61
(g82
g63
NtRp211
(dp212
g66
(dp213
g86
g87
ssg75
g207
sg68
(lp214
S'controller'
p215
asbag61
(g82
g63
NtRp216
(dp217
g66
(dp218
g93
g94
ssg75
g207
sg68
(lp219
S':'
asbag61
(g82
g63
NtRp220
(dp221
g66
(dp222
sg75
g207
sg68
(lp223
g61
(g62
g63
NtRp224
(dp225
g66
(dp226
g74
I5
ssg75
g220
sg68
(lp227
S'default'
p228
asbasbasbag61
(g77
g63
NtRp229
(dp230
g66
(dp231
sg75
g71
sg68
(lp232
g61
(g82
g63
NtRp233
(dp234
g66
(dp235
g86
g87
ssg75
g229
sg68
(lp236
S'cookies'
p237
asbag61
(g82
g63
NtRp238
(dp239
g66
(dp240
g93
g94
ssg75
g229
sg68
(lp241
S':'
asbag61
(g82
g63
NtRp242
(dp243
g66
(dp244
sg75
g229
sg68
(lp245
g61
(g62
g63
NtRp246
(dp247
g66
(dp248
g74
I5
ssg75
g242
sg68
(lp249
g61
(g70
g63
NtRp250
(dp251
g66
(dp252
g74
I4
ssg75
Nsg68
(lp253
g61
(g77
g63
NtRp254
(dp255
g66
(dp256
sg75
g250
sg68
(lp257
g61
(g82
g63
NtRp258
(dp259
g66
(dp260
g86
g87
ssg75
g254
sg68
(lp261
S'session_id_admin'
p262
asbag61
(g82
g63
NtRp263
(dp264
g66
(dp265
g93
g94
ssg75
g254
sg68
(lp266
S':'
asbag61
(g82
g63
NtRp267
(dp268
g66
(dp269
sg75
g254
sg68
(lp270
g61
(g62
g63
NtRp271
(dp272
g66
(dp273
g74
I4
ssg75
g267
sg68
(lp274
g61
(g70
g63
NtRp275
(dp276
g66
(dp277
g74
I3
ssg75
Nsg68
(lp278
g61
(g77
g63
NtRp279
(dp280
g66
(dp281
sg75
g275
sg68
(lp282
g61
(g82
g63
NtRp283
(dp284
g66
(dp285
g86
g87
ssg75
g279
sg68
(lp286
S'comment'
p287
asbag61
(g82
g63
NtRp288
(dp289
g66
(dp290
g93
g94
ssg75
g279
sg68
(lp291
S':'
asbag61
(g82
g63
NtRp292
(dp293
g66
(dp294
sg75
g279
sg68
(lp295
g61
(g62
g63
NtRp296
(dp297
g66
(dp298
g74
I3
ssg75
g292
sg68
(lp299
S''
asbasbasbag61
(g77
g63
NtRp300
(dp301
g66
(dp302
sg75
g275
sg68
(lp303
g61
(g82
g63
NtRp304
(dp305
g66
(dp306
g86
g87
ssg75
g300
sg68
(lp307
S'domain'
p308
asbag61
(g82
g63
NtRp309
(dp310
g66
(dp311
g93
g94
ssg75
g300
sg68
(lp312
S':'
asbag61
(g82
g63
NtRp313
(dp314
g66
(dp315
sg75
g300
sg68
(lp316
g61
(g62
g63
NtRp317
(dp318
g66
(dp319
g74
I3
ssg75
g313
sg68
(lp320
S''
asbasbasbag61
(g77
g63
NtRp321
(dp322
g66
(dp323
sg75
g275
sg68
(lp324
g61
(g82
g63
NtRp325
(dp326
g66
(dp327
g86
g87
ssg75
g321
sg68
(lp328
S'expires'
p329
asbag61
(g82
g63
NtRp330
(dp331
g66
(dp332
g93
g94
ssg75
g321
sg68
(lp333
S':'
asbag61
(g82
g63
NtRp334
(dp335
g66
(dp336
sg75
g321
sg68
(lp337
g61
(g62
g63
NtRp338
(dp339
g66
(dp340
g74
I3
ssg75
g334
sg68
(lp341
S''
asbasbasbag61
(g77
g63
NtRp342
(dp343
g66
(dp344
sg75
g275
sg68
(lp345
g61
(g82
g63
NtRp346
(dp347
g66
(dp348
g86
g87
ssg75
g342
sg68
(lp349
S'max-age'
p350
asbag61
(g82
g63
NtRp351
(dp352
g66
(dp353
g93
g94
ssg75
g342
sg68
(lp354
S':'
asbag61
(g82
g63
NtRp355
(dp356
g66
(dp357
sg75
g342
sg68
(lp358
g61
(g62
g63
NtRp359
(dp360
g66
(dp361
g74
I3
ssg75
g355
sg68
(lp362
S''
asbasbasbag61
(g77
g63
NtRp363
(dp364
g66
(dp365
sg75
g275
sg68
(lp366
g61
(g82
g63
NtRp367
(dp368
g66
(dp369
g86
g87
ssg75
g363
sg68
(lp370
S'path'
p371
asbag61
(g82
g63
NtRp372
(dp373
g66
(dp374
g93
g94
ssg75
g363
sg68
(lp375
S':'
asbag61
(g82
g63
NtRp376
(dp377
g66
(dp378
sg75
g363
sg68
(lp379
g61
(g62
g63
NtRp380
(dp381
g66
(dp382
g74
I3
ssg75
g376
sg68
(lp383
S''
asbasbasbag61
(g77
g63
NtRp384
(dp385
g66
(dp386
sg75
g275
sg68
(lp387
g61
(g82
g63
NtRp388
(dp389
g66
(dp390
g86
g87
ssg75
g384
sg68
(lp391
S'secure'
p392
asbag61
(g82
g63
NtRp393
(dp394
g66
(dp395
g93
g94
ssg75
g384
sg68
(lp396
S':'
asbag61
(g82
g63
NtRp397
(dp398
g66
(dp399
sg75
g384
sg68
(lp400
g61
(g62
g63
NtRp401
(dp402
g66
(dp403
g74
I3
ssg75
g397
sg68
(lp404
S''
asbasbasbag61
(g77
g63
NtRp405
(dp406
g66
(dp407
sg75
g275
sg68
(lp408
g61
(g82
g63
NtRp409
(dp410
g66
(dp411
g86
g87
ssg75
g405
sg68
(lp412
S'version'
p413
asbag61
(g82
g63
NtRp414
(dp415
g66
(dp416
g93
g94
ssg75
g405
sg68
(lp417
S':'
asbag61
(g82
g63
NtRp418
(dp419
g66
(dp420
sg75
g405
sg68
(lp421
g61
(g62
g63
NtRp422
(dp423
g66
(dp424
g74
I3
ssg75
g418
sg68
(lp425
S''
asbasbasbasbasbasbasbag61
(g77
g63
NtRp426
(dp427
g66
(dp428
sg75
g250
sg68
(lp429
g61
(g82
g63
NtRp430
(dp431
g66
(dp432
g86
g87
ssg75
g426
sg68
(lp433
S'session_id_sitsit'
p434
asbag61
(g82
g63
NtRp435
(dp436
g66
(dp437
g93
g94
ssg75
g426
sg68
(lp438
S':'
asbag61
(g82
g63
NtRp439
(dp440
g66
(dp441
sg75
g426
sg68
(lp442
g61
(g62
g63
NtRp443
(dp444
g66
(dp445
g74
I4
ssg75
g439
sg68
(lp446
g61
(g70
g63
NtRp447
(dp448
g66
(dp449
g74
I3
ssg75
Nsg68
(lp450
g61
(g77
g63
NtRp451
(dp452
g66
(dp453
sg75
g447
sg68
(lp454
g61
(g82
g63
NtRp455
(dp456
g66
(dp457
g86
g87
ssg75
g451
sg68
(lp458
g287
asbag61
(g82
g63
NtRp459
(dp460
g66
(dp461
g93
g94
ssg75
g451
sg68
(lp462
S':'
asbag61
(g82
g63
NtRp463
(dp464
g66
(dp465
sg75
g451
sg68
(lp466
g61
(g62
g63
NtRp467
(dp468
g66
(dp469
g74
I3
ssg75
g463
sg68
(lp470
S''
asbasbasbag61
(g77
g63
NtRp471
(dp472
g66
(dp473
sg75
g447
sg68
(lp474
g61
(g82
g63
NtRp475
(dp476
g66
(dp477
g86
g87
ssg75
g471
sg68
(lp478
g308
asbag61
(g82
g63
NtRp479
(dp480
g66
(dp481
g93
g94
ssg75
g471
sg68
(lp482
S':'
asbag61
(g82
g63
NtRp483
(dp484
g66
(dp485
sg75
g471
sg68
(lp486
g61
(g62
g63
NtRp487
(dp488
g66
(dp489
g74
I3
ssg75
g483
sg68
(lp490
S''
asbasbasbag61
(g77
g63
NtRp491
(dp492
g66
(dp493
sg75
g447
sg68
(lp494
g61
(g82
g63
NtRp495
(dp496
g66
(dp497
g86
g87
ssg75
g491
sg68
(lp498
g329
asbag61
(g82
g63
NtRp499
(dp500
g66
(dp501
g93
g94
ssg75
g491
sg68
(lp502
S':'
asbag61
(g82
g63
NtRp503
(dp504
g66
(dp505
sg75
g491
sg68
(lp506
g61
(g62
g63
NtRp507
(dp508
g66
(dp509
g74
I3
ssg75
g503
sg68
(lp510
S''
asbasbasbag61
(g77
g63
NtRp511
(dp512
g66
(dp513
sg75
g447
sg68
(lp514
g61
(g82
g63
NtRp515
(dp516
g66
(dp517
g86
g87
ssg75
g511
sg68
(lp518
g350
asbag61
(g82
g63
NtRp519
(dp520
g66
(dp521
g93
g94
ssg75
g511
sg68
(lp522
S':'
asbag61
(g82
g63
NtRp523
(dp524
g66
(dp525
sg75
g511
sg68
(lp526
g61
(g62
g63
NtRp527
(dp528
g66
(dp529
g74
I3
ssg75
g523
sg68
(lp530
S''
asbasbasbag61
(g77
g63
NtRp531
(dp532
g66
(dp533
sg75
g447
sg68
(lp534
g61
(g82
g63
NtRp535
(dp536
g66
(dp537
g86
g87
ssg75
g531
sg68
(lp538
g371
asbag61
(g82
g63
NtRp539
(dp540
g66
(dp541
g93
g94
ssg75
g531
sg68
(lp542
S':'
asbag61
(g82
g63
NtRp543
(dp544
g66
(dp545
sg75
g531
sg68
(lp546
g61
(g62
g63
NtRp547
(dp548
g66
(dp549
g74
I3
ssg75
g543
sg68
(lp550
S''
asbasbasbag61
(g77
g63
NtRp551
(dp552
g66
(dp553
sg75
g447
sg68
(lp554
g61
(g82
g63
NtRp555
(dp556
g66
(dp557
g86
g87
ssg75
g551
sg68
(lp558
g392
asbag61
(g82
g63
NtRp559
(dp560
g66
(dp561
g93
g94
ssg75
g551
sg68
(lp562
S':'
asbag61
(g82
g63
NtRp563
(dp564
g66
(dp565
sg75
g551
sg68
(lp566
g61
(g62
g63
NtRp567
(dp568
g66
(dp569
g74
I3
ssg75
g563
sg68
(lp570
S''
asbasbasbag61
(g77
g63
NtRp571
(dp572
g66
(dp573
sg75
g447
sg68
(lp574
g61
(g82
g63
NtRp575
(dp576
g66
(dp577
g86
g87
ssg75
g571
sg68
(lp578
g413
asbag61
(g82
g63
NtRp579
(dp580
g66
(dp581
g93
g94
ssg75
g571
sg68
(lp582
S':'
asbag61
(g82
g63
NtRp583
(dp584
g66
(dp585
sg75
g571
sg68
(lp586
g61
(g62
g63
NtRp587
(dp588
g66
(dp589
g74
I3
ssg75
g583
sg68
(lp590
S''
asbasbasbasbasbasbasbag61
(g77
g63
NtRp591
(dp592
g66
(dp593
sg75
g250
sg68
(lp594
g61
(g82
g63
NtRp595
(dp596
g66
(dp597
g86
g87
ssg75
g591
sg68
(lp598
S'session_id_welcome'
p599
asbag61
(g82
g63
NtRp600
(dp601
g66
(dp602
g93
g94
ssg75
g591
sg68
(lp603
S':'
asbag61
(g82
g63
NtRp604
(dp605
g66
(dp606
sg75
g591
sg68
(lp607
g61
(g62
g63
NtRp608
(dp609
g66
(dp610
g74
I4
ssg75
g604
sg68
(lp611
g61
(g70
g63
NtRp612
(dp613
g66
(dp614
g74
I3
ssg75
Nsg68
(lp615
g61
(g77
g63
NtRp616
(dp617
g66
(dp618
sg75
g612
sg68
(lp619
g61
(g82
g63
NtRp620
(dp621
g66
(dp622
g86
g87
ssg75
g616
sg68
(lp623
g287
asbag61
(g82
g63
NtRp624
(dp625
g66
(dp626
g93
g94
ssg75
g616
sg68
(lp627
S':'
asbag61
(g82
g63
NtRp628
(dp629
g66
(dp630
sg75
g616
sg68
(lp631
g61
(g62
g63
NtRp632
(dp633
g66
(dp634
g74
I3
ssg75
g628
sg68
(lp635
S''
asbasbasbag61
(g77
g63
NtRp636
(dp637
g66
(dp638
sg75
g612
sg68
(lp639
g61
(g82
g63
NtRp640
(dp641
g66
(dp642
g86
g87
ssg75
g636
sg68
(lp643
g308
asbag61
(g82
g63
NtRp644
(dp645
g66
(dp646
g93
g94
ssg75
g636
sg68
(lp647
S':'
asbag61
(g82
g63
NtRp648
(dp649
g66
(dp650
sg75
g636
sg68
(lp651
g61
(g62
g63
NtRp652
(dp653
g66
(dp654
g74
I3
ssg75
g648
sg68
(lp655
S''
asbasbasbag61
(g77
g63
NtRp656
(dp657
g66
(dp658
sg75
g612
sg68
(lp659
g61
(g82
g63
NtRp660
(dp661
g66
(dp662
g86
g87
ssg75
g656
sg68
(lp663
g329
asbag61
(g82
g63
NtRp664
(dp665
g66
(dp666
g93
g94
ssg75
g656
sg68
(lp667
S':'
asbag61
(g82
g63
NtRp668
(dp669
g66
(dp670
sg75
g656
sg68
(lp671
g61
(g62
g63
NtRp672
(dp673
g66
(dp674
g74
I3
ssg75
g668
sg68
(lp675
S''
asbasbasbag61
(g77
g63
NtRp676
(dp677
g66
(dp678
sg75
g612
sg68
(lp679
g61
(g82
g63
NtRp680
(dp681
g66
(dp682
g86
g87
ssg75
g676
sg68
(lp683
g350
asbag61
(g82
g63
NtRp684
(dp685
g66
(dp686
g93
g94
ssg75
g676
sg68
(lp687
S':'
asbag61
(g82
g63
NtRp688
(dp689
g66
(dp690
sg75
g676
sg68
(lp691
g61
(g62
g63
NtRp692
(dp693
g66
(dp694
g74
I3
ssg75
g688
sg68
(lp695
S''
asbasbasbag61
(g77
g63
NtRp696
(dp697
g66
(dp698
sg75
g612
sg68
(lp699
g61
(g82
g63
NtRp700
(dp701
g66
(dp702
g86
g87
ssg75
g696
sg68
(lp703
g371
asbag61
(g82
g63
NtRp704
(dp705
g66
(dp706
g93
g94
ssg75
g696
sg68
(lp707
S':'
asbag61
(g82
g63
NtRp708
(dp709
g66
(dp710
sg75
g696
sg68
(lp711
g61
(g62
g63
NtRp712
(dp713
g66
(dp714
g74
I3
ssg75
g708
sg68
(lp715
S''
asbasbasbag61
(g77
g63
NtRp716
(dp717
g66
(dp718
sg75
g612
sg68
(lp719
g61
(g82
g63
NtRp720
(dp721
g66
(dp722
g86
g87
ssg75
g716
sg68
(lp723
g392
asbag61
(g82
g63
NtRp724
(dp725
g66
(dp726
g93
g94
ssg75
g716
sg68
(lp727
S':'
asbag61
(g82
g63
NtRp728
(dp729
g66
(dp730
sg75
g716
sg68
(lp731
g61
(g62
g63
NtRp732
(dp733
g66
(dp734
g74
I3
ssg75
g728
sg68
(lp735
S''
asbasbasbag61
(g77
g63
NtRp736
(dp737
g66
(dp738
sg75
g612
sg68
(lp739
g61
(g82
g63
NtRp740
(dp741
g66
(dp742
g86
g87
ssg75
g736
sg68
(lp743
g413
asbag61
(g82
g63
NtRp744
(dp745
g66
(dp746
g93
g94
ssg75
g736
sg68
(lp747
S':'
asbag61
(g82
g63
NtRp748
(dp749
g66
(dp750
sg75
g736
sg68
(lp751
g61
(g62
g63
NtRp752
(dp753
g66
(dp754
g74
I3
ssg75
g748
sg68
(lp755
S''
asbasbasbasbasbasbasbasbasbasbasbag61
(g77
g63
NtRp756
(dp757
g66
(dp758
sg75
g71
sg68
(lp759
g61
(g82
g63
NtRp760
(dp761
g66
(dp762
g86
g87
ssg75
g756
sg68
(lp763
S'env'
p764
asbag61
(g82
g63
NtRp765
(dp766
g66
(dp767
g93
g94
ssg75
g756
sg68
(lp768
S':'
asbag61
(g82
g63
NtRp769
(dp770
g66
(dp771
sg75
g756
sg68
(lp772
g61
(g62
g63
NtRp773
(dp774
g66
(dp775
g74
I5
ssg75
g769
sg68
(lp776
g61
(g70
g63
NtRp777
(dp778
g66
(dp779
g74
I4
ssg75
Nsg68
(lp780
g61
(g77
g63
NtRp781
(dp782
g66
(dp783
sg75
g777
sg68
(lp784
g61
(g82
g63
NtRp785
(dp786
g66
(dp787
g86
g87
ssg75
g781
sg68
(lp788
S'app_folders'
p789
asbag61
(g82
g63
NtRp790
(dp791
g66
(dp792
g93
g94
ssg75
g781
sg68
(lp793
S':'
asbag61
(g82
g63
NtRp794
(dp795
g66
(dp796
sg75
g781
sg68
(lp797
g61
(g62
g63
NtRp798
(dp799
g66
(dp800
g74
I4
ssg75
g794
sg68
(lp801
S"set(['C:\\\\Users\\\\Osku\\\\koodaus\\\\web2py\\\\applications\\\\sitsit\\\\', 'C:\\\\Users\\\\Osku\\\\koodaus\\\\web2py\\\\applications\\\\welcome\\\\', 'C:\\\\Users\\\\Osku\\\\koodaus\\\\web2py\\\\applications\\\\admin\\\\'])"
p802
asbasbasbag61
(g77
g63
NtRp803
(dp804
g66
(dp805
sg75
g777
sg68
(lp806
g61
(g82
g63
NtRp807
(dp808
g66
(dp809
g86
g87
ssg75
g803
sg68
(lp810
S'applications_parent'
p811
asbag61
(g82
g63
NtRp812
(dp813
g66
(dp814
g93
g94
ssg75
g803
sg68
(lp815
S':'
asbag61
(g82
g63
NtRp816
(dp817
g66
(dp818
sg75
g803
sg68
(lp819
g61
(g62
g63
NtRp820
(dp821
g66
(dp822
g74
I4
ssg75
g816
sg68
(lp823
S'C:\\Users\\Osku\\koodaus\\web2py'
p824
asbasbasbag61
(g77
g63
NtRp825
(dp826
g66
(dp827
sg75
g777
sg68
(lp828
g61
(g82
g63
NtRp829
(dp830
g66
(dp831
g86
g87
ssg75
g825
sg68
(lp832
S'cmd_args'
p833
asbag61
(g82
g63
NtRp834
(dp835
g66
(dp836
g93
g94
ssg75
g825
sg68
(lp837
S':'
asbag61
(g82
g63
NtRp838
(dp839
g66
(dp840
sg75
g825
sg68
(lp841
g61
(g62
g63
NtRp842
(dp843
g66
(dp844
g74
I4
ssg75
g838
sg68
(lp845
g61
(g70
g63
NtRp846
(dp847
g66
(dp848
g74
I3
ssg75
Nsg68
(lp849
sbasbasbasbag61
(g77
g63
NtRp850
(dp851
g66
(dp852
sg75
g777
sg68
(lp853
g61
(g82
g63
NtRp854
(dp855
g66
(dp856
g86
g87
ssg75
g850
sg68
(lp857
S'cmd_options'
p858
asbag61
(g82
g63
NtRp859
(dp860
g66
(dp861
g93
g94
ssg75
g850
sg68
(lp862
S':'
asbag61
(g82
g63
NtRp863
(dp864
g66
(dp865
sg75
g850
sg68
(lp866
g61
(g62
g63
NtRp867
(dp868
g66
(dp869
g74
I4
ssg75
g863
sg68
(lp870
S"<Values at 0x2270030: {'verbose': False, 'ip': '127.0.0.1', 'shutdown_timeout': 5, 'taskbar': False, 'nocron': False, 'pid_filename': 'httpserver.pid', 'maxthreads': None, 'softcron': False, 'server_name': 'Osku-Kannettava', 'bpython': False, 'nogui': False, 'port': 8000, 'extcron': False, 'debuglevel': 30, 'test': None, 'folder': 'C:\\\\Users\\\\Osku\\\\koodaus\\\\web2py', 'config': '', 'import_models': False, 'winservice': '', 'shell': None, 'run': '', 'log_filename': 'httpserver.log', 'args': [''], 'socket_timeout': 5, 'ssl_ca_certificate': None, 'scheduler': None, 'profiler_filename': None, 'ssl_private_key': '', 'password': '<ask>', 'request_queue_size': 5, 'ssl_certificate': '', 'cronjob': False, 'numthreads': None, 'quiet': False, 'interfaces': None, 'minthreads': None, 'timeout': 10, 'plain': False, 'nobanner': False}>"
p871
asbasbasbag61
(g77
g63
NtRp872
(dp873
g66
(dp874
sg75
g777
sg68
(lp875
g61
(g82
g63
NtRp876
(dp877
g66
(dp878
g86
g87
ssg75
g872
sg68
(lp879
S'db_sessions'
p880
asbag61
(g82
g63
NtRp881
(dp882
g66
(dp883
g93
g94
ssg75
g872
sg68
(lp884
S':'
asbag61
(g82
g63
NtRp885
(dp886
g66
(dp887
sg75
g872
sg68
(lp888
g61
(g62
g63
NtRp889
(dp890
g66
(dp891
g74
I4
ssg75
g885
sg68
(lp892
S'set([])'
p893
asbasbasbag61
(g77
g63
NtRp894
(dp895
g66
(dp896
sg75
g777
sg68
(lp897
g61
(g82
g63
NtRp898
(dp899
g66
(dp900
g86
g87
ssg75
g894
sg68
(lp901
S'debugging'
p902
asbag61
(g82
g63
NtRp903
(dp904
g66
(dp905
g93
g94
ssg75
g894
sg68
(lp906
S':'
asbag61
(g82
g63
NtRp907
(dp908
g66
(dp909
sg75
g894
sg68
(lp910
g61
(g62
g63
NtRp911
(dp912
g66
(dp913
g74
I4
ssg75
g907
sg68
(lp914
g104
asbasbasbag61
(g77
g63
NtRp915
(dp916
g66
(dp917
sg75
g777
sg68
(lp918
g61
(g82
g63
NtRp919
(dp920
g66
(dp921
g86
g87
ssg75
g915
sg68
(lp922
S'gluon_parent'
p923
asbag61
(g82
g63
NtRp924
(dp925
g66
(dp926
g93
g94
ssg75
g915
sg68
(lp927
S':'
asbag61
(g82
g63
NtRp928
(dp929
g66
(dp930
sg75
g915
sg68
(lp931
g61
(g62
g63
NtRp932
(dp933
g66
(dp934
g74
I4
ssg75
g928
sg68
(lp935
S'C:\\Users\\Osku\\koodaus\\web2py'
p936
asbasbasbag61
(g77
g63
NtRp937
(dp938
g66
(dp939
sg75
g777
sg68
(lp940
g61
(g82
g63
NtRp941
(dp942
g66
(dp943
g86
g87
ssg75
g937
sg68
(lp944
S'http_accept'
p945
asbag61
(g82
g63
NtRp946
(dp947
g66
(dp948
g93
g94
ssg75
g937
sg68
(lp949
S':'
asbag61
(g82
g63
NtRp950
(dp951
g66
(dp952
sg75
g937
sg68
(lp953
g61
(g62
g63
NtRp954
(dp955
g66
(dp956
g74
I4
ssg75
g950
sg68
(lp957
S'text/html,application/xhtml+xml,application/xml;q=0.9,*/*;q=0.8'
p958
asbasbasbag61
(g77
g63
NtRp959
(dp960
g66
(dp961
sg75
g777
sg68
(lp962
g61
(g82
g63
NtRp963
(dp964
g66
(dp965
g86
g87
ssg75
g959
sg68
(lp966
S'http_accept_charset'
p967
asbag61
(g82
g63
NtRp968
(dp969
g66
(dp970
g93
g94
ssg75
g959
sg68
(lp971
S':'
asbag61
(g82
g63
NtRp972
(dp973
g66
(dp974
sg75
g959
sg68
(lp975
g61
(g62
g63
NtRp976
(dp977
g66
(dp978
g74
I4
ssg75
g972
sg68
(lp979
S'ISO-8859-1,utf-8;q=0.7,*;q=0.3'
p980
asbasbasbag61
(g77
g63
NtRp981
(dp982
g66
(dp983
sg75
g777
sg68
(lp984
g61
(g82
g63
NtRp985
(dp986
g66
(dp987
g86
g87
ssg75
g981
sg68
(lp988
S'http_accept_encoding'
p989
asbag61
(g82
g63
NtRp990
(dp991
g66
(dp992
g93
g94
ssg75
g981
sg68
(lp993
S':'
asbag61
(g82
g63
NtRp994
(dp995
g66
(dp996
sg75
g981
sg68
(lp997
g61
(g62
g63
NtRp998
(dp999
g66
(dp1000
g74
I4
ssg75
g994
sg68
(lp1001
S'gzip,deflate,sdch'
p1002
asbasbasbag61
(g77
g63
NtRp1003
(dp1004
g66
(dp1005
sg75
g777
sg68
(lp1006
g61
(g82
g63
NtRp1007
(dp1008
g66
(dp1009
g86
g87
ssg75
g1003
sg68
(lp1010
S'http_accept_language'
p1011
asbag61
(g82
g63
NtRp1012
(dp1013
g66
(dp1014
g93
g94
ssg75
g1003
sg68
(lp1015
S':'
asbag61
(g82
g63
NtRp1016
(dp1017
g66
(dp1018
sg75
g1003
sg68
(lp1019
g61
(g62
g63
NtRp1020
(dp1021
g66
(dp1022
g74
I4
ssg75
g1016
sg68
(lp1023
S'en-GB,en-US;q=0.8,en;q=0.6,fi;q=0.4'
p1024
asbasbasbag61
(g77
g63
NtRp1025
(dp1026
g66
(dp1027
sg75
g777
sg68
(lp1028
g61
(g82
g63
NtRp1029
(dp1030
g66
(dp1031
g86
g87
ssg75
g1025
sg68
(lp1032
S'http_cache_control'
p1033
asbag61
(g82
g63
NtRp1034
(dp1035
g66
(dp1036
g93
g94
ssg75
g1025
sg68
(lp1037
S':'
asbag61
(g82
g63
NtRp1038
(dp1039
g66
(dp1040
sg75
g1025
sg68
(lp1041
g61
(g62
g63
NtRp1042
(dp1043
g66
(dp1044
g74
I4
ssg75
g1038
sg68
(lp1045
S'max-age=0'
p1046
asbasbasbag61
(g77
g63
NtRp1047
(dp1048
g66
(dp1049
sg75
g777
sg68
(lp1050
g61
(g82
g63
NtRp1051
(dp1052
g66
(dp1053
g86
g87
ssg75
g1047
sg68
(lp1054
S'http_connection'
p1055
asbag61
(g82
g63
NtRp1056
(dp1057
g66
(dp1058
g93
g94
ssg75
g1047
sg68
(lp1059
S':'
asbag61
(g82
g63
NtRp1060
(dp1061
g66
(dp1062
sg75
g1047
sg68
(lp1063
g61
(g62
g63
NtRp1064
(dp1065
g66
(dp1066
g74
I4
ssg75
g1060
sg68
(lp1067
S'keep-alive'
p1068
asbasbasbag61
(g77
g63
NtRp1069
(dp1070
g66
(dp1071
sg75
g777
sg68
(lp1072
g61
(g82
g63
NtRp1073
(dp1074
g66
(dp1075
g86
g87
ssg75
g1069
sg68
(lp1076
S'http_cookie'
p1077
asbag61
(g82
g63
NtRp1078
(dp1079
g66
(dp1080
g93
g94
ssg75
g1069
sg68
(lp1081
S':'
asbag61
(g82
g63
NtRp1082
(dp1083
g66
(dp1084
sg75
g1069
sg68
(lp1085
g61
(g62
g63
NtRp1086
(dp1087
g66
(dp1088
g74
I4
ssg75
g1082
sg68
(lp1089
S'session_id_welcome=127.0.0.1-731960a1-ea7c-4af8-ac49-7798aa234dcd; session_id_admin=127.0.0.1-941ea7a4-a42e-46de-bdfb-3dd29fbb7e62; session_id_sitsit=127.0.0.1-ec2284ba-32fe-4a19-9a6f-e97c370381b5'
p1090
asbasbasbag61
(g77
g63
NtRp1091
(dp1092
g66
(dp1093
sg75
g777
sg68
(lp1094
g61
(g82
g63
NtRp1095
(dp1096
g66
(dp1097
g86
g87
ssg75
g1091
sg68
(lp1098
S'http_host'
p1099
asbag61
(g82
g63
NtRp1100
(dp1101
g66
(dp1102
g93
g94
ssg75
g1091
sg68
(lp1103
S':'
asbag61
(g82
g63
NtRp1104
(dp1105
g66
(dp1106
sg75
g1091
sg68
(lp1107
g61
(g62
g63
NtRp1108
(dp1109
g66
(dp1110
g74
I4
ssg75
g1104
sg68
(lp1111
S'127.0.0.1:8000'
p1112
asbasbasbag61
(g77
g63
NtRp1113
(dp1114
g66
(dp1115
sg75
g777
sg68
(lp1116
g61
(g82
g63
NtRp1117
(dp1118
g66
(dp1119
g86
g87
ssg75
g1113
sg68
(lp1120
S'http_user_agent'
p1121
asbag61
(g82
g63
NtRp1122
(dp1123
g66
(dp1124
g93
g94
ssg75
g1113
sg68
(lp1125
S':'
asbag61
(g82
g63
NtRp1126
(dp1127
g66
(dp1128
sg75
g1113
sg68
(lp1129
g61
(g62
g63
NtRp1130
(dp1131
g66
(dp1132
g74
I4
ssg75
g1126
sg68
(lp1133
S'Mozilla/5.0 (Windows NT 6.1) AppleWebKit/536.11 (KHTML, like Gecko) Chrome/20.0.1132.47 Safari/536.11'
p1134
asbasbasbag61
(g77
g63
NtRp1135
(dp1136
g66
(dp1137
sg75
g777
sg68
(lp1138
g61
(g82
g63
NtRp1139
(dp1140
g66
(dp1141
g86
g87
ssg75
g1135
sg68
(lp1142
S'is_jython'
p1143
asbag61
(g82
g63
NtRp1144
(dp1145
g66
(dp1146
g93
g94
ssg75
g1135
sg68
(lp1147
S':'
asbag61
(g82
g63
NtRp1148
(dp1149
g66
(dp1150
sg75
g1135
sg68
(lp1151
g61
(g62
g63
NtRp1152
(dp1153
g66
(dp1154
g74
I4
ssg75
g1148
sg68
(lp1155
g104
asbasbasbag61
(g77
g63
NtRp1156
(dp1157
g66
(dp1158
sg75
g777
sg68
(lp1159
g61
(g82
g63
NtRp1160
(dp1161
g66
(dp1162
g86
g87
ssg75
g1156
sg68
(lp1163
S'is_pypy'
p1164
asbag61
(g82
g63
NtRp1165
(dp1166
g66
(dp1167
g93
g94
ssg75
g1156
sg68
(lp1168
S':'
asbag61
(g82
g63
NtRp1169
(dp1170
g66
(dp1171
sg75
g1156
sg68
(lp1172
g61
(g62
g63
NtRp1173
(dp1174
g66
(dp1175
g74
I4
ssg75
g1169
sg68
(lp1176
g104
asbasbasbag61
(g77
g63
NtRp1177
(dp1178
g66
(dp1179
sg75
g777
sg68
(lp1180
g61
(g82
g63
NtRp1181
(dp1182
g66
(dp1183
g86
g87
ssg75
g1177
sg68
(lp1184
S'path_info'
p1185
asbag61
(g82
g63
NtRp1186
(dp1187
g66
(dp1188
g93
g94
ssg75
g1177
sg68
(lp1189
S':'
asbag61
(g82
g63
NtRp1190
(dp1191
g66
(dp1192
sg75
g1177
sg68
(lp1193
g61
(g62
g63
NtRp1194
(dp1195
g66
(dp1196
g74
I4
ssg75
g1190
sg68
(lp1197
S'/sitsit/default/sitsit/1'
p1198
asbasbasbag61
(g77
g63
NtRp1199
(dp1200
g66
(dp1201
sg75
g777
sg68
(lp1202
g61
(g82
g63
NtRp1203
(dp1204
g66
(dp1205
g86
g87
ssg75
g1199
sg68
(lp1206
S'query_string'
p1207
asbag61
(g82
g63
NtRp1208
(dp1209
g66
(dp1210
g93
g94
ssg75
g1199
sg68
(lp1211
S':'
asbag61
(g82
g63
NtRp1212
(dp1213
g66
(dp1214
sg75
g1199
sg68
(lp1215
g61
(g62
g63
NtRp1216
(dp1217
g66
(dp1218
g74
I4
ssg75
g1212
sg68
(lp1219
S''
asbasbasbag61
(g77
g63
NtRp1220
(dp1221
g66
(dp1222
sg75
g777
sg68
(lp1223
g61
(g82
g63
NtRp1224
(dp1225
g66
(dp1226
g86
g87
ssg75
g1220
sg68
(lp1227
S'remote_addr'
p1228
asbag61
(g82
g63
NtRp1229
(dp1230
g66
(dp1231
g93
g94
ssg75
g1220
sg68
(lp1232
S':'
asbag61
(g82
g63
NtRp1233
(dp1234
g66
(dp1235
sg75
g1220
sg68
(lp1236
g61
(g62
g63
NtRp1237
(dp1238
g66
(dp1239
g74
I4
ssg75
g1233
sg68
(lp1240
g206
asbasbasbag61
(g77
g63
NtRp1241
(dp1242
g66
(dp1243
sg75
g777
sg68
(lp1244
g61
(g82
g63
NtRp1245
(dp1246
g66
(dp1247
g86
g87
ssg75
g1241
sg68
(lp1248
S'remote_port'
p1249
asbag61
(g82
g63
NtRp1250
(dp1251
g66
(dp1252
g93
g94
ssg75
g1241
sg68
(lp1253
S':'
asbag61
(g82
g63
NtRp1254
(dp1255
g66
(dp1256
sg75
g1241
sg68
(lp1257
g61
(g62
g63
NtRp1258
(dp1259
g66
(dp1260
g74
I4
ssg75
g1254
sg68
(lp1261
S'58204'
p1262
asbasbasbag61
(g77
g63
NtRp1263
(dp1264
g66
(dp1265
sg75
g777
sg68
(lp1266
g61
(g82
g63
NtRp1267
(dp1268
g66
(dp1269
g86
g87
ssg75
g1263
sg68
(lp1270
S'request_method'
p1271
asbag61
(g82
g63
NtRp1272
(dp1273
g66
(dp1274
g93
g94
ssg75
g1263
sg68
(lp1275
S':'
asbag61
(g82
g63
NtRp1276
(dp1277
g66
(dp1278
sg75
g1263
sg68
(lp1279
g61
(g62
g63
NtRp1280
(dp1281
g66
(dp1282
g74
I4
ssg75
g1276
sg68
(lp1283
S'GET'
p1284
asbasbasbag61
(g77
g63
NtRp1285
(dp1286
g66
(dp1287
sg75
g777
sg68
(lp1288
g61
(g82
g63
NtRp1289
(dp1290
g66
(dp1291
g86
g87
ssg75
g1285
sg68
(lp1292
S'script_name'
p1293
asbag61
(g82
g63
NtRp1294
(dp1295
g66
(dp1296
g93
g94
ssg75
g1285
sg68
(lp1297
S':'
asbag61
(g82
g63
NtRp1298
(dp1299
g66
(dp1300
sg75
g1285
sg68
(lp1301
g61
(g62
g63
NtRp1302
(dp1303
g66
(dp1304
g74
I4
ssg75
g1298
sg68
(lp1305
S''
asbasbasbag61
(g77
g63
NtRp1306
(dp1307
g66
(dp1308
sg75
g777
sg68
(lp1309
g61
(g82
g63
NtRp1310
(dp1311
g66
(dp1312
g86
g87
ssg75
g1306
sg68
(lp1313
S'server_name'
p1314
asbag61
(g82
g63
NtRp1315
(dp1316
g66
(dp1317
g93
g94
ssg75
g1306
sg68
(lp1318
S':'
asbag61
(g82
g63
NtRp1319
(dp1320
g66
(dp1321
sg75
g1306
sg68
(lp1322
g61
(g62
g63
NtRp1323
(dp1324
g66
(dp1325
g74
I4
ssg75
g1319
sg68
(lp1326
S'Osku-Kannettava'
p1327
asbasbasbag61
(g77
g63
NtRp1328
(dp1329
g66
(dp1330
sg75
g777
sg68
(lp1331
g61
(g82
g63
NtRp1332
(dp1333
g66
(dp1334
g86
g87
ssg75
g1328
sg68
(lp1335
S'server_port'
p1336
asbag61
(g82
g63
NtRp1337
(dp1338
g66
(dp1339
g93
g94
ssg75
g1328
sg68
(lp1340
S':'
asbag61
(g82
g63
NtRp1341
(dp1342
g66
(dp1343
sg75
g1328
sg68
(lp1344
g61
(g62
g63
NtRp1345
(dp1346
g66
(dp1347
g74
I4
ssg75
g1341
sg68
(lp1348
S'8000'
p1349
asbasbasbag61
(g77
g63
NtRp1350
(dp1351
g66
(dp1352
sg75
g777
sg68
(lp1353
g61
(g82
g63
NtRp1354
(dp1355
g66
(dp1356
g86
g87
ssg75
g1350
sg68
(lp1357
S'server_protocol'
p1358
asbag61
(g82
g63
NtRp1359
(dp1360
g66
(dp1361
g93
g94
ssg75
g1350
sg68
(lp1362
S':'
asbag61
(g82
g63
NtRp1363
(dp1364
g66
(dp1365
sg75
g1350
sg68
(lp1366
g61
(g62
g63
NtRp1367
(dp1368
g66
(dp1369
g74
I4
ssg75
g1363
sg68
(lp1370
S'HTTP/1.1'
p1371
asbasbasbag61
(g77
g63
NtRp1372
(dp1373
g66
(dp1374
sg75
g777
sg68
(lp1375
g61
(g82
g63
NtRp1376
(dp1377
g66
(dp1378
g86
g87
ssg75
g1372
sg68
(lp1379
S'server_software'
p1380
asbag61
(g82
g63
NtRp1381
(dp1382
g66
(dp1383
g93
g94
ssg75
g1372
sg68
(lp1384
S':'
asbag61
(g82
g63
NtRp1385
(dp1386
g66
(dp1387
sg75
g1372
sg68
(lp1388
g61
(g62
g63
NtRp1389
(dp1390
g66
(dp1391
g74
I4
ssg75
g1385
sg68
(lp1392
S'Rocket 1.2.4'
p1393
asbasbasbag61
(g77
g63
NtRp1394
(dp1395
g66
(dp1396
sg75
g777
sg68
(lp1397
g61
(g82
g63
NtRp1398
(dp1399
g66
(dp1400
g86
g87
ssg75
g1394
sg68
(lp1401
S'web2py_crontype'
p1402
asbag61
(g82
g63
NtRp1403
(dp1404
g66
(dp1405
g93
g94
ssg75
g1394
sg68
(lp1406
S':'
asbag61
(g82
g63
NtRp1407
(dp1408
g66
(dp1409
sg75
g1394
sg68
(lp1410
g61
(g62
g63
NtRp1411
(dp1412
g66
(dp1413
g74
I4
ssg75
g1407
sg68
(lp1414
S'hard'
p1415
asbasbasbag61
(g77
g63
NtRp1416
(dp1417
g66
(dp1418
sg75
g777
sg68
(lp1419
g61
(g82
g63
NtRp1420
(dp1421
g66
(dp1422
g86
g87
ssg75
g1416
sg68
(lp1423
S'web2py_path'
p1424
asbag61
(g82
g63
NtRp1425
(dp1426
g66
(dp1427
g93
g94
ssg75
g1416
sg68
(lp1428
S':'
asbag61
(g82
g63
NtRp1429
(dp1430
g66
(dp1431
sg75
g1416
sg68
(lp1432
g61
(g62
g63
NtRp1433
(dp1434
g66
(dp1435
g74
I4
ssg75
g1429
sg68
(lp1436
g824
asbasbasbag61
(g77
g63
NtRp1437
(dp1438
g66
(dp1439
sg75
g777
sg68
(lp1440
g61
(g82
g63
NtRp1441
(dp1442
g66
(dp1443
g86
g87
ssg75
g1437
sg68
(lp1444
S'web2py_version'
p1445
asbag61
(g82
g63
NtRp1446
(dp1447
g66
(dp1448
g93
g94
ssg75
g1437
sg68
(lp1449
S':'
asbag61
(g82
g63
NtRp1450
(dp1451
g66
(dp1452
sg75
g1437
sg68
(lp1453
g61
(g62
g63
NtRp1454
(dp1455
g66
(dp1456
g74
I4
ssg75
g1450
sg68
(lp1457
g61
(g70
g63
NtRp1458
(dp1459
g66
(dp1460
g74
I3
ssg75
Nsg68
(lp1461
g61
(g77
g63
NtRp1462
(dp1463
g66
(dp1464
sg75
g1458
sg68
(lp1465
g61
(g82
g63
NtRp1466
(dp1467
g66
(dp1468
sg75
g1462
sg68
(lp1469
g61
(g62
g63
NtRp1470
(dp1471
g66
(dp1472
g74
I3
ssg75
g1466
sg68
(lp1473
S'1'
asbasbasbag61
(g77
g63
NtRp1474
(dp1475
g66
(dp1476
sg75
g1458
sg68
(lp1477
g61
(g82
g63
NtRp1478
(dp1479
g66
(dp1480
sg75
g1474
sg68
(lp1481
g61
(g62
g63
NtRp1482
(dp1483
g66
(dp1484
g74
I3
ssg75
g1478
sg68
(lp1485
S'99'
p1486
asbasbasbag61
(g77
g63
NtRp1487
(dp1488
g66
(dp1489
sg75
g1458
sg68
(lp1490
g61
(g82
g63
NtRp1491
(dp1492
g66
(dp1493
sg75
g1487
sg68
(lp1494
g61
(g62
g63
NtRp1495
(dp1496
g66
(dp1497
g74
I3
ssg75
g1491
sg68
(lp1498
S'7'
asbasbasbag61
(g77
g63
NtRp1499
(dp1500
g66
(dp1501
sg75
g1458
sg68
(lp1502
g61
(g82
g63
NtRp1503
(dp1504
g66
(dp1505
sg75
g1499
sg68
(lp1506
g61
(g62
g63
NtRp1507
(dp1508
g66
(dp1509
g74
I3
ssg75
g1503
sg68
(lp1510
S'datetime.datetime(2012, 3, 4, 22, 12, 8)'
p1511
asbasbasbag61
(g77
g63
NtRp1512
(dp1513
g66
(dp1514
sg75
g1458
sg68
(lp1515
g61
(g82
g63
NtRp1516
(dp1517
g66
(dp1518
sg75
g1512
sg68
(lp1519
g61
(g62
g63
NtRp1520
(dp1521
g66
(dp1522
g74
I3
ssg75
g1516
sg68
(lp1523
S'stable'
p1524
asbasbasbasbasbasbasbag61
(g77
g63
NtRp1525
(dp1526
g66
(dp1527
sg75
g777
sg68
(lp1528
g61
(g82
g63
NtRp1529
(dp1530
g66
(dp1531
g86
g87
ssg75
g1525
sg68
(lp1532
S'wsgi_errors'
p1533
asbag61
(g82
g63
NtRp1534
(dp1535
g66
(dp1536
g93
g94
ssg75
g1525
sg68
(lp1537
S':'
asbag61
(g82
g63
NtRp1538
(dp1539
g66
(dp1540
sg75
g1525
sg68
(lp1541
g61
(g62
g63
NtRp1542
(dp1543
g66
(dp1544
g74
I4
ssg75
g1538
sg68
(lp1545
S"<open file '<stderr>', mode 'w' at 0x014F00B0>"
p1546
asbasbasbag61
(g77
g63
NtRp1547
(dp1548
g66
(dp1549
sg75
g777
sg68
(lp1550
g61
(g82
g63
NtRp1551
(dp1552
g66
(dp1553
g86
g87
ssg75
g1547
sg68
(lp1554
S'wsgi_file_wrapper'
p1555
asbag61
(g82
g63
NtRp1556
(dp1557
g66
(dp1558
g93
g94
ssg75
g1547
sg68
(lp1559
S':'
asbag61
(g82
g63
NtRp1560
(dp1561
g66
(dp1562
sg75
g1547
sg68
(lp1563
g61
(g62
g63
NtRp1564
(dp1565
g66
(dp1566
g74
I4
ssg75
g1560
sg68
(lp1567
S'<class wsgiref.util.FileWrapper at 0x020041E0>'
p1568
asbasbasbag61
(g77
g63
NtRp1569
(dp1570
g66
(dp1571
sg75
g777
sg68
(lp1572
g61
(g82
g63
NtRp1573
(dp1574
g66
(dp1575
g86
g87
ssg75
g1569
sg68
(lp1576
S'wsgi_input'
p1577
asbag61
(g82
g63
NtRp1578
(dp1579
g66
(dp1580
g93
g94
ssg75
g1569
sg68
(lp1581
S':'
asbag61
(g82
g63
NtRp1582
(dp1583
g66
(dp1584
sg75
g1569
sg68
(lp1585
g61
(g62
g63
NtRp1586
(dp1587
g66
(dp1588
g74
I4
ssg75
g1582
sg68
(lp1589
S'<socket._fileobject object at 0x05442930>'
p1590
asbasbasbag61
(g77
g63
NtRp1591
(dp1592
g66
(dp1593
sg75
g777
sg68
(lp1594
g61
(g82
g63
NtRp1595
(dp1596
g66
(dp1597
g86
g87
ssg75
g1591
sg68
(lp1598
S'wsgi_multiprocess'
p1599
asbag61
(g82
g63
NtRp1600
(dp1601
g66
(dp1602
g93
g94
ssg75
g1591
sg68
(lp1603
S':'
asbag61
(g82
g63
NtRp1604
(dp1605
g66
(dp1606
sg75
g1591
sg68
(lp1607
g61
(g62
g63
NtRp1608
(dp1609
g66
(dp1610
g74
I4
ssg75
g1604
sg68
(lp1611
g104
asbasbasbag61
(g77
g63
NtRp1612
(dp1613
g66
(dp1614
sg75
g777
sg68
(lp1615
g61
(g82
g63
NtRp1616
(dp1617
g66
(dp1618
g86
g87
ssg75
g1612
sg68
(lp1619
S'wsgi_multithread'
p1620
asbag61
(g82
g63
NtRp1621
(dp1622
g66
(dp1623
g93
g94
ssg75
g1612
sg68
(lp1624
S':'
asbag61
(g82
g63
NtRp1625
(dp1626
g66
(dp1627
sg75
g1612
sg68
(lp1628
g61
(g62
g63
NtRp1629
(dp1630
g66
(dp1631
g74
I4
ssg75
g1625
sg68
(lp1632
S'True'
p1633
asbasbasbag61
(g77
g63
NtRp1634
(dp1635
g66
(dp1636
sg75
g777
sg68
(lp1637
g61
(g82
g63
NtRp1638
(dp1639
g66
(dp1640
g86
g87
ssg75
g1634
sg68
(lp1641
S'wsgi_run_once'
p1642
asbag61
(g82
g63
NtRp1643
(dp1644
g66
(dp1645
g93
g94
ssg75
g1634
sg68
(lp1646
S':'
asbag61
(g82
g63
NtRp1647
(dp1648
g66
(dp1649
sg75
g1634
sg68
(lp1650
g61
(g62
g63
NtRp1651
(dp1652
g66
(dp1653
g74
I4
ssg75
g1647
sg68
(lp1654
g104
asbasbasbag61
(g77
g63
NtRp1655
(dp1656
g66
(dp1657
sg75
g777
sg68
(lp1658
g61
(g82
g63
NtRp1659
(dp1660
g66
(dp1661
g86
g87
ssg75
g1655
sg68
(lp1662
S'wsgi_url_scheme'
p1663
asbag61
(g82
g63
NtRp1664
(dp1665
g66
(dp1666
g93
g94
ssg75
g1655
sg68
(lp1667
S':'
asbag61
(g82
g63
NtRp1668
(dp1669
g66
(dp1670
sg75
g1655
sg68
(lp1671
g61
(g62
g63
NtRp1672
(dp1673
g66
(dp1674
g74
I4
ssg75
g1668
sg68
(lp1675
S'http'
p1676
asbasbasbag61
(g77
g63
NtRp1677
(dp1678
g66
(dp1679
sg75
g777
sg68
(lp1680
g61
(g82
g63
NtRp1681
(dp1682
g66
(dp1683
g86
g87
ssg75
g1677
sg68
(lp1684
S'wsgi_version'
p1685
asbag61
(g82
g63
NtRp1686
(dp1687
g66
(dp1688
g93
g94
ssg75
g1677
sg68
(lp1689
S':'
asbag61
(g82
g63
NtRp1690
(dp1691
g66
(dp1692
sg75
g1677
sg68
(lp1693
g61
(g62
g63
NtRp1694
(dp1695
g66
(dp1696
g74
I4
ssg75
g1690
sg68
(lp1697
g61
(g70
g63
NtRp1698
(dp1699
g66
(dp1700
g74
I3
ssg75
Nsg68
(lp1701
g61
(g77
g63
NtRp1702
(dp1703
g66
(dp1704
sg75
g1698
sg68
(lp1705
g61
(g82
g63
NtRp1706
(dp1707
g66
(dp1708
sg75
g1702
sg68
(lp1709
g61
(g62
g63
NtRp1710
(dp1711
g66
(dp1712
g74
I3
ssg75
g1706
sg68
(lp1713
S'1'
asbasbasbag61
(g77
g63
NtRp1714
(dp1715
g66
(dp1716
sg75
g1698
sg68
(lp1717
g61
(g82
g63
NtRp1718
(dp1719
g66
(dp1720
sg75
g1714
sg68
(lp1721
g61
(g62
g63
NtRp1722
(dp1723
g66
(dp1724
g74
I3
ssg75
g1718
sg68
(lp1725
S'0'
asbasbasbasbasbasbasbasbasbasbasbag61
(g77
g63
NtRp1726
(dp1727
g66
(dp1728
sg75
g71
sg68
(lp1729
g61
(g82
g63
NtRp1730
(dp1731
g66
(dp1732
g86
g87
ssg75
g1726
sg68
(lp1733
S'extension'
p1734
asbag61
(g82
g63
NtRp1735
(dp1736
g66
(dp1737
g93
g94
ssg75
g1726
sg68
(lp1738
S':'
asbag61
(g82
g63
NtRp1739
(dp1740
g66
(dp1741
sg75
g1726
sg68
(lp1742
g61
(g62
g63
NtRp1743
(dp1744
g66
(dp1745
g74
I5
ssg75
g1739
sg68
(lp1746
S'html'
p1747
asbasbasbag61
(g77
g63
NtRp1748
(dp1749
g66
(dp1750
sg75
g71
sg68
(lp1751
g61
(g82
g63
NtRp1752
(dp1753
g66
(dp1754
g86
g87
ssg75
g1748
sg68
(lp1755
S'folder'
p1756
asbag61
(g82
g63
NtRp1757
(dp1758
g66
(dp1759
g93
g94
ssg75
g1748
sg68
(lp1760
S':'
asbag61
(g82
g63
NtRp1761
(dp1762
g66
(dp1763
sg75
g1748
sg68
(lp1764
g61
(g62
g63
NtRp1765
(dp1766
g66
(dp1767
g74
I5
ssg75
g1761
sg68
(lp1768
S'C:\\Users\\Osku\\koodaus\\web2py\\applications\\sitsit\\'
p1769
asbasbasbag61
(g77
g63
NtRp1770
(dp1771
g66
(dp1772
sg75
g71
sg68
(lp1773
g61
(g82
g63
NtRp1774
(dp1775
g66
(dp1776
g86
g87
ssg75
g1770
sg68
(lp1777
S'function'
p1778
asbag61
(g82
g63
NtRp1779
(dp1780
g66
(dp1781
g93
g94
ssg75
g1770
sg68
(lp1782
S':'
asbag61
(g82
g63
NtRp1783
(dp1784
g66
(dp1785
sg75
g1770
sg68
(lp1786
g61
(g62
g63
NtRp1787
(dp1788
g66
(dp1789
g74
I5
ssg75
g1783
sg68
(lp1790
S'sitsit'
p1791
asbasbasbag61
(g77
g63
NtRp1792
(dp1793
g66
(dp1794
sg75
g71
sg68
(lp1795
g61
(g82
g63
NtRp1796
(dp1797
g66
(dp1798
g86
g87
ssg75
g1792
sg68
(lp1799
S'get_vars'
p1800
asbag61
(g82
g63
NtRp1801
(dp1802
g66
(dp1803
g93
g94
ssg75
g1792
sg68
(lp1804
S':'
asbag61
(g82
g63
NtRp1805
(dp1806
g66
(dp1807
sg75
g1792
sg68
(lp1808
g61
(g62
g63
NtRp1809
(dp1810
g66
(dp1811
g74
I5
ssg75
g1805
sg68
(lp1812
g61
(g70
g63
NtRp1813
(dp1814
g66
(dp1815
g74
I4
ssg75
Nsg68
(lp1816
sbasbasbasbag61
(g77
g63
NtRp1817
(dp1818
g66
(dp1819
sg75
g71
sg68
(lp1820
g61
(g82
g63
NtRp1821
(dp1822
g66
(dp1823
g86
g87
ssg75
g1817
sg68
(lp1824
S'global_settings'
p1825
asbag61
(g82
g63
NtRp1826
(dp1827
g66
(dp1828
g93
g94
ssg75
g1817
sg68
(lp1829
S':'
asbag61
(g82
g63
NtRp1830
(dp1831
g66
(dp1832
sg75
g1817
sg68
(lp1833
g61
(g62
g63
NtRp1834
(dp1835
g66
(dp1836
g74
I5
ssg75
g1830
sg68
(lp1837
g61
(g70
g63
NtRp1838
(dp1839
g66
(dp1840
g74
I4
ssg75
Nsg68
(lp1841
g61
(g77
g63
NtRp1842
(dp1843
g66
(dp1844
sg75
g1838
sg68
(lp1845
g61
(g82
g63
NtRp1846
(dp1847
g66
(dp1848
g86
g87
ssg75
g1842
sg68
(lp1849
g789
asbag61
(g82
g63
NtRp1850
(dp1851
g66
(dp1852
g93
g94
ssg75
g1842
sg68
(lp1853
S':'
asbag61
(g82
g63
NtRp1854
(dp1855
g66
(dp1856
sg75
g1842
sg68
(lp1857
g61
(g62
g63
NtRp1858
(dp1859
g66
(dp1860
g74
I4
ssg75
g1854
sg68
(lp1861
S"set(['C:\\\\Users\\\\Osku\\\\koodaus\\\\web2py\\\\applications\\\\sitsit\\\\', 'C:\\\\Users\\\\Osku\\\\koodaus\\\\web2py\\\\applications\\\\welcome\\\\', 'C:\\\\Users\\\\Osku\\\\koodaus\\\\web2py\\\\applications\\\\admin\\\\'])"
p1862
asbasbasbag61
(g77
g63
NtRp1863
(dp1864
g66
(dp1865
sg75
g1838
sg68
(lp1866
g61
(g82
g63
NtRp1867
(dp1868
g66
(dp1869
g86
g87
ssg75
g1863
sg68
(lp1870
g811
asbag61
(g82
g63
NtRp1871
(dp1872
g66
(dp1873
g93
g94
ssg75
g1863
sg68
(lp1874
S':'
asbag61
(g82
g63
NtRp1875
(dp1876
g66
(dp1877
sg75
g1863
sg68
(lp1878
g61
(g62
g63
NtRp1879
(dp1880
g66
(dp1881
g74
I4
ssg75
g1875
sg68
(lp1882
g824
asbasbasbag61
(g77
g63
NtRp1883
(dp1884
g66
(dp1885
sg75
g1838
sg68
(lp1886
g61
(g82
g63
NtRp1887
(dp1888
g66
(dp1889
g86
g87
ssg75
g1883
sg68
(lp1890
g833
asbag61
(g82
g63
NtRp1891
(dp1892
g66
(dp1893
g93
g94
ssg75
g1883
sg68
(lp1894
S':'
asbag61
(g82
g63
NtRp1895
(dp1896
g66
(dp1897
sg75
g1883
sg68
(lp1898
g61
(g62
g63
NtRp1899
(dp1900
g66
(dp1901
g74
I4
ssg75
g1895
sg68
(lp1902
g61
(g70
g63
NtRp1903
(dp1904
g66
(dp1905
g74
I3
ssg75
Nsg68
(lp1906
sbasbasbasbag61
(g77
g63
NtRp1907
(dp1908
g66
(dp1909
sg75
g1838
sg68
(lp1910
g61
(g82
g63
NtRp1911
(dp1912
g66
(dp1913
g86
g87
ssg75
g1907
sg68
(lp1914
g858
asbag61
(g82
g63
NtRp1915
(dp1916
g66
(dp1917
g93
g94
ssg75
g1907
sg68
(lp1918
S':'
asbag61
(g82
g63
NtRp1919
(dp1920
g66
(dp1921
sg75
g1907
sg68
(lp1922
g61
(g62
g63
NtRp1923
(dp1924
g66
(dp1925
g74
I4
ssg75
g1919
sg68
(lp1926
S"<Values at 0x2270030: {'verbose': False, 'ip': '127.0.0.1', 'shutdown_timeout': 5, 'taskbar': False, 'nocron': False, 'pid_filename': 'httpserver.pid', 'maxthreads': None, 'softcron': False, 'server_name': 'Osku-Kannettava', 'bpython': False, 'nogui': False, 'port': 8000, 'extcron': False, 'debuglevel': 30, 'test': None, 'folder': 'C:\\\\Users\\\\Osku\\\\koodaus\\\\web2py', 'config': '', 'import_models': False, 'winservice': '', 'shell': None, 'run': '', 'log_filename': 'httpserver.log', 'args': [''], 'socket_timeout': 5, 'ssl_ca_certificate': None, 'scheduler': None, 'profiler_filename': None, 'ssl_private_key': '', 'password': '<ask>', 'request_queue_size': 5, 'ssl_certificate': '', 'cronjob': False, 'numthreads': None, 'quiet': False, 'interfaces': None, 'minthreads': None, 'timeout': 10, 'plain': False, 'nobanner': False}>"
p1927
asbasbasbag61
(g77
g63
NtRp1928
(dp1929
g66
(dp1930
sg75
g1838
sg68
(lp1931
g61
(g82
g63
NtRp1932
(dp1933
g66
(dp1934
g86
g87
ssg75
g1928
sg68
(lp1935
g880
asbag61
(g82
g63
NtRp1936
(dp1937
g66
(dp1938
g93
g94
ssg75
g1928
sg68
(lp1939
S':'
asbag61
(g82
g63
NtRp1940
(dp1941
g66
(dp1942
sg75
g1928
sg68
(lp1943
g61
(g62
g63
NtRp1944
(dp1945
g66
(dp1946
g74
I4
ssg75
g1940
sg68
(lp1947
S'set([])'
p1948
asbasbasbag61
(g77
g63
NtRp1949
(dp1950
g66
(dp1951
sg75
g1838
sg68
(lp1952
g61
(g82
g63
NtRp1953
(dp1954
g66
(dp1955
g86
g87
ssg75
g1949
sg68
(lp1956
g902
asbag61
(g82
g63
NtRp1957
(dp1958
g66
(dp1959
g93
g94
ssg75
g1949
sg68
(lp1960
S':'
asbag61
(g82
g63
NtRp1961
(dp1962
g66
(dp1963
sg75
g1949
sg68
(lp1964
g61
(g62
g63
NtRp1965
(dp1966
g66
(dp1967
g74
I4
ssg75
g1961
sg68
(lp1968
g104
asbasbasbag61
(g77
g63
NtRp1969
(dp1970
g66
(dp1971
sg75
g1838
sg68
(lp1972
g61
(g82
g63
NtRp1973
(dp1974
g66
(dp1975
g86
g87
ssg75
g1969
sg68
(lp1976
g923
asbag61
(g82
g63
NtRp1977
(dp1978
g66
(dp1979
g93
g94
ssg75
g1969
sg68
(lp1980
S':'
asbag61
(g82
g63
NtRp1981
(dp1982
g66
(dp1983
sg75
g1969
sg68
(lp1984
g61
(g62
g63
NtRp1985
(dp1986
g66
(dp1987
g74
I4
ssg75
g1981
sg68
(lp1988
g936
asbasbasbag61
(g77
g63
NtRp1989
(dp1990
g66
(dp1991
sg75
g1838
sg68
(lp1992
g61
(g82
g63
NtRp1993
(dp1994
g66
(dp1995
g86
g87
ssg75
g1989
sg68
(lp1996
g1143
asbag61
(g82
g63
NtRp1997
(dp1998
g66
(dp1999
g93
g94
ssg75
g1989
sg68
(lp2000
S':'
asbag61
(g82
g63
NtRp2001
(dp2002
g66
(dp2003
sg75
g1989
sg68
(lp2004
g61
(g62
g63
NtRp2005
(dp2006
g66
(dp2007
g74
I4
ssg75
g2001
sg68
(lp2008
g104
asbasbasbag61
(g77
g63
NtRp2009
(dp2010
g66
(dp2011
sg75
g1838
sg68
(lp2012
g61
(g82
g63
NtRp2013
(dp2014
g66
(dp2015
g86
g87
ssg75
g2009
sg68
(lp2016
g1164
asbag61
(g82
g63
NtRp2017
(dp2018
g66
(dp2019
g93
g94
ssg75
g2009
sg68
(lp2020
S':'
asbag61
(g82
g63
NtRp2021
(dp2022
g66
(dp2023
sg75
g2009
sg68
(lp2024
g61
(g62
g63
NtRp2025
(dp2026
g66
(dp2027
g74
I4
ssg75
g2021
sg68
(lp2028
g104
asbasbasbag61
(g77
g63
NtRp2029
(dp2030
g66
(dp2031
sg75
g1838
sg68
(lp2032
g61
(g82
g63
NtRp2033
(dp2034
g66
(dp2035
g86
g87
ssg75
g2029
sg68
(lp2036
g1402
asbag61
(g82
g63
NtRp2037
(dp2038
g66
(dp2039
g93
g94
ssg75
g2029
sg68
(lp2040
S':'
asbag61
(g82
g63
NtRp2041
(dp2042
g66
(dp2043
sg75
g2029
sg68
(lp2044
g61
(g62
g63
NtRp2045
(dp2046
g66
(dp2047
g74
I4
ssg75
g2041
sg68
(lp2048
g1415
asbasbasbag61
(g77
g63
NtRp2049
(dp2050
g66
(dp2051
sg75
g1838
sg68
(lp2052
g61
(g82
g63
NtRp2053
(dp2054
g66
(dp2055
g86
g87
ssg75
g2049
sg68
(lp2056
g1445
asbag61
(g82
g63
NtRp2057
(dp2058
g66
(dp2059
g93
g94
ssg75
g2049
sg68
(lp2060
S':'
asbag61
(g82
g63
NtRp2061
(dp2062
g66
(dp2063
sg75
g2049
sg68
(lp2064
g61
(g62
g63
NtRp2065
(dp2066
g66
(dp2067
g74
I4
ssg75
g2061
sg68
(lp2068
g61
(g70
g63
NtRp2069
(dp2070
g66
(dp2071
g74
I3
ssg75
Nsg68
(lp2072
g61
(g77
g63
NtRp2073
(dp2074
g66
(dp2075
sg75
g2069
sg68
(lp2076
g61
(g82
g63
NtRp2077
(dp2078
g66
(dp2079
sg75
g2073
sg68
(lp2080
g61
(g62
g63
NtRp2081
(dp2082
g66
(dp2083
g74
I3
ssg75
g2077
sg68
(lp2084
S'1'
asbasbasbag61
(g77
g63
NtRp2085
(dp2086
g66
(dp2087
sg75
g2069
sg68
(lp2088
g61
(g82
g63
NtRp2089
(dp2090
g66
(dp2091
sg75
g2085
sg68
(lp2092
g61
(g62
g63
NtRp2093
(dp2094
g66
(dp2095
g74
I3
ssg75
g2089
sg68
(lp2096
S'99'
p2097
asbasbasbag61
(g77
g63
NtRp2098
(dp2099
g66
(dp2100
sg75
g2069
sg68
(lp2101
g61
(g82
g63
NtRp2102
(dp2103
g66
(dp2104
sg75
g2098
sg68
(lp2105
g61
(g62
g63
NtRp2106
(dp2107
g66
(dp2108
g74
I3
ssg75
g2102
sg68
(lp2109
S'7'
asbasbasbag61
(g77
g63
NtRp2110
(dp2111
g66
(dp2112
sg75
g2069
sg68
(lp2113
g61
(g82
g63
NtRp2114
(dp2115
g66
(dp2116
sg75
g2110
sg68
(lp2117
g61
(g62
g63
NtRp2118
(dp2119
g66
(dp2120
g74
I3
ssg75
g2114
sg68
(lp2121
S'datetime.datetime(2012, 3, 4, 22, 12, 8)'
p2122
asbasbasbag61
(g77
g63
NtRp2123
(dp2124
g66
(dp2125
sg75
g2069
sg68
(lp2126
g61
(g82
g63
NtRp2127
(dp2128
g66
(dp2129
sg75
g2123
sg68
(lp2130
g61
(g62
g63
NtRp2131
(dp2132
g66
(dp2133
g74
I3
ssg75
g2127
sg68
(lp2134
g1524
asbasbasbasbasbasbasbasbasbasbasbag61
(g77
g63
NtRp2135
(dp2136
g66
(dp2137
sg75
g71
sg68
(lp2138
g61
(g82
g63
NtRp2139
(dp2140
g66
(dp2141
g86
g87
ssg75
g2135
sg68
(lp2142
S'is_https'
p2143
asbag61
(g82
g63
NtRp2144
(dp2145
g66
(dp2146
g93
g94
ssg75
g2135
sg68
(lp2147
S':'
asbag61
(g82
g63
NtRp2148
(dp2149
g66
(dp2150
sg75
g2135
sg68
(lp2151
g61
(g62
g63
NtRp2152
(dp2153
g66
(dp2154
g74
I5
ssg75
g2148
sg68
(lp2155
g104
asbasbasbag61
(g77
g63
NtRp2156
(dp2157
g66
(dp2158
sg75
g71
sg68
(lp2159
g61
(g82
g63
NtRp2160
(dp2161
g66
(dp2162
g86
g87
ssg75
g2156
sg68
(lp2163
S'is_local'
p2164
asbag61
(g82
g63
NtRp2165
(dp2166
g66
(dp2167
g93
g94
ssg75
g2156
sg68
(lp2168
S':'
asbag61
(g82
g63
NtRp2169
(dp2170
g66
(dp2171
sg75
g2156
sg68
(lp2172
g61
(g62
g63
NtRp2173
(dp2174
g66
(dp2175
g74
I5
ssg75
g2169
sg68
(lp2176
g1633
asbasbasbag61
(g77
g63
NtRp2177
(dp2178
g66
(dp2179
sg75
g71
sg68
(lp2180
g61
(g82
g63
NtRp2181
(dp2182
g66
(dp2183
g86
g87
ssg75
g2177
sg68
(lp2184
S'is_restful'
p2185
asbag61
(g82
g63
NtRp2186
(dp2187
g66
(dp2188
g93
g94
ssg75
g2177
sg68
(lp2189
S':'
asbag61
(g82
g63
NtRp2190
(dp2191
g66
(dp2192
sg75
g2177
sg68
(lp2193
g61
(g62
g63
NtRp2194
(dp2195
g66
(dp2196
g74
I5
ssg75
g2190
sg68
(lp2197
g104
asbasbasbag61
(g77
g63
NtRp2198
(dp2199
g66
(dp2200
sg75
g71
sg68
(lp2201
g61
(g82
g63
NtRp2202
(dp2203
g66
(dp2204
g86
g87
ssg75
g2198
sg68
(lp2205
S'now'
p2206
asbag61
(g82
g63
NtRp2207
(dp2208
g66
(dp2209
g93
g94
ssg75
g2198
sg68
(lp2210
S':'
asbag61
(g82
g63
NtRp2211
(dp2212
g66
(dp2213
sg75
g2198
sg68
(lp2214
g61
(g62
g63
NtRp2215
(dp2216
g66
(dp2217
g74
I5
ssg75
g2211
sg68
(lp2218
S'datetime.datetime(2012, 7, 6, 23, 48, 13, 487000)'
p2219
asbasbasbag61
(g77
g63
NtRp2220
(dp2221
g66
(dp2222
sg75
g71
sg68
(lp2223
g61
(g82
g63
NtRp2224
(dp2225
g66
(dp2226
g86
g87
ssg75
g2220
sg68
(lp2227
S'post_vars'
p2228
asbag61
(g82
g63
NtRp2229
(dp2230
g66
(dp2231
g93
g94
ssg75
g2220
sg68
(lp2232
S':'
asbag61
(g82
g63
NtRp2233
(dp2234
g66
(dp2235
sg75
g2220
sg68
(lp2236
g61
(g62
g63
NtRp2237
(dp2238
g66
(dp2239
g74
I5
ssg75
g2233
sg68
(lp2240
g61
(g70
g63
NtRp2241
(dp2242
g66
(dp2243
g74
I4
ssg75
Nsg68
(lp2244
sbasbasbasbag61
(g77
g63
NtRp2245
(dp2246
g66
(dp2247
sg75
g71
sg68
(lp2248
g61
(g82
g63
NtRp2249
(dp2250
g66
(dp2251
g86
g87
ssg75
g2245
sg68
(lp2252
S'raw_args'
p2253
asbag61
(g82
g63
NtRp2254
(dp2255
g66
(dp2256
g93
g94
ssg75
g2245
sg68
(lp2257
S':'
asbag61
(g82
g63
NtRp2258
(dp2259
g66
(dp2260
sg75
g2245
sg68
(lp2261
g61
(g62
g63
NtRp2262
(dp2263
g66
(dp2264
g74
I5
ssg75
g2258
sg68
(lp2265
S'1'
asbasbasbag61
(g77
g63
NtRp2266
(dp2267
g66
(dp2268
sg75
g71
sg68
(lp2269
g61
(g82
g63
NtRp2270
(dp2271
g66
(dp2272
g86
g87
ssg75
g2266
sg68
(lp2273
S'url'
p2274
asbag61
(g82
g63
NtRp2275
(dp2276
g66
(dp2277
g93
g94
ssg75
g2266
sg68
(lp2278
S':'
asbag61
(g82
g63
NtRp2279
(dp2280
g66
(dp2281
sg75
g2266
sg68
(lp2282
g61
(g62
g63
NtRp2283
(dp2284
g66
(dp2285
g74
I5
ssg75
g2279
sg68
(lp2286
S'/sitsit/default/sitsit/1'
p2287
asbasbasbag61
(g77
g63
NtRp2288
(dp2289
g66
(dp2290
sg75
g71
sg68
(lp2291
g61
(g82
g63
NtRp2292
(dp2293
g66
(dp2294
g86
g87
ssg75
g2288
sg68
(lp2295
S'utcnow'
p2296
asbag61
(g82
g63
NtRp2297
(dp2298
g66
(dp2299
g93
g94
ssg75
g2288
sg68
(lp2300
S':'
asbag61
(g82
g63
NtRp2301
(dp2302
g66
(dp2303
sg75
g2288
sg68
(lp2304
g61
(g62
g63
NtRp2305
(dp2306
g66
(dp2307
g74
I5
ssg75
g2301
sg68
(lp2308
S'datetime.datetime(2012, 7, 6, 21, 48, 13, 487000)'
p2309
asbasbasbag61
(g77
g63
NtRp2310
(dp2311
g66
(dp2312
sg75
g71
sg68
(lp2313
g61
(g82
g63
NtRp2314
(dp2315
g66
(dp2316
g86
g87
ssg75
g2310
sg68
(lp2317
S'uuid'
p2318
asbag61
(g82
g63
NtRp2319
(dp2320
g66
(dp2321
g93
g94
ssg75
g2310
sg68
(lp2322
S':'
asbag61
(g82
g63
NtRp2323
(dp2324
g66
(dp2325
sg75
g2310
sg68
(lp2326
g61
(g62
g63
NtRp2327
(dp2328
g66
(dp2329
g74
I5
ssg75
g2323
sg68
(lp2330
S'sitsit/127.0.0.1.2012-07-06.23-48-13.02724554-03a7-4239-8b3f-de7ecde49745'
p2331
asbasbasbag61
(g77
g63
NtRp2332
(dp2333
g66
(dp2334
sg75
g71
sg68
(lp2335
g61
(g82
g63
NtRp2336
(dp2337
g66
(dp2338
g86
g87
ssg75
g2332
sg68
(lp2339
S'vars'
p2340
asbag61
(g82
g63
NtRp2341
(dp2342
g66
(dp2343
g93
g94
ssg75
g2332
sg68
(lp2344
S':'
asbag61
(g82
g63
NtRp2345
(dp2346
g66
(dp2347
sg75
g2332
sg68
(lp2348
g61
(g62
g63
NtRp2349
(dp2350
g66
(dp2351
g74
I5
ssg75
g2345
sg68
(lp2352
g61
(g70
g63
NtRp2353
(dp2354
g66
(dp2355
g74
I4
ssg75
Nsg68
(lp2356
sbasbasbasbag61
(g77
g63
NtRp2357
(dp2358
g66
(dp2359
sg75
g71
sg68
(lp2360
g61
(g82
g63
NtRp2361
(dp2362
g66
(dp2363
g86
g87
ssg75
g2357
sg68
(lp2364
S'wsgi'
p2365
asbag61
(g82
g63
NtRp2366
(dp2367
g66
(dp2368
g93
g94
ssg75
g2357
sg68
(lp2369
S':'
asbag61
(g82
g63
NtRp2370
(dp2371
g66
(dp2372
sg75
g2357
sg68
(lp2373
g61
(g62
g63
NtRp2374
(dp2375
g66
(dp2376
g74
I5
ssg75
g2370
sg68
(lp2377
g61
(g70
g63
NtRp2378
(dp2379
g66
(dp2380
g74
I4
ssg75
Nsg68
(lp2381
g61
(g77
g63
NtRp2382
(dp2383
g66
(dp2384
sg75
g2378
sg68
(lp2385
g61
(g82
g63
NtRp2386
(dp2387
g66
(dp2388
g86
g87
ssg75
g2382
sg68
(lp2389
S'environ'
p2390
asbag61
(g82
g63
NtRp2391
(dp2392
g66
(dp2393
g93
g94
ssg75
g2382
sg68
(lp2394
S':'
asbag61
(g82
g63
NtRp2395
(dp2396
g66
(dp2397
sg75
g2382
sg68
(lp2398
g61
(g62
g63
NtRp2399
(dp2400
g66
(dp2401
g74
I4
ssg75
g2395
sg68
(lp2402
g61
(g70
g63
NtRp2403
(dp2404
g66
(dp2405
g74
I3
ssg75
Nsg68
(lp2406
g61
(g77
g63
NtRp2407
(dp2408
g66
(dp2409
sg75
g2403
sg68
(lp2410
g61
(g82
g63
NtRp2411
(dp2412
g66
(dp2413
g86
g87
ssg75
g2407
sg68
(lp2414
S'HTTP_ACCEPT'
p2415
asbag61
(g82
g63
NtRp2416
(dp2417
g66
(dp2418
g93
g94
ssg75
g2407
sg68
(lp2419
S':'
asbag61
(g82
g63
NtRp2420
(dp2421
g66
(dp2422
sg75
g2407
sg68
(lp2423
g61
(g62
g63
NtRp2424
(dp2425
g66
(dp2426
g74
I3
ssg75
g2420
sg68
(lp2427
g958
asbasbasbag61
(g77
g63
NtRp2428
(dp2429
g66
(dp2430
sg75
g2403
sg68
(lp2431
g61
(g82
g63
NtRp2432
(dp2433
g66
(dp2434
g86
g87
ssg75
g2428
sg68
(lp2435
S'HTTP_ACCEPT_CHARSET'
p2436
asbag61
(g82
g63
NtRp2437
(dp2438
g66
(dp2439
g93
g94
ssg75
g2428
sg68
(lp2440
S':'
asbag61
(g82
g63
NtRp2441
(dp2442
g66
(dp2443
sg75
g2428
sg68
(lp2444
g61
(g62
g63
NtRp2445
(dp2446
g66
(dp2447
g74
I3
ssg75
g2441
sg68
(lp2448
g980
asbasbasbag61
(g77
g63
NtRp2449
(dp2450
g66
(dp2451
sg75
g2403
sg68
(lp2452
g61
(g82
g63
NtRp2453
(dp2454
g66
(dp2455
g86
g87
ssg75
g2449
sg68
(lp2456
S'HTTP_ACCEPT_ENCODING'
p2457
asbag61
(g82
g63
NtRp2458
(dp2459
g66
(dp2460
g93
g94
ssg75
g2449
sg68
(lp2461
S':'
asbag61
(g82
g63
NtRp2462
(dp2463
g66
(dp2464
sg75
g2449
sg68
(lp2465
g61
(g62
g63
NtRp2466
(dp2467
g66
(dp2468
g74
I3
ssg75
g2462
sg68
(lp2469
g1002
asbasbasbag61
(g77
g63
NtRp2470
(dp2471
g66
(dp2472
sg75
g2403
sg68
(lp2473
g61
(g82
g63
NtRp2474
(dp2475
g66
(dp2476
g86
g87
ssg75
g2470
sg68
(lp2477
S'HTTP_ACCEPT_LANGUAGE'
p2478
asbag61
(g82
g63
NtRp2479
(dp2480
g66
(dp2481
g93
g94
ssg75
g2470
sg68
(lp2482
S':'
asbag61
(g82
g63
NtRp2483
(dp2484
g66
(dp2485
sg75
g2470
sg68
(lp2486
g61
(g62
g63
NtRp2487
(dp2488
g66
(dp2489
g74
I3
ssg75
g2483
sg68
(lp2490
g1024
asbasbasbag61
(g77
g63
NtRp2491
(dp2492
g66
(dp2493
sg75
g2403
sg68
(lp2494
g61
(g82
g63
NtRp2495
(dp2496
g66
(dp2497
g86
g87
ssg75
g2491
sg68
(lp2498
S'HTTP_CACHE_CONTROL'
p2499
asbag61
(g82
g63
NtRp2500
(dp2501
g66
(dp2502
g93
g94
ssg75
g2491
sg68
(lp2503
S':'
asbag61
(g82
g63
NtRp2504
(dp2505
g66
(dp2506
sg75
g2491
sg68
(lp2507
g61
(g62
g63
NtRp2508
(dp2509
g66
(dp2510
g74
I3
ssg75
g2504
sg68
(lp2511
g1046
asbasbasbag61
(g77
g63
NtRp2512
(dp2513
g66
(dp2514
sg75
g2403
sg68
(lp2515
g61
(g82
g63
NtRp2516
(dp2517
g66
(dp2518
g86
g87
ssg75
g2512
sg68
(lp2519
S'HTTP_CONNECTION'
p2520
asbag61
(g82
g63
NtRp2521
(dp2522
g66
(dp2523
g93
g94
ssg75
g2512
sg68
(lp2524
S':'
asbag61
(g82
g63
NtRp2525
(dp2526
g66
(dp2527
sg75
g2512
sg68
(lp2528
g61
(g62
g63
NtRp2529
(dp2530
g66
(dp2531
g74
I3
ssg75
g2525
sg68
(lp2532
g1068
asbasbasbag61
(g77
g63
NtRp2533
(dp2534
g66
(dp2535
sg75
g2403
sg68
(lp2536
g61
(g82
g63
NtRp2537
(dp2538
g66
(dp2539
g86
g87
ssg75
g2533
sg68
(lp2540
S'HTTP_COOKIE'
p2541
asbag61
(g82
g63
NtRp2542
(dp2543
g66
(dp2544
g93
g94
ssg75
g2533
sg68
(lp2545
S':'
asbag61
(g82
g63
NtRp2546
(dp2547
g66
(dp2548
sg75
g2533
sg68
(lp2549
g61
(g62
g63
NtRp2550
(dp2551
g66
(dp2552
g74
I3
ssg75
g2546
sg68
(lp2553
g1090
asbasbasbag61
(g77
g63
NtRp2554
(dp2555
g66
(dp2556
sg75
g2403
sg68
(lp2557
g61
(g82
g63
NtRp2558
(dp2559
g66
(dp2560
g86
g87
ssg75
g2554
sg68
(lp2561
S'HTTP_HOST'
p2562
asbag61
(g82
g63
NtRp2563
(dp2564
g66
(dp2565
g93
g94
ssg75
g2554
sg68
(lp2566
S':'
asbag61
(g82
g63
NtRp2567
(dp2568
g66
(dp2569
sg75
g2554
sg68
(lp2570
g61
(g62
g63
NtRp2571
(dp2572
g66
(dp2573
g74
I3
ssg75
g2567
sg68
(lp2574
g1112
asbasbasbag61
(g77
g63
NtRp2575
(dp2576
g66
(dp2577
sg75
g2403
sg68
(lp2578
g61
(g82
g63
NtRp2579
(dp2580
g66
(dp2581
g86
g87
ssg75
g2575
sg68
(lp2582
S'HTTP_USER_AGENT'
p2583
asbag61
(g82
g63
NtRp2584
(dp2585
g66
(dp2586
g93
g94
ssg75
g2575
sg68
(lp2587
S':'
asbag61
(g82
g63
NtRp2588
(dp2589
g66
(dp2590
sg75
g2575
sg68
(lp2591
g61
(g62
g63
NtRp2592
(dp2593
g66
(dp2594
g74
I3
ssg75
g2588
sg68
(lp2595
g1134
asbasbasbag61
(g77
g63
NtRp2596
(dp2597
g66
(dp2598
sg75
g2403
sg68
(lp2599
g61
(g82
g63
NtRp2600
(dp2601
g66
(dp2602
g86
g87
ssg75
g2596
sg68
(lp2603
S'PATH_INFO'
p2604
asbag61
(g82
g63
NtRp2605
(dp2606
g66
(dp2607
g93
g94
ssg75
g2596
sg68
(lp2608
S':'
asbag61
(g82
g63
NtRp2609
(dp2610
g66
(dp2611
sg75
g2596
sg68
(lp2612
g61
(g62
g63
NtRp2613
(dp2614
g66
(dp2615
g74
I3
ssg75
g2609
sg68
(lp2616
g1198
asbasbasbag61
(g77
g63
NtRp2617
(dp2618
g66
(dp2619
sg75
g2403
sg68
(lp2620
g61
(g82
g63
NtRp2621
(dp2622
g66
(dp2623
g86
g87
ssg75
g2617
sg68
(lp2624
S'QUERY_STRING'
p2625
asbag61
(g82
g63
NtRp2626
(dp2627
g66
(dp2628
g93
g94
ssg75
g2617
sg68
(lp2629
S':'
asbag61
(g82
g63
NtRp2630
(dp2631
g66
(dp2632
sg75
g2617
sg68
(lp2633
g61
(g62
g63
NtRp2634
(dp2635
g66
(dp2636
g74
I3
ssg75
g2630
sg68
(lp2637
S''
asbasbasbag61
(g77
g63
NtRp2638
(dp2639
g66
(dp2640
sg75
g2403
sg68
(lp2641
g61
(g82
g63
NtRp2642
(dp2643
g66
(dp2644
g86
g87
ssg75
g2638
sg68
(lp2645
S'REMOTE_ADDR'
p2646
asbag61
(g82
g63
NtRp2647
(dp2648
g66
(dp2649
g93
g94
ssg75
g2638
sg68
(lp2650
S':'
asbag61
(g82
g63
NtRp2651
(dp2652
g66
(dp2653
sg75
g2638
sg68
(lp2654
g61
(g62
g63
NtRp2655
(dp2656
g66
(dp2657
g74
I3
ssg75
g2651
sg68
(lp2658
g206
asbasbasbag61
(g77
g63
NtRp2659
(dp2660
g66
(dp2661
sg75
g2403
sg68
(lp2662
g61
(g82
g63
NtRp2663
(dp2664
g66
(dp2665
g86
g87
ssg75
g2659
sg68
(lp2666
S'REMOTE_PORT'
p2667
asbag61
(g82
g63
NtRp2668
(dp2669
g66
(dp2670
g93
g94
ssg75
g2659
sg68
(lp2671
S':'
asbag61
(g82
g63
NtRp2672
(dp2673
g66
(dp2674
sg75
g2659
sg68
(lp2675
g61
(g62
g63
NtRp2676
(dp2677
g66
(dp2678
g74
I3
ssg75
g2672
sg68
(lp2679
g1262
asbasbasbag61
(g77
g63
NtRp2680
(dp2681
g66
(dp2682
sg75
g2403
sg68
(lp2683
g61
(g82
g63
NtRp2684
(dp2685
g66
(dp2686
g86
g87
ssg75
g2680
sg68
(lp2687
S'REQUEST_METHOD'
p2688
asbag61
(g82
g63
NtRp2689
(dp2690
g66
(dp2691
g93
g94
ssg75
g2680
sg68
(lp2692
S':'
asbag61
(g82
g63
NtRp2693
(dp2694
g66
(dp2695
sg75
g2680
sg68
(lp2696
g61
(g62
g63
NtRp2697
(dp2698
g66
(dp2699
g74
I3
ssg75
g2693
sg68
(lp2700
g1284
asbasbasbag61
(g77
g63
NtRp2701
(dp2702
g66
(dp2703
sg75
g2403
sg68
(lp2704
g61
(g82
g63
NtRp2705
(dp2706
g66
(dp2707
g86
g87
ssg75
g2701
sg68
(lp2708
S'SCRIPT_NAME'
p2709
asbag61
(g82
g63
NtRp2710
(dp2711
g66
(dp2712
g93
g94
ssg75
g2701
sg68
(lp2713
S':'
asbag61
(g82
g63
NtRp2714
(dp2715
g66
(dp2716
sg75
g2701
sg68
(lp2717
g61
(g62
g63
NtRp2718
(dp2719
g66
(dp2720
g74
I3
ssg75
g2714
sg68
(lp2721
S''
asbasbasbag61
(g77
g63
NtRp2722
(dp2723
g66
(dp2724
sg75
g2403
sg68
(lp2725
g61
(g82
g63
NtRp2726
(dp2727
g66
(dp2728
g86
g87
ssg75
g2722
sg68
(lp2729
S'SERVER_NAME'
p2730
asbag61
(g82
g63
NtRp2731
(dp2732
g66
(dp2733
g93
g94
ssg75
g2722
sg68
(lp2734
S':'
asbag61
(g82
g63
NtRp2735
(dp2736
g66
(dp2737
sg75
g2722
sg68
(lp2738
g61
(g62
g63
NtRp2739
(dp2740
g66
(dp2741
g74
I3
ssg75
g2735
sg68
(lp2742
g1327
asbasbasbag61
(g77
g63
NtRp2743
(dp2744
g66
(dp2745
sg75
g2403
sg68
(lp2746
g61
(g82
g63
NtRp2747
(dp2748
g66
(dp2749
g86
g87
ssg75
g2743
sg68
(lp2750
S'SERVER_PORT'
p2751
asbag61
(g82
g63
NtRp2752
(dp2753
g66
(dp2754
g93
g94
ssg75
g2743
sg68
(lp2755
S':'
asbag61
(g82
g63
NtRp2756
(dp2757
g66
(dp2758
sg75
g2743
sg68
(lp2759
g61
(g62
g63
NtRp2760
(dp2761
g66
(dp2762
g74
I3
ssg75
g2756
sg68
(lp2763
g1349
asbasbasbag61
(g77
g63
NtRp2764
(dp2765
g66
(dp2766
sg75
g2403
sg68
(lp2767
g61
(g82
g63
NtRp2768
(dp2769
g66
(dp2770
g86
g87
ssg75
g2764
sg68
(lp2771
S'SERVER_PROTOCOL'
p2772
asbag61
(g82
g63
NtRp2773
(dp2774
g66
(dp2775
g93
g94
ssg75
g2764
sg68
(lp2776
S':'
asbag61
(g82
g63
NtRp2777
(dp2778
g66
(dp2779
sg75
g2764
sg68
(lp2780
g61
(g62
g63
NtRp2781
(dp2782
g66
(dp2783
g74
I3
ssg75
g2777
sg68
(lp2784
g1371
asbasbasbag61
(g77
g63
NtRp2785
(dp2786
g66
(dp2787
sg75
g2403
sg68
(lp2788
g61
(g82
g63
NtRp2789
(dp2790
g66
(dp2791
g86
g87
ssg75
g2785
sg68
(lp2792
S'SERVER_SOFTWARE'
p2793
asbag61
(g82
g63
NtRp2794
(dp2795
g66
(dp2796
g93
g94
ssg75
g2785
sg68
(lp2797
S':'
asbag61
(g82
g63
NtRp2798
(dp2799
g66
(dp2800
sg75
g2785
sg68
(lp2801
g61
(g62
g63
NtRp2802
(dp2803
g66
(dp2804
g74
I3
ssg75
g2798
sg68
(lp2805
g1393
asbasbasbag61
(g77
g63
NtRp2806
(dp2807
g66
(dp2808
sg75
g2403
sg68
(lp2809
g61
(g82
g63
NtRp2810
(dp2811
g66
(dp2812
g86
g87
ssg75
g2806
sg68
(lp2813
S'wsgi.errors'
p2814
asbag61
(g82
g63
NtRp2815
(dp2816
g66
(dp2817
g93
g94
ssg75
g2806
sg68
(lp2818
S':'
asbag61
(g82
g63
NtRp2819
(dp2820
g66
(dp2821
sg75
g2806
sg68
(lp2822
g61
(g62
g63
NtRp2823
(dp2824
g66
(dp2825
g74
I3
ssg75
g2819
sg68
(lp2826
S"<open file '<stderr>', mode 'w' at 0x014F00B0>"
p2827
asbasbasbag61
(g77
g63
NtRp2828
(dp2829
g66
(dp2830
sg75
g2403
sg68
(lp2831
g61
(g82
g63
NtRp2832
(dp2833
g66
(dp2834
g86
g87
ssg75
g2828
sg68
(lp2835
S'wsgi.file_wrapper'
p2836
asbag61
(g82
g63
NtRp2837
(dp2838
g66
(dp2839
g93
g94
ssg75
g2828
sg68
(lp2840
S':'
asbag61
(g82
g63
NtRp2841
(dp2842
g66
(dp2843
sg75
g2828
sg68
(lp2844
g61
(g62
g63
NtRp2845
(dp2846
g66
(dp2847
g74
I3
ssg75
g2841
sg68
(lp2848
S'<class wsgiref.util.FileWrapper at 0x020041E0>'
p2849
asbasbasbag61
(g77
g63
NtRp2850
(dp2851
g66
(dp2852
sg75
g2403
sg68
(lp2853
g61
(g82
g63
NtRp2854
(dp2855
g66
(dp2856
g86
g87
ssg75
g2850
sg68
(lp2857
S'wsgi.input'
p2858
asbag61
(g82
g63
NtRp2859
(dp2860
g66
(dp2861
g93
g94
ssg75
g2850
sg68
(lp2862
S':'
asbag61
(g82
g63
NtRp2863
(dp2864
g66
(dp2865
sg75
g2850
sg68
(lp2866
g61
(g62
g63
NtRp2867
(dp2868
g66
(dp2869
g74
I3
ssg75
g2863
sg68
(lp2870
S'<cStringIO.StringO object at 0x0534E4E0>'
p2871
asbasbasbag61
(g77
g63
NtRp2872
(dp2873
g66
(dp2874
sg75
g2403
sg68
(lp2875
g61
(g82
g63
NtRp2876
(dp2877
g66
(dp2878
g86
g87
ssg75
g2872
sg68
(lp2879
S'wsgi.multiprocess'
p2880
asbag61
(g82
g63
NtRp2881
(dp2882
g66
(dp2883
g93
g94
ssg75
g2872
sg68
(lp2884
S':'
asbag61
(g82
g63
NtRp2885
(dp2886
g66
(dp2887
sg75
g2872
sg68
(lp2888
g61
(g62
g63
NtRp2889
(dp2890
g66
(dp2891
g74
I3
ssg75
g2885
sg68
(lp2892
g104
asbasbasbag61
(g77
g63
NtRp2893
(dp2894
g66
(dp2895
sg75
g2403
sg68
(lp2896
g61
(g82
g63
NtRp2897
(dp2898
g66
(dp2899
g86
g87
ssg75
g2893
sg68
(lp2900
S'wsgi.multithread'
p2901
asbag61
(g82
g63
NtRp2902
(dp2903
g66
(dp2904
g93
g94
ssg75
g2893
sg68
(lp2905
S':'
asbag61
(g82
g63
NtRp2906
(dp2907
g66
(dp2908
sg75
g2893
sg68
(lp2909
g61
(g62
g63
NtRp2910
(dp2911
g66
(dp2912
g74
I3
ssg75
g2906
sg68
(lp2913
g1633
asbasbasbag61
(g77
g63
NtRp2914
(dp2915
g66
(dp2916
sg75
g2403
sg68
(lp2917
g61
(g82
g63
NtRp2918
(dp2919
g66
(dp2920
g86
g87
ssg75
g2914
sg68
(lp2921
S'wsgi.run_once'
p2922
asbag61
(g82
g63
NtRp2923
(dp2924
g66
(dp2925
g93
g94
ssg75
g2914
sg68
(lp2926
S':'
asbag61
(g82
g63
NtRp2927
(dp2928
g66
(dp2929
sg75
g2914
sg68
(lp2930
g61
(g62
g63
NtRp2931
(dp2932
g66
(dp2933
g74
I3
ssg75
g2927
sg68
(lp2934
g104
asbasbasbag61
(g77
g63
NtRp2935
(dp2936
g66
(dp2937
sg75
g2403
sg68
(lp2938
g61
(g82
g63
NtRp2939
(dp2940
g66
(dp2941
g86
g87
ssg75
g2935
sg68
(lp2942
S'wsgi.url_scheme'
p2943
asbag61
(g82
g63
NtRp2944
(dp2945
g66
(dp2946
g93
g94
ssg75
g2935
sg68
(lp2947
S':'
asbag61
(g82
g63
NtRp2948
(dp2949
g66
(dp2950
sg75
g2935
sg68
(lp2951
g61
(g62
g63
NtRp2952
(dp2953
g66
(dp2954
g74
I3
ssg75
g2948
sg68
(lp2955
g1676
asbasbasbag61
(g77
g63
NtRp2956
(dp2957
g66
(dp2958
sg75
g2403
sg68
(lp2959
g61
(g82
g63
NtRp2960
(dp2961
g66
(dp2962
g86
g87
ssg75
g2956
sg68
(lp2963
S'wsgi.version'
p2964
asbag61
(g82
g63
NtRp2965
(dp2966
g66
(dp2967
g93
g94
ssg75
g2956
sg68
(lp2968
S':'
asbag61
(g82
g63
NtRp2969
(dp2970
g66
(dp2971
sg75
g2956
sg68
(lp2972
g61
(g62
g63
NtRp2973
(dp2974
g66
(dp2975
g74
I3
ssg75
g2969
sg68
(lp2976
S'1'
asbasbasbasbasbasbasbasbasbasbasbasbasbsS'frames'
p2977
(lp2978
(dp2979
S'file'
p2980
S'C:\\Users\\Osku\\koodaus\\web2py\\gluon\\restricted.py'
p2981
sS'dump'
p2982
(dp2983
sS'lnum'
p2984
I204
sS'lines'
p2985
(dp2986
sS'call'
p2987
S"(code='# -*- coding: utf-8 -*-\\n# this file is released ...rud())\\n\\n\\nresponse._vars=response._caller(sitsit)\\n', environment={'A': <class 'gluon.html.A'>, 'Auth': <class 'gluon.tools.Auth'>, 'B': <class 'gluon.html.B'>, 'BEAUTIFY': <class 'gluon.html.BEAUTIFY'>, 'BODY': <class 'gluon.html.BODY'>, 'BR': <class 'gluon.html.BR'>, 'BUTTON': <class 'gluon.html.BUTTON'>, 'CAT': <class 'gluon.html.CAT'>, 'CENTER': <class 'gluon.html.CENTER'>, 'CLEANUP': <class 'gluon.validators.CLEANUP'>, ...}, layer=r'C:\\Users\\Osku\\koodaus\\web2py\\applications\\sitsit\\controllers/default.py')"
p2988
sS'func'
p2989
S'restricted'
p2990
sa(dp2991
g2980
S'C:\\Users\\Osku\\koodaus\\web2py\\gluon\\restricted.py'
p2992
sg2982
(dp2993
sg2984
I189
sg2985
(dp2994
sg2987
S"(code='# -*- coding: utf-8 -*-\\n# this file is released ...rud())\\n\\n\\nresponse._vars=response._caller(sitsit)\\n', layer=r'C:\\Users\\Osku\\koodaus\\web2py\\applications\\sitsit\\controllers/default.py')"
p2995
sg2989
S'compile2'
p2996
sasS'pyver'
p2997
S'Python 2.5.4: C:\\Users\\Osku\\koodaus\\web2py\\web2py.exe'
p2998
sS'session'
p2999
g61
(g62
g63
NtRp3000
(dp3001
g66
(dp3002
sg68
(lp3003
g61
(g70
g63
NtRp3004
(dp3005
g66
(dp3006
g74
I5
ssg75
Nsg68
(lp3007
g61
(g77
g63
NtRp3008
(dp3009
g66
(dp3010
sg75
g3004
sg68
(lp3011
g61
(g82
g63
NtRp3012
(dp3013
g66
(dp3014
g86
g87
ssg75
g3008
sg68
(lp3015
S'auth'
p3016
asbag61
(g82
g63
NtRp3017
(dp3018
g66
(dp3019
g93
g94
ssg75
g3008
sg68
(lp3020
S':'
asbag61
(g82
g63
NtRp3021
(dp3022
g66
(dp3023
sg75
g3008
sg68
(lp3024
g61
(g62
g63
NtRp3025
(dp3026
g66
(dp3027
g74
I5
ssg75
g3021
sg68
(lp3028
g61
(g70
g63
NtRp3029
(dp3030
g66
(dp3031
g74
I4
ssg75
Nsg68
(lp3032
g61
(g77
g63
NtRp3033
(dp3034
g66
(dp3035
sg75
g3029
sg68
(lp3036
g61
(g82
g63
NtRp3037
(dp3038
g66
(dp3039
g86
g87
ssg75
g3033
sg68
(lp3040
S'expiration'
p3041
asbag61
(g82
g63
NtRp3042
(dp3043
g66
(dp3044
g93
g94
ssg75
g3033
sg68
(lp3045
S':'
asbag61
(g82
g63
NtRp3046
(dp3047
g66
(dp3048
sg75
g3033
sg68
(lp3049
g61
(g62
g63
NtRp3050
(dp3051
g66
(dp3052
g74
I4
ssg75
g3046
sg68
(lp3053
S'3600'
p3054
asbasbasbag61
(g77
g63
NtRp3055
(dp3056
g66
(dp3057
sg75
g3029
sg68
(lp3058
g61
(g82
g63
NtRp3059
(dp3060
g66
(dp3061
g86
g87
ssg75
g3055
sg68
(lp3062
S'hmac_key'
p3063
asbag61
(g82
g63
NtRp3064
(dp3065
g66
(dp3066
g93
g94
ssg75
g3055
sg68
(lp3067
S':'
asbag61
(g82
g63
NtRp3068
(dp3069
g66
(dp3070
sg75
g3055
sg68
(lp3071
g61
(g62
g63
NtRp3072
(dp3073
g66
(dp3074
g74
I4
ssg75
g3068
sg68
(lp3075
S'871ae63d-f3e0-499f-bd79-a2b724d0a3d4'
p3076
asbasbasbag61
(g77
g63
NtRp3077
(dp3078
g66
(dp3079
sg75
g3029
sg68
(lp3080
g61
(g82
g63
NtRp3081
(dp3082
g66
(dp3083
g86
g87
ssg75
g3077
sg68
(lp3084
S'last_visit'
p3085
asbag61
(g82
g63
NtRp3086
(dp3087
g66
(dp3088
g93
g94
ssg75
g3077
sg68
(lp3089
S':'
asbag61
(g82
g63
NtRp3090
(dp3091
g66
(dp3092
sg75
g3077
sg68
(lp3093
g61
(g62
g63
NtRp3094
(dp3095
g66
(dp3096
g74
I4
ssg75
g3090
sg68
(lp3097
S'datetime.datetime(2012, 7, 6, 23, 43, 5, 309000)'
p3098
asbasbasbag61
(g77
g63
NtRp3099
(dp3100
g66
(dp3101
sg75
g3029
sg68
(lp3102
g61
(g82
g63
NtRp3103
(dp3104
g66
(dp3105
g86
g87
ssg75
g3099
sg68
(lp3106
S'user'
p3107
asbag61
(g82
g63
NtRp3108
(dp3109
g66
(dp3110
g93
g94
ssg75
g3099
sg68
(lp3111
S':'
asbag61
(g82
g63
NtRp3112
(dp3113
g66
(dp3114
sg75
g3099
sg68
(lp3115
g61
(g62
g63
NtRp3116
(dp3117
g66
(dp3118
g74
I4
ssg75
g3112
sg68
(lp3119
g61
(g70
g63
NtRp3120
(dp3121
g66
(dp3122
g74
I3
ssg75
Nsg68
(lp3123
g61
(g77
g63
NtRp3124
(dp3125
g66
(dp3126
sg75
g3120
sg68
(lp3127
g61
(g82
g63
NtRp3128
(dp3129
g66
(dp3130
g86
g87
ssg75
g3124
sg68
(lp3131
S'birthdate'
p3132
asbag61
(g82
g63
NtRp3133
(dp3134
g66
(dp3135
g93
g94
ssg75
g3124
sg68
(lp3136
S':'
asbag61
(g82
g63
NtRp3137
(dp3138
g66
(dp3139
sg75
g3124
sg68
(lp3140
g61
(g62
g63
NtRp3141
(dp3142
g66
(dp3143
g74
I3
ssg75
g3137
sg68
(lp3144
S'None'
p3145
asbasbasbag61
(g77
g63
NtRp3146
(dp3147
g66
(dp3148
sg75
g3120
sg68
(lp3149
g61
(g82
g63
NtRp3150
(dp3151
g66
(dp3152
g86
g87
ssg75
g3146
sg68
(lp3153
S'email'
p3154
asbag61
(g82
g63
NtRp3155
(dp3156
g66
(dp3157
g93
g94
ssg75
g3146
sg68
(lp3158
S':'
asbag61
(g82
g63
NtRp3159
(dp3160
g66
(dp3161
sg75
g3146
sg68
(lp3162
g61
(g62
g63
NtRp3163
(dp3164
g66
(dp3165
g74
I3
ssg75
g3159
sg68
(lp3166
S'oskari.petas@gmail.com'
p3167
asbasbasbag61
(g77
g63
NtRp3168
(dp3169
g66
(dp3170
sg75
g3120
sg68
(lp3171
g61
(g82
g63
NtRp3172
(dp3173
g66
(dp3174
g86
g87
ssg75
g3168
sg68
(lp3175
S'first_name'
p3176
asbag61
(g82
g63
NtRp3177
(dp3178
g66
(dp3179
g93
g94
ssg75
g3168
sg68
(lp3180
S':'
asbag61
(g82
g63
NtRp3181
(dp3182
g66
(dp3183
sg75
g3168
sg68
(lp3184
g61
(g62
g63
NtRp3185
(dp3186
g66
(dp3187
g74
I3
ssg75
g3181
sg68
(lp3188
S'Oskari'
p3189
asbasbasbag61
(g77
g63
NtRp3190
(dp3191
g66
(dp3192
sg75
g3120
sg68
(lp3193
g61
(g82
g63
NtRp3194
(dp3195
g66
(dp3196
g86
g87
ssg75
g3190
sg68
(lp3197
S'id'
p3198
asbag61
(g82
g63
NtRp3199
(dp3200
g66
(dp3201
g93
g94
ssg75
g3190
sg68
(lp3202
S':'
asbag61
(g82
g63
NtRp3203
(dp3204
g66
(dp3205
sg75
g3190
sg68
(lp3206
g61
(g62
g63
NtRp3207
(dp3208
g66
(dp3209
g74
I3
ssg75
g3203
sg68
(lp3210
S'1'
asbasbasbag61
(g77
g63
NtRp3211
(dp3212
g66
(dp3213
sg75
g3120
sg68
(lp3214
g61
(g82
g63
NtRp3215
(dp3216
g66
(dp3217
g86
g87
ssg75
g3211
sg68
(lp3218
S'last_name'
p3219
asbag61
(g82
g63
NtRp3220
(dp3221
g66
(dp3222
g93
g94
ssg75
g3211
sg68
(lp3223
S':'
asbag61
(g82
g63
NtRp3224
(dp3225
g66
(dp3226
sg75
g3211
sg68
(lp3227
g61
(g62
g63
NtRp3228
(dp3229
g66
(dp3230
g74
I3
ssg75
g3224
sg68
(lp3231
S'Petas'
p3232
asbasbasbag61
(g77
g63
NtRp3233
(dp3234
g66
(dp3235
sg75
g3120
sg68
(lp3236
g61
(g82
g63
NtRp3237
(dp3238
g66
(dp3239
g86
g87
ssg75
g3233
sg68
(lp3240
S'password'
p3241
asbag61
(g82
g63
NtRp3242
(dp3243
g66
(dp3244
g93
g94
ssg75
g3233
sg68
(lp3245
S':'
asbag61
(g82
g63
NtRp3246
(dp3247
g66
(dp3248
sg75
g3233
sg68
(lp3249
g61
(g62
g63
NtRp3250
(dp3251
g66
(dp3252
g74
I3
ssg75
g3246
sg68
(lp3253
S'b11d7fe42f4ed95554a3bb1f580d7880'
p3254
asbasbasbag61
(g77
g63
NtRp3255
(dp3256
g66
(dp3257
sg75
g3120
sg68
(lp3258
g61
(g82
g63
NtRp3259
(dp3260
g66
(dp3261
g86
g87
ssg75
g3255
sg68
(lp3262
S'registration_id'
p3263
asbag61
(g82
g63
NtRp3264
(dp3265
g66
(dp3266
g93
g94
ssg75
g3255
sg68
(lp3267
S':'
asbag61
(g82
g63
NtRp3268
(dp3269
g66
(dp3270
sg75
g3255
sg68
(lp3271
g61
(g62
g63
NtRp3272
(dp3273
g66
(dp3274
g74
I3
ssg75
g3268
sg68
(lp3275
S''
asbasbasbag61
(g77
g63
NtRp3276
(dp3277
g66
(dp3278
sg75
g3120
sg68
(lp3279
g61
(g82
g63
NtRp3280
(dp3281
g66
(dp3282
g86
g87
ssg75
g3276
sg68
(lp3283
S'registration_key'
p3284
asbag61
(g82
g63
NtRp3285
(dp3286
g66
(dp3287
g93
g94
ssg75
g3276
sg68
(lp3288
S':'
asbag61
(g82
g63
NtRp3289
(dp3290
g66
(dp3291
sg75
g3276
sg68
(lp3292
g61
(g62
g63
NtRp3293
(dp3294
g66
(dp3295
g74
I3
ssg75
g3289
sg68
(lp3296
S''
asbasbasbag61
(g77
g63
NtRp3297
(dp3298
g66
(dp3299
sg75
g3120
sg68
(lp3300
g61
(g82
g63
NtRp3301
(dp3302
g66
(dp3303
g86
g87
ssg75
g3297
sg68
(lp3304
S'representation'
p3305
asbag61
(g82
g63
NtRp3306
(dp3307
g66
(dp3308
g93
g94
ssg75
g3297
sg68
(lp3309
S':'
asbag61
(g82
g63
NtRp3310
(dp3311
g66
(dp3312
sg75
g3297
sg68
(lp3313
g61
(g62
g63
NtRp3314
(dp3315
g66
(dp3316
g74
I3
ssg75
g3310
sg68
(lp3317
S'AS'
p3318
asbasbasbag61
(g77
g63
NtRp3319
(dp3320
g66
(dp3321
sg75
g3120
sg68
(lp3322
g61
(g82
g63
NtRp3323
(dp3324
g66
(dp3325
g86
g87
ssg75
g3319
sg68
(lp3326
S'reset_password_key'
p3327
asbag61
(g82
g63
NtRp3328
(dp3329
g66
(dp3330
g93
g94
ssg75
g3319
sg68
(lp3331
S':'
asbag61
(g82
g63
NtRp3332
(dp3333
g66
(dp3334
sg75
g3319
sg68
(lp3335
g61
(g62
g63
NtRp3336
(dp3337
g66
(dp3338
g74
I3
ssg75
g3332
sg68
(lp3339
S''
asbasbasbasbasbasbasbag61
(g77
g63
NtRp3340
(dp3341
g66
(dp3342
sg75
g3029
sg68
(lp3343
g61
(g82
g63
NtRp3344
(dp3345
g66
(dp3346
g86
g87
ssg75
g3340
sg68
(lp3347
S'user_groups'
p3348
asbag61
(g82
g63
NtRp3349
(dp3350
g66
(dp3351
g93
g94
ssg75
g3340
sg68
(lp3352
S':'
asbag61
(g82
g63
NtRp3353
(dp3354
g66
(dp3355
sg75
g3340
sg68
(lp3356
g61
(g62
g63
NtRp3357
(dp3358
g66
(dp3359
g74
I4
ssg75
g3353
sg68
(lp3360
g61
(g70
g63
NtRp3361
(dp3362
g66
(dp3363
g74
I3
ssg75
Nsg68
(lp3364
g61
(g77
g63
NtRp3365
(dp3366
g66
(dp3367
sg75
g3361
sg68
(lp3368
g61
(g82
g63
NtRp3369
(dp3370
g66
(dp3371
g86
g87
ssg75
g3365
sg68
(lp3372
S'1'
asbag61
(g82
g63
NtRp3373
(dp3374
g66
(dp3375
g93
g94
ssg75
g3365
sg68
(lp3376
S':'
asbag61
(g82
g63
NtRp3377
(dp3378
g66
(dp3379
sg75
g3365
sg68
(lp3380
g61
(g62
g63
NtRp3381
(dp3382
g66
(dp3383
g74
I3
ssg75
g3377
sg68
(lp3384
S'user_1'
p3385
asbasbasbasbasbasbasbasbasbasbasbasbasbsS'etype'
p3386
S"<type 'exceptions.IndentationError'>"
p3387
sS'date'
p3388
S'Fri Jul 06 23:48:13 2012'
p3389
sS'response'
p3390
g61
(g62
g63
NtRp3391
(dp3392
g66
(dp3393
sg68
(lp3394
g61
(g70
g63
NtRp3395
(dp3396
g66
(dp3397
g74
I5
ssg75
Nsg68
(lp3398
g61
(g77
g63
NtRp3399
(dp3400
g66
(dp3401
sg75
g3395
sg68
(lp3402
g61
(g82
g63
NtRp3403
(dp3404
g66
(dp3405
g86
g87
ssg75
g3399
sg68
(lp3406
g171
asbag61
(g82
g63
NtRp3407
(dp3408
g66
(dp3409
g93
g94
ssg75
g3399
sg68
(lp3410
S':'
asbag61
(g82
g63
NtRp3411
(dp3412
g66
(dp3413
sg75
g3399
sg68
(lp3414
g61
(g62
g63
NtRp3415
(dp3416
g66
(dp3417
g74
I5
ssg75
g3411
sg68
(lp3418
S'<cStringIO.StringO object at 0x0534E1C0>'
p3419
asbasbasbag61
(g77
g63
NtRp3420
(dp3421
g66
(dp3422
sg75
g3395
sg68
(lp3423
g61
(g82
g63
NtRp3424
(dp3425
g66
(dp3426
g86
g87
ssg75
g3420
sg68
(lp3427
g237
asbag61
(g82
g63
NtRp3428
(dp3429
g66
(dp3430
g93
g94
ssg75
g3420
sg68
(lp3431
S':'
asbag61
(g82
g63
NtRp3432
(dp3433
g66
(dp3434
sg75
g3420
sg68
(lp3435
g61
(g62
g63
NtRp3436
(dp3437
g66
(dp3438
g74
I5
ssg75
g3432
sg68
(lp3439
g61
(g70
g63
NtRp3440
(dp3441
g66
(dp3442
g74
I4
ssg75
Nsg68
(lp3443
g61
(g77
g63
NtRp3444
(dp3445
g66
(dp3446
sg75
g3440
sg68
(lp3447
g61
(g82
g63
NtRp3448
(dp3449
g66
(dp3450
g86
g87
ssg75
g3444
sg68
(lp3451
S'session_id_sitsit'
p3452
asbag61
(g82
g63
NtRp3453
(dp3454
g66
(dp3455
g93
g94
ssg75
g3444
sg68
(lp3456
S':'
asbag61
(g82
g63
NtRp3457
(dp3458
g66
(dp3459
sg75
g3444
sg68
(lp3460
g61
(g62
g63
NtRp3461
(dp3462
g66
(dp3463
g74
I4
ssg75
g3457
sg68
(lp3464
g61
(g70
g63
NtRp3465
(dp3466
g66
(dp3467
g74
I3
ssg75
Nsg68
(lp3468
g61
(g77
g63
NtRp3469
(dp3470
g66
(dp3471
sg75
g3465
sg68
(lp3472
g61
(g82
g63
NtRp3473
(dp3474
g66
(dp3475
g86
g87
ssg75
g3469
sg68
(lp3476
g287
asbag61
(g82
g63
NtRp3477
(dp3478
g66
(dp3479
g93
g94
ssg75
g3469
sg68
(lp3480
S':'
asbag61
(g82
g63
NtRp3481
(dp3482
g66
(dp3483
sg75
g3469
sg68
(lp3484
g61
(g62
g63
NtRp3485
(dp3486
g66
(dp3487
g74
I3
ssg75
g3481
sg68
(lp3488
S''
asbasbasbag61
(g77
g63
NtRp3489
(dp3490
g66
(dp3491
sg75
g3465
sg68
(lp3492
g61
(g82
g63
NtRp3493
(dp3494
g66
(dp3495
g86
g87
ssg75
g3489
sg68
(lp3496
g308
asbag61
(g82
g63
NtRp3497
(dp3498
g66
(dp3499
g93
g94
ssg75
g3489
sg68
(lp3500
S':'
asbag61
(g82
g63
NtRp3501
(dp3502
g66
(dp3503
sg75
g3489
sg68
(lp3504
g61
(g62
g63
NtRp3505
(dp3506
g66
(dp3507
g74
I3
ssg75
g3501
sg68
(lp3508
S''
asbasbasbag61
(g77
g63
NtRp3509
(dp3510
g66
(dp3511
sg75
g3465
sg68
(lp3512
g61
(g82
g63
NtRp3513
(dp3514
g66
(dp3515
g86
g87
ssg75
g3509
sg68
(lp3516
g329
asbag61
(g82
g63
NtRp3517
(dp3518
g66
(dp3519
g93
g94
ssg75
g3509
sg68
(lp3520
S':'
asbag61
(g82
g63
NtRp3521
(dp3522
g66
(dp3523
sg75
g3509
sg68
(lp3524
g61
(g62
g63
NtRp3525
(dp3526
g66
(dp3527
g74
I3
ssg75
g3521
sg68
(lp3528
S''
asbasbasbag61
(g77
g63
NtRp3529
(dp3530
g66
(dp3531
sg75
g3465
sg68
(lp3532
g61
(g82
g63
NtRp3533
(dp3534
g66
(dp3535
g86
g87
ssg75
g3529
sg68
(lp3536
g350
asbag61
(g82
g63
NtRp3537
(dp3538
g66
(dp3539
g93
g94
ssg75
g3529
sg68
(lp3540
S':'
asbag61
(g82
g63
NtRp3541
(dp3542
g66
(dp3543
sg75
g3529
sg68
(lp3544
g61
(g62
g63
NtRp3545
(dp3546
g66
(dp3547
g74
I3
ssg75
g3541
sg68
(lp3548
S''
asbasbasbag61
(g77
g63
NtRp3549
(dp3550
g66
(dp3551
sg75
g3465
sg68
(lp3552
g61
(g82
g63
NtRp3553
(dp3554
g66
(dp3555
g86
g87
ssg75
g3549
sg68
(lp3556
g371
asbag61
(g82
g63
NtRp3557
(dp3558
g66
(dp3559
g93
g94
ssg75
g3549
sg68
(lp3560
S':'
asbag61
(g82
g63
NtRp3561
(dp3562
g66
(dp3563
sg75
g3549
sg68
(lp3564
g61
(g62
g63
NtRp3565
(dp3566
g66
(dp3567
g74
I3
ssg75
g3561
sg68
(lp3568
S'/'
asbasbasbag61
(g77
g63
NtRp3569
(dp3570
g66
(dp3571
sg75
g3465
sg68
(lp3572
g61
(g82
g63
NtRp3573
(dp3574
g66
(dp3575
g86
g87
ssg75
g3569
sg68
(lp3576
g392
asbag61
(g82
g63
NtRp3577
(dp3578
g66
(dp3579
g93
g94
ssg75
g3569
sg68
(lp3580
S':'
asbag61
(g82
g63
NtRp3581
(dp3582
g66
(dp3583
sg75
g3569
sg68
(lp3584
g61
(g62
g63
NtRp3585
(dp3586
g66
(dp3587
g74
I3
ssg75
g3581
sg68
(lp3588
S''
asbasbasbag61
(g77
g63
NtRp3589
(dp3590
g66
(dp3591
sg75
g3465
sg68
(lp3592
g61
(g82
g63
NtRp3593
(dp3594
g66
(dp3595
g86
g87
ssg75
g3589
sg68
(lp3596
g413
asbag61
(g82
g63
NtRp3597
(dp3598
g66
(dp3599
g93
g94
ssg75
g3589
sg68
(lp3600
S':'
asbag61
(g82
g63
NtRp3601
(dp3602
g66
(dp3603
sg75
g3589
sg68
(lp3604
g61
(g62
g63
NtRp3605
(dp3606
g66
(dp3607
g74
I3
ssg75
g3601
sg68
(lp3608
S''
asbasbasbasbasbasbasbasbasbasbasbag61
(g77
g63
NtRp3609
(dp3610
g66
(dp3611
sg75
g3395
sg68
(lp3612
g61
(g82
g63
NtRp3613
(dp3614
g66
(dp3615
g86
g87
ssg75
g3609
sg68
(lp3616
S'delimiters'
p3617
asbag61
(g82
g63
NtRp3618
(dp3619
g66
(dp3620
g93
g94
ssg75
g3609
sg68
(lp3621
S':'
asbag61
(g82
g63
NtRp3622
(dp3623
g66
(dp3624
sg75
g3609
sg68
(lp3625
g61
(g62
g63
NtRp3626
(dp3627
g66
(dp3628
g74
I5
ssg75
g3622
sg68
(lp3629
g61
(g70
g63
NtRp3630
(dp3631
g66
(dp3632
g74
I4
ssg75
Nsg68
(lp3633
g61
(g77
g63
NtRp3634
(dp3635
g66
(dp3636
sg75
g3630
sg68
(lp3637
g61
(g82
g63
NtRp3638
(dp3639
g66
(dp3640
sg75
g3634
sg68
(lp3641
g61
(g62
g63
NtRp3642
(dp3643
g66
(dp3644
g74
I4
ssg75
g3638
sg68
(lp3645
S'{{'
p3646
asbasbasbag61
(g77
g63
NtRp3647
(dp3648
g66
(dp3649
sg75
g3630
sg68
(lp3650
g61
(g82
g63
NtRp3651
(dp3652
g66
(dp3653
sg75
g3647
sg68
(lp3654
g61
(g62
g63
NtRp3655
(dp3656
g66
(dp3657
g74
I4
ssg75
g3651
sg68
(lp3658
S'}}'
p3659
asbasbasbasbasbasbasbag61
(g77
g63
NtRp3660
(dp3661
g66
(dp3662
sg75
g3395
sg68
(lp3663
g61
(g82
g63
NtRp3664
(dp3665
g66
(dp3666
g86
g87
ssg75
g3660
sg68
(lp3667
S'files'
p3668
asbag61
(g82
g63
NtRp3669
(dp3670
g66
(dp3671
g93
g94
ssg75
g3660
sg68
(lp3672
S':'
asbag61
(g82
g63
NtRp3673
(dp3674
g66
(dp3675
sg75
g3660
sg68
(lp3676
g61
(g62
g63
NtRp3677
(dp3678
g66
(dp3679
g74
I5
ssg75
g3673
sg68
(lp3680
g61
(g70
g63
NtRp3681
(dp3682
g66
(dp3683
g74
I4
ssg75
Nsg68
(lp3684
sbasbasbasbag61
(g77
g63
NtRp3685
(dp3686
g66
(dp3687
sg75
g3395
sg68
(lp3688
g61
(g82
g63
NtRp3689
(dp3690
g66
(dp3691
g86
g87
ssg75
g3685
sg68
(lp3692
S'flash'
p3693
asbag61
(g82
g63
NtRp3694
(dp3695
g66
(dp3696
g93
g94
ssg75
g3685
sg68
(lp3697
S':'
asbag61
(g82
g63
NtRp3698
(dp3699
g66
(dp3700
sg75
g3685
sg68
(lp3701
g61
(g62
g63
NtRp3702
(dp3703
g66
(dp3704
g74
I5
ssg75
g3698
sg68
(lp3705
S''
asbasbasbag61
(g77
g63
NtRp3706
(dp3707
g66
(dp3708
sg75
g3395
sg68
(lp3709
g61
(g82
g63
NtRp3710
(dp3711
g66
(dp3712
g86
g87
ssg75
g3706
sg68
(lp3713
S'generic_patterns'
p3714
asbag61
(g82
g63
NtRp3715
(dp3716
g66
(dp3717
g93
g94
ssg75
g3706
sg68
(lp3718
S':'
asbag61
(g82
g63
NtRp3719
(dp3720
g66
(dp3721
sg75
g3706
sg68
(lp3722
g61
(g62
g63
NtRp3723
(dp3724
g66
(dp3725
g74
I5
ssg75
g3719
sg68
(lp3726
g61
(g70
g63
NtRp3727
(dp3728
g66
(dp3729
g74
I4
ssg75
Nsg68
(lp3730
g61
(g77
g63
NtRp3731
(dp3732
g66
(dp3733
sg75
g3727
sg68
(lp3734
g61
(g82
g63
NtRp3735
(dp3736
g66
(dp3737
sg75
g3731
sg68
(lp3738
g61
(g62
g63
NtRp3739
(dp3740
g66
(dp3741
g74
I4
ssg75
g3735
sg68
(lp3742
S'*'
asbasbasbasbasbasbasbag61
(g77
g63
NtRp3743
(dp3744
g66
(dp3745
sg75
g3395
sg68
(lp3746
g61
(g82
g63
NtRp3747
(dp3748
g66
(dp3749
g86
g87
ssg75
g3743
sg68
(lp3750
S'headers'
p3751
asbag61
(g82
g63
NtRp3752
(dp3753
g66
(dp3754
g93
g94
ssg75
g3743
sg68
(lp3755
S':'
asbag61
(g82
g63
NtRp3756
(dp3757
g66
(dp3758
sg75
g3743
sg68
(lp3759
g61
(g62
g63
NtRp3760
(dp3761
g66
(dp3762
g74
I5
ssg75
g3756
sg68
(lp3763
g61
(g70
g63
NtRp3764
(dp3765
g66
(dp3766
g74
I4
ssg75
Nsg68
(lp3767
g61
(g77
g63
NtRp3768
(dp3769
g66
(dp3770
sg75
g3764
sg68
(lp3771
g61
(g82
g63
NtRp3772
(dp3773
g66
(dp3774
g86
g87
ssg75
g3768
sg68
(lp3775
S'Cache-Control'
p3776
asbag61
(g82
g63
NtRp3777
(dp3778
g66
(dp3779
g93
g94
ssg75
g3768
sg68
(lp3780
S':'
asbag61
(g82
g63
NtRp3781
(dp3782
g66
(dp3783
sg75
g3768
sg68
(lp3784
g61
(g62
g63
NtRp3785
(dp3786
g66
(dp3787
g74
I4
ssg75
g3781
sg68
(lp3788
S'no-store, no-cache, must-revalidate, post-check=0, pre-check=0'
p3789
asbasbasbag61
(g77
g63
NtRp3790
(dp3791
g66
(dp3792
sg75
g3764
sg68
(lp3793
g61
(g82
g63
NtRp3794
(dp3795
g66
(dp3796
g86
g87
ssg75
g3790
sg68
(lp3797
S'Content-Type'
p3798
asbag61
(g82
g63
NtRp3799
(dp3800
g66
(dp3801
g93
g94
ssg75
g3790
sg68
(lp3802
S':'
asbag61
(g82
g63
NtRp3803
(dp3804
g66
(dp3805
sg75
g3790
sg68
(lp3806
g61
(g62
g63
NtRp3807
(dp3808
g66
(dp3809
g74
I4
ssg75
g3803
sg68
(lp3810
S'text/html; charset=utf-8'
p3811
asbasbasbag61
(g77
g63
NtRp3812
(dp3813
g66
(dp3814
sg75
g3764
sg68
(lp3815
g61
(g82
g63
NtRp3816
(dp3817
g66
(dp3818
g86
g87
ssg75
g3812
sg68
(lp3819
S'Expires'
p3820
asbag61
(g82
g63
NtRp3821
(dp3822
g66
(dp3823
g93
g94
ssg75
g3812
sg68
(lp3824
S':'
asbag61
(g82
g63
NtRp3825
(dp3826
g66
(dp3827
sg75
g3812
sg68
(lp3828
g61
(g62
g63
NtRp3829
(dp3830
g66
(dp3831
g74
I4
ssg75
g3825
sg68
(lp3832
S'Fri, 06 Jul 2012 21:48:13 GMT'
p3833
asbasbasbag61
(g77
g63
NtRp3834
(dp3835
g66
(dp3836
sg75
g3764
sg68
(lp3837
g61
(g82
g63
NtRp3838
(dp3839
g66
(dp3840
g86
g87
ssg75
g3834
sg68
(lp3841
S'Pragma'
p3842
asbag61
(g82
g63
NtRp3843
(dp3844
g66
(dp3845
g93
g94
ssg75
g3834
sg68
(lp3846
S':'
asbag61
(g82
g63
NtRp3847
(dp3848
g66
(dp3849
sg75
g3834
sg68
(lp3850
g61
(g62
g63
NtRp3851
(dp3852
g66
(dp3853
g74
I4
ssg75
g3847
sg68
(lp3854
S'no-cache'
p3855
asbasbasbag61
(g77
g63
NtRp3856
(dp3857
g66
(dp3858
sg75
g3764
sg68
(lp3859
g61
(g82
g63
NtRp3860
(dp3861
g66
(dp3862
g86
g87
ssg75
g3856
sg68
(lp3863
S'X-Powered-By'
p3864
asbag61
(g82
g63
NtRp3865
(dp3866
g66
(dp3867
g93
g94
ssg75
g3856
sg68
(lp3868
S':'
asbag61
(g82
g63
NtRp3869
(dp3870
g66
(dp3871
sg75
g3856
sg68
(lp3872
g61
(g62
g63
NtRp3873
(dp3874
g66
(dp3875
g74
I4
ssg75
g3869
sg68
(lp3876
S'web2py'
p3877
asbasbasbasbasbasbasbag61
(g77
g63
NtRp3878
(dp3879
g66
(dp3880
sg75
g3395
sg68
(lp3881
g61
(g82
g63
NtRp3882
(dp3883
g66
(dp3884
g86
g87
ssg75
g3878
sg68
(lp3885
S'menu'
p3886
asbag61
(g82
g63
NtRp3887
(dp3888
g66
(dp3889
g93
g94
ssg75
g3878
sg68
(lp3890
S':'
asbag61
(g82
g63
NtRp3891
(dp3892
g66
(dp3893
sg75
g3878
sg68
(lp3894
g61
(g62
g63
NtRp3895
(dp3896
g66
(dp3897
g74
I5
ssg75
g3891
sg68
(lp3898
g61
(g70
g63
NtRp3899
(dp3900
g66
(dp3901
g74
I4
ssg75
Nsg68
(lp3902
g61
(g77
g63
NtRp3903
(dp3904
g66
(dp3905
sg75
g3899
sg68
(lp3906
g61
(g82
g63
NtRp3907
(dp3908
g66
(dp3909
sg75
g3903
sg68
(lp3910
g61
(g62
g63
NtRp3911
(dp3912
g66
(dp3913
g74
I4
ssg75
g3907
sg68
(lp3914
g61
(g70
g63
NtRp3915
(dp3916
g66
(dp3917
g74
I3
ssg75
Nsg68
(lp3918
g61
(g77
g63
NtRp3919
(dp3920
g66
(dp3921
sg75
g3915
sg68
(lp3922
g61
(g82
g63
NtRp3923
(dp3924
g66
(dp3925
sg75
g3919
sg68
(lp3926
g61
(g62
g63
NtRp3927
(dp3928
g66
(dp3929
g74
I3
ssg75
g3923
sg68
(lp3930
cgluon.languages
lazyT_unpickle
p3931
(S's\x04\x00\x00\x00Home'
tRp3932
asbasbasbag61
(g77
g63
NtRp3933
(dp3934
g66
(dp3935
sg75
g3915
sg68
(lp3936
g61
(g82
g63
NtRp3937
(dp3938
g66
(dp3939
sg75
g3933
sg68
(lp3940
g61
(g62
g63
NtRp3941
(dp3942
g66
(dp3943
g74
I3
ssg75
g3937
sg68
(lp3944
g104
asbasbasbag61
(g77
g63
NtRp3945
(dp3946
g66
(dp3947
sg75
g3915
sg68
(lp3948
g61
(g82
g63
NtRp3949
(dp3950
g66
(dp3951
sg75
g3945
sg68
(lp3952
g61
(g62
g63
NtRp3953
(dp3954
g66
(dp3955
g74
I3
ssg75
g3949
sg68
(lp3956
S'/sitsit/default/index'
p3957
asbasbasbag61
(g77
g63
NtRp3958
(dp3959
g66
(dp3960
sg75
g3915
sg68
(lp3961
g61
(g82
g63
NtRp3962
(dp3963
g66
(dp3964
sg75
g3958
sg68
(lp3965
g61
(g62
g63
NtRp3966
(dp3967
g66
(dp3968
g74
I3
ssg75
g3962
sg68
(lp3969
g61
(g70
g63
NtRp3970
(dp3971
g66
(dp3972
g74
I2
ssg75
Nsg68
(lp3973
sbasbasbasbasbasbasbasbag61
(g77
g63
NtRp3974
(dp3975
g66
(dp3976
sg75
g3899
sg68
(lp3977
g61
(g82
g63
NtRp3978
(dp3979
g66
(dp3980
sg75
g3974
sg68
(lp3981
g61
(g62
g63
NtRp3982
(dp3983
g66
(dp3984
g74
I4
ssg75
g3978
sg68
(lp3985
g61
(g70
g63
NtRp3986
(dp3987
g66
(dp3988
g74
I3
ssg75
Nsg68
(lp3989
g61
(g77
g63
NtRp3990
(dp3991
g66
(dp3992
sg75
g3986
sg68
(lp3993
g61
(g82
g63
NtRp3994
(dp3995
g66
(dp3996
sg75
g3990
sg68
(lp3997
g61
(g62
g63
NtRp3998
(dp3999
g66
(dp4000
g74
I3
ssg75
g3994
sg68
(lp4001
g61
(cgluon.html
SPAN
p4002
g63
NtRp4003
(dp4004
g66
(dp4005
g86
S'color:yellow'
p4006
ssg75
Nsg68
(lp4007
g3877
asbasbasbasbag61
(g77
g63
NtRp4008
(dp4009
g66
(dp4010
sg75
g3986
sg68
(lp4011
g61
(g82
g63
NtRp4012
(dp4013
g66
(dp4014
sg75
g4008
sg68
(lp4015
g61
(g62
g63
NtRp4016
(dp4017
g66
(dp4018
g74
I3
ssg75
g4012
sg68
(lp4019
g104
asbasbasbag61
(g77
g63
NtRp4020
(dp4021
g66
(dp4022
sg75
g3986
sg68
(lp4023
g61
(g82
g63
NtRp4024
(dp4025
g66
(dp4026
sg75
g4020
sg68
(lp4027
g61
(g62
g63
NtRp4028
(dp4029
g66
(dp4030
g74
I3
ssg75
g4024
sg68
(lp4031
S'None'
p4032
asbasbasbag61
(g77
g63
NtRp4033
(dp4034
g66
(dp4035
sg75
g3986
sg68
(lp4036
g61
(g82
g63
NtRp4037
(dp4038
g66
(dp4039
sg75
g4033
sg68
(lp4040
g61
(g62
g63
NtRp4041
(dp4042
g66
(dp4043
g74
I3
ssg75
g4037
sg68
(lp4044
g61
(g70
g63
NtRp4045
(dp4046
g66
(dp4047
g74
I2
ssg75
Nsg68
(lp4048
g61
(g77
g63
NtRp4049
(dp4050
g66
(dp4051
sg75
g4045
sg68
(lp4052
g61
(g82
g63
NtRp4053
(dp4054
g66
(dp4055
sg75
g4049
sg68
(lp4056
g61
(g62
g63
NtRp4057
(dp4058
g66
(dp4059
g74
I2
ssg75
g4053
sg68
(lp4060
g61
(g70
g63
NtRp4061
(dp4062
g66
(dp4063
g74
I1
ssg75
Nsg68
(lp4064
g61
(g77
g63
NtRp4065
(dp4066
g66
(dp4067
sg75
g4061
sg68
(lp4068
g61
(g82
g63
NtRp4069
(dp4070
g66
(dp4071
sg75
g4065
sg68
(lp4072
g61
(g62
g63
NtRp4073
(dp4074
g66
(dp4075
g74
I1
ssg75
g4069
sg68
(lp4076
g3931
(S's\x08\x00\x00\x00My Sites'
tRp4077
asbasbasbag61
(g77
g63
NtRp4078
(dp4079
g66
(dp4080
sg75
g4061
sg68
(lp4081
g61
(g82
g63
NtRp4082
(dp4083
g66
(dp4084
sg75
g4078
sg68
(lp4085
g61
(g62
g63
NtRp4086
(dp4087
g66
(dp4088
g74
I1
ssg75
g4082
sg68
(lp4089
I00
asbasbasbag61
(g77
g63
NtRp4090
(dp4091
g66
(dp4092
sg75
g4061
sg68
(lp4093
g61
(g82
g63
NtRp4094
(dp4095
g66
(dp4096
sg75
g4090
sg68
(lp4097
g61
(g62
g63
NtRp4098
(dp4099
g66
(dp4100
g74
I1
ssg75
g4094
sg68
(lp4101
S'/admin/default/site'
p4102
asbasbasbasbasbasbasbag61
(g77
g63
NtRp4103
(dp4104
g66
(dp4105
sg75
g4045
sg68
(lp4106
g61
(g82
g63
NtRp4107
(dp4108
g66
(dp4109
sg75
g4103
sg68
(lp4110
g61
(g62
g63
NtRp4111
(dp4112
g66
(dp4113
g74
I2
ssg75
g4107
sg68
(lp4114
g61
(g70
g63
NtRp4115
(dp4116
g66
(dp4117
g74
I1
ssg75
Nsg68
(lp4118
g61
(g77
g63
NtRp4119
(dp4120
g66
(dp4121
sg75
g4115
sg68
(lp4122
g61
(g82
g63
NtRp4123
(dp4124
g66
(dp4125
sg75
g4119
sg68
(lp4126
g61
(g62
g63
NtRp4127
(dp4128
g66
(dp4129
g74
I1
ssg75
g4123
sg68
(lp4130
g3931
(S's\x08\x00\x00\x00This App'
tRp4131
asbasbasbag61
(g77
g63
NtRp4132
(dp4133
g66
(dp4134
sg75
g4115
sg68
(lp4135
g61
(g82
g63
NtRp4136
(dp4137
g66
(dp4138
sg75
g4132
sg68
(lp4139
g61
(g62
g63
NtRp4140
(dp4141
g66
(dp4142
g74
I1
ssg75
g4136
sg68
(lp4143
I00
asbasbasbag61
(g77
g63
NtRp4144
(dp4145
g66
(dp4146
sg75
g4115
sg68
(lp4147
g61
(g82
g63
NtRp4148
(dp4149
g66
(dp4150
sg75
g4144
sg68
(lp4151
g61
(g62
g63
NtRp4152
(dp4153
g66
(dp4154
g74
I1
ssg75
g4148
sg68
(lp4155
S'/admin/default/design/sitsit'
p4156
asbasbasbag61
(g77
g63
NtRp4157
(dp4158
g66
(dp4159
sg75
g4115
sg68
(lp4160
g61
(g82
g63
NtRp4161
(dp4162
g66
(dp4163
sg75
g4157
sg68
(lp4164
g61
(g62
g63
NtRp4165
(dp4166
g66
(dp4167
g74
I1
ssg75
g4161
sg68
(lp4168
(lp4169
(g3931
(S's\n\x00\x00\x00Controller'
tRp4170
I00
S'/admin/default/edit/sitsit/controllers/default.py'
tp4171
a(g3931
(S's\x04\x00\x00\x00View'
tRp4172
I00
S'/admin/default/edit/sitsit/views/default/sitsit.html'
tp4173
a(g3931
(S's\x06\x00\x00\x00Layout'
tRp4174
I00
S'/admin/default/edit/sitsit/views/layout.html'
tp4175
a(g3931
(S's\n\x00\x00\x00Stylesheet'
tRp4176
I00
S'/admin/default/edit/sitsit/static/css/web2py.css'
tp4177
a(g3931
(S's\x08\x00\x00\x00DB Model'
tRp4178
I00
S'/admin/default/edit/sitsit/models/db.py'
tp4179
a(g3931
(S's\n\x00\x00\x00Menu Model'
tRp4180
I00
S'/admin/default/edit/sitsit/models/menu.py'
tp4181
a(g3931
(S's\x08\x00\x00\x00Database'
tRp4182
I00
S'/sitsit/appadmin/index'
tp4183
a(g3931
(S's\x06\x00\x00\x00Errors'
tRp4184
I00
S'/admin/default/errors/sitsit'
tp4185
a(g3931
(S's\x05\x00\x00\x00About'
tRp4186
I00
S'/admin/default/about/sitsit'
tp4187
aasbasbasbasbasbasbasbag61
(g77
g63
NtRp4188
(dp4189
g66
(dp4190
sg75
g4045
sg68
(lp4191
g61
(g82
g63
NtRp4192
(dp4193
g66
(dp4194
sg75
g4188
sg68
(lp4195
g61
(g62
g63
NtRp4196
(dp4197
g66
(dp4198
g74
I2
ssg75
g4192
sg68
(lp4199
g61
(g70
g63
NtRp4200
(dp4201
g66
(dp4202
g74
I1
ssg75
Nsg68
(lp4203
g61
(g77
g63
NtRp4204
(dp4205
g66
(dp4206
sg75
g4200
sg68
(lp4207
g61
(g82
g63
NtRp4208
(dp4209
g66
(dp4210
sg75
g4204
sg68
(lp4211
g61
(g62
g63
NtRp4212
(dp4213
g66
(dp4214
g74
I1
ssg75
g4208
sg68
(lp4215
S'web2py.com'
p4216
asbasbasbag61
(g77
g63
NtRp4217
(dp4218
g66
(dp4219
sg75
g4200
sg68
(lp4220
g61
(g82
g63
NtRp4221
(dp4222
g66
(dp4223
sg75
g4217
sg68
(lp4224
g61
(g62
g63
NtRp4225
(dp4226
g66
(dp4227
g74
I1
ssg75
g4221
sg68
(lp4228
I00
asbasbasbag61
(g77
g63
NtRp4229
(dp4230
g66
(dp4231
sg75
g4200
sg68
(lp4232
g61
(g82
g63
NtRp4233
(dp4234
g66
(dp4235
sg75
g4229
sg68
(lp4236
g61
(g62
g63
NtRp4237
(dp4238
g66
(dp4239
g74
I1
ssg75
g4233
sg68
(lp4240
S'http://www.web2py.com'
p4241
asbasbasbag61
(g77
g63
NtRp4242
(dp4243
g66
(dp4244
sg75
g4200
sg68
(lp4245
g61
(g82
g63
NtRp4246
(dp4247
g66
(dp4248
sg75
g4242
sg68
(lp4249
g61
(g62
g63
NtRp4250
(dp4251
g66
(dp4252
g74
I1
ssg75
g4246
sg68
(lp4253
(lp4254
(g3931
(S's\x08\x00\x00\x00Download'
tRp4255
I00
S'http://www.web2py.com/examples/default/download'
p4256
tp4257
a(g3931
(S's\x07\x00\x00\x00Support'
tRp4258
I00
S'http://www.web2py.com/examples/default/support'
p4259
tp4260
a(g3931
(S's\x04\x00\x00\x00Demo'
tRp4261
I00
S'http://web2py.com/demo_admin'
p4262
tp4263
a(g3931
(S's\x0e\x00\x00\x00Quick Examples'
tRp4264
I00
S'http://web2py.com/examples/default/examples'
p4265
tp4266
a(g3931
(S's\x03\x00\x00\x00FAQ'
tRp4267
I00
S'http://web2py.com/AlterEgo'
p4268
tp4269
a(g3931
(S's\x06\x00\x00\x00Videos'
tRp4270
I00
S'http://www.web2py.com/examples/default/videos/'
p4271
tp4272
a(g3931
(S's\x11\x00\x00\x00Free Applications'
tRp4273
I00
S'http://web2py.com/appliances'
p4274
tp4275
a(g3931
(S's\x07\x00\x00\x00Plugins'
tRp4276
I00
S'http://web2py.com/plugins'
p4277
tp4278
a(g3931
(S's\x07\x00\x00\x00Layouts'
tRp4279
I00
S'http://web2py.com/layouts'
p4280
tp4281
a(g3931
(S's\x07\x00\x00\x00Recipes'
tRp4282
I00
S'http://web2pyslices.com/'
p4283
tp4284
a(g3931
(S's\x08\x00\x00\x00Semantic'
tRp4285
I00
S'http://web2py.com/semantic'
p4286
tp4287
aasbasbasbasbasbasbasbag61
(g77
g63
NtRp4288
(dp4289
g66
(dp4290
sg75
g4045
sg68
(lp4291
g61
(g82
g63
NtRp4292
(dp4293
g66
(dp4294
sg75
g4288
sg68
(lp4295
g61
(g62
g63
NtRp4296
(dp4297
g66
(dp4298
g74
I2
ssg75
g4292
sg68
(lp4299
g61
(g70
g63
NtRp4300
(dp4301
g66
(dp4302
g74
I1
ssg75
Nsg68
(lp4303
g61
(g77
g63
NtRp4304
(dp4305
g66
(dp4306
sg75
g4300
sg68
(lp4307
g61
(g82
g63
NtRp4308
(dp4309
g66
(dp4310
sg75
g4304
sg68
(lp4311
g61
(g62
g63
NtRp4312
(dp4313
g66
(dp4314
g74
I1
ssg75
g4308
sg68
(lp4315
g3931
(S's\r\x00\x00\x00Documentation'
tRp4316
asbasbasbag61
(g77
g63
NtRp4317
(dp4318
g66
(dp4319
sg75
g4300
sg68
(lp4320
g61
(g82
g63
NtRp4321
(dp4322
g66
(dp4323
sg75
g4317
sg68
(lp4324
g61
(g62
g63
NtRp4325
(dp4326
g66
(dp4327
g74
I1
ssg75
g4321
sg68
(lp4328
I00
asbasbasbag61
(g77
g63
NtRp4329
(dp4330
g66
(dp4331
sg75
g4300
sg68
(lp4332
g61
(g82
g63
NtRp4333
(dp4334
g66
(dp4335
sg75
g4329
sg68
(lp4336
g61
(g62
g63
NtRp4337
(dp4338
g66
(dp4339
g74
I1
ssg75
g4333
sg68
(lp4340
S'http://www.web2py.com/book'
p4341
asbasbasbag61
(g77
g63
NtRp4342
(dp4343
g66
(dp4344
sg75
g4300
sg68
(lp4345
g61
(g82
g63
NtRp4346
(dp4347
g66
(dp4348
sg75
g4342
sg68
(lp4349
g61
(g62
g63
NtRp4350
(dp4351
g66
(dp4352
g74
I1
ssg75
g4346
sg68
(lp4353
(lp4354
(g3931
(S's\x07\x00\x00\x00Preface'
tRp4355
I00
S'http://www.web2py.com/book/default/chapter/00'
p4356
tp4357
a(g3931
(S's\x0c\x00\x00\x00Introduction'
tRp4358
I00
S'http://www.web2py.com/book/default/chapter/01'
p4359
tp4360
a(g3931
(S's\x06\x00\x00\x00Python'
tRp4361
I00
S'http://www.web2py.com/book/default/chapter/02'
p4362
tp4363
a(g3931
(S's\x08\x00\x00\x00Overview'
tRp4364
I00
S'http://www.web2py.com/book/default/chapter/03'
p4365
tp4366
a(g3931
(S's\x08\x00\x00\x00The Core'
tRp4367
I00
S'http://www.web2py.com/book/default/chapter/04'
p4368
tp4369
a(g3931
(S's\t\x00\x00\x00The Views'
tRp4370
I00
S'http://www.web2py.com/book/default/chapter/05'
p4371
tp4372
a(g3931
(S's\x08\x00\x00\x00Database'
tRp4373
I00
S'http://www.web2py.com/book/default/chapter/06'
p4374
tp4375
a(g3931
(S's\x14\x00\x00\x00Forms and Validators'
tRp4376
I00
S'http://www.web2py.com/book/default/chapter/07'
p4377
tp4378
a(g3931
(S's\r\x00\x00\x00Email and SMS'
tRp4379
I00
S'http://www.web2py.com/book/default/chapter/08'
p4380
tp4381
a(g3931
(S's\x0e\x00\x00\x00Access Control'
tRp4382
I00
S'http://www.web2py.com/book/default/chapter/09'
p4383
tp4384
a(g3931
(S's\x08\x00\x00\x00Services'
tRp4385
I00
S'http://www.web2py.com/book/default/chapter/10'
p4386
tp4387
a(g3931
(S's\x0c\x00\x00\x00Ajax Recipes'
tRp4388
I00
S'http://www.web2py.com/book/default/chapter/11'
p4389
tp4390
a(g3931
(S's\x16\x00\x00\x00Components and Plugins'
tRp4391
I00
S'http://www.web2py.com/book/default/chapter/12'
p4392
tp4393
a(g3931
(S's\x12\x00\x00\x00Deployment Recipes'
tRp4394
I00
S'http://www.web2py.com/book/default/chapter/13'
p4395
tp4396
a(g3931
(S's\r\x00\x00\x00Other Recipes'
tRp4397
I00
S'http://www.web2py.com/book/default/chapter/14'
p4398
tp4399
a(g3931
(S's\r\x00\x00\x00Buy this book'
tRp4400
I00
S'http://stores.lulu.com/web2py'
p4401
tp4402
aasbasbasbasbasbasbasbag61
(g77
g63
NtRp4403
(dp4404
g66
(dp4405
sg75
g4045
sg68
(lp4406
g61
(g82
g63
NtRp4407
(dp4408
g66
(dp4409
sg75
g4403
sg68
(lp4410
g61
(g62
g63
NtRp4411
(dp4412
g66
(dp4413
g74
I2
ssg75
g4407
sg68
(lp4414
g61
(g70
g63
NtRp4415
(dp4416
g66
(dp4417
g74
I1
ssg75
Nsg68
(lp4418
g61
(g77
g63
NtRp4419
(dp4420
g66
(dp4421
sg75
g4415
sg68
(lp4422
g61
(g82
g63
NtRp4423
(dp4424
g66
(dp4425
sg75
g4419
sg68
(lp4426
g61
(g62
g63
NtRp4427
(dp4428
g66
(dp4429
g74
I1
ssg75
g4423
sg68
(lp4430
g3931
(S's\t\x00\x00\x00Community'
tRp4431
asbasbasbag61
(g77
g63
NtRp4432
(dp4433
g66
(dp4434
sg75
g4415
sg68
(lp4435
g61
(g82
g63
NtRp4436
(dp4437
g66
(dp4438
sg75
g4432
sg68
(lp4439
g61
(g62
g63
NtRp4440
(dp4441
g66
(dp4442
g74
I1
ssg75
g4436
sg68
(lp4443
I00
asbasbasbag61
(g77
g63
NtRp4444
(dp4445
g66
(dp4446
sg75
g4415
sg68
(lp4447
g61
(g82
g63
NtRp4448
(dp4449
g66
(dp4450
sg75
g4444
sg68
(lp4451
g61
(g62
g63
NtRp4452
(dp4453
g66
(dp4454
g74
I1
ssg75
g4448
sg68
(lp4455
Nasbasbasbag61
(g77
g63
NtRp4456
(dp4457
g66
(dp4458
sg75
g4415
sg68
(lp4459
g61
(g82
g63
NtRp4460
(dp4461
g66
(dp4462
sg75
g4456
sg68
(lp4463
g61
(g62
g63
NtRp4464
(dp4465
g66
(dp4466
g74
I1
ssg75
g4460
sg68
(lp4467
(lp4468
(g3931
(S's\x06\x00\x00\x00Groups'
tRp4469
I00
S'http://www.web2py.com/examples/default/usergroups'
p4470
tp4471
a(g3931
(S's\x07\x00\x00\x00Twitter'
tRp4472
I00
S'http://twitter.com/web2py'
p4473
tp4474
a(g3931
(S's\t\x00\x00\x00Live Chat'
tRp4475
I00
S'http://webchat.freenode.net/?channels=web2py'
p4476
tp4477
aasbasbasbasbasbasbasbag61
(g77
g63
NtRp4478
(dp4479
g66
(dp4480
sg75
g4045
sg68
(lp4481
g61
(g82
g63
NtRp4482
(dp4483
g66
(dp4484
sg75
g4478
sg68
(lp4485
g61
(g62
g63
NtRp4486
(dp4487
g66
(dp4488
g74
I2
ssg75
g4482
sg68
(lp4489
g61
(g70
g63
NtRp4490
(dp4491
g66
(dp4492
g74
I1
ssg75
Nsg68
(lp4493
g61
(g77
g63
NtRp4494
(dp4495
g66
(dp4496
sg75
g4490
sg68
(lp4497
g61
(g82
g63
NtRp4498
(dp4499
g66
(dp4500
sg75
g4494
sg68
(lp4501
g61
(g62
g63
NtRp4502
(dp4503
g66
(dp4504
g74
I1
ssg75
g4498
sg68
(lp4505
g3931
(S's\x07\x00\x00\x00Plugins'
tRp4506
asbasbasbag61
(g77
g63
NtRp4507
(dp4508
g66
(dp4509
sg75
g4490
sg68
(lp4510
g61
(g82
g63
NtRp4511
(dp4512
g66
(dp4513
sg75
g4507
sg68
(lp4514
g61
(g62
g63
NtRp4515
(dp4516
g66
(dp4517
g74
I1
ssg75
g4511
sg68
(lp4518
I00
asbasbasbag61
(g77
g63
NtRp4519
(dp4520
g66
(dp4521
sg75
g4490
sg68
(lp4522
g61
(g82
g63
NtRp4523
(dp4524
g66
(dp4525
sg75
g4519
sg68
(lp4526
g61
(g62
g63
NtRp4527
(dp4528
g66
(dp4529
g74
I1
ssg75
g4523
sg68
(lp4530
Nasbasbasbag61
(g77
g63
NtRp4531
(dp4532
g66
(dp4533
sg75
g4490
sg68
(lp4534
g61
(g82
g63
NtRp4535
(dp4536
g66
(dp4537
sg75
g4531
sg68
(lp4538
g61
(g62
g63
NtRp4539
(dp4540
g66
(dp4541
g74
I1
ssg75
g4535
sg68
(lp4542
(lp4543
(S'plugin_wiki'
p4544
I00
S'http://web2py.com/examples/default/download'
p4545
tp4546
a(g3931
(S's\r\x00\x00\x00Other Plugins'
tRp4547
I00
g4277
tp4548
a(g3931
(S's\x0e\x00\x00\x00Layout Plugins'
tRp4549
I00
g4280
tp4550
aasbasbasbasbasbasbasbasbasbasbasbasbasbasbasbasbasbasbasbag61
(g77
g63
NtRp4551
(dp4552
g66
(dp4553
sg75
g3395
sg68
(lp4554
g61
(g82
g63
NtRp4555
(dp4556
g66
(dp4557
g86
g87
ssg75
g4551
sg68
(lp4558
S'meta'
p4559
asbag61
(g82
g63
NtRp4560
(dp4561
g66
(dp4562
g93
g94
ssg75
g4551
sg68
(lp4563
S':'
asbag61
(g82
g63
NtRp4564
(dp4565
g66
(dp4566
sg75
g4551
sg68
(lp4567
g61
(g62
g63
NtRp4568
(dp4569
g66
(dp4570
g74
I5
ssg75
g4564
sg68
(lp4571
g61
(g70
g63
NtRp4572
(dp4573
g66
(dp4574
g74
I4
ssg75
Nsg68
(lp4575
g61
(g77
g63
NtRp4576
(dp4577
g66
(dp4578
sg75
g4572
sg68
(lp4579
g61
(g82
g63
NtRp4580
(dp4581
g66
(dp4582
g86
g87
ssg75
g4576
sg68
(lp4583
S'author'
p4584
asbag61
(g82
g63
NtRp4585
(dp4586
g66
(dp4587
g93
g94
ssg75
g4576
sg68
(lp4588
S':'
asbag61
(g82
g63
NtRp4589
(dp4590
g66
(dp4591
sg75
g4576
sg68
(lp4592
g61
(g62
g63
NtRp4593
(dp4594
g66
(dp4595
g74
I4
ssg75
g4589
sg68
(lp4596
S'Your Name <you@example.com>'
p4597
asbasbasbag61
(g77
g63
NtRp4598
(dp4599
g66
(dp4600
sg75
g4572
sg68
(lp4601
g61
(g82
g63
NtRp4602
(dp4603
g66
(dp4604
g86
g87
ssg75
g4598
sg68
(lp4605
S'copyright'
p4606
asbag61
(g82
g63
NtRp4607
(dp4608
g66
(dp4609
g93
g94
ssg75
g4598
sg68
(lp4610
S':'
asbag61
(g82
g63
NtRp4611
(dp4612
g66
(dp4613
sg75
g4598
sg68
(lp4614
g61
(g62
g63
NtRp4615
(dp4616
g66
(dp4617
g74
I4
ssg75
g4611
sg68
(lp4618
S'Copyright 2011'
p4619
asbasbasbag61
(g77
g63
NtRp4620
(dp4621
g66
(dp4622
sg75
g4572
sg68
(lp4623
g61
(g82
g63
NtRp4624
(dp4625
g66
(dp4626
g86
g87
ssg75
g4620
sg68
(lp4627
S'description'
p4628
asbag61
(g82
g63
NtRp4629
(dp4630
g66
(dp4631
g93
g94
ssg75
g4620
sg68
(lp4632
S':'
asbag61
(g82
g63
NtRp4633
(dp4634
g66
(dp4635
sg75
g4620
sg68
(lp4636
g61
(g62
g63
NtRp4637
(dp4638
g66
(dp4639
g74
I4
ssg75
g4633
sg68
(lp4640
S'a cool new app'
p4641
asbasbasbag61
(g77
g63
NtRp4642
(dp4643
g66
(dp4644
sg75
g4572
sg68
(lp4645
g61
(g82
g63
NtRp4646
(dp4647
g66
(dp4648
g86
g87
ssg75
g4642
sg68
(lp4649
S'generator'
p4650
asbag61
(g82
g63
NtRp4651
(dp4652
g66
(dp4653
g93
g94
ssg75
g4642
sg68
(lp4654
S':'
asbag61
(g82
g63
NtRp4655
(dp4656
g66
(dp4657
sg75
g4642
sg68
(lp4658
g61
(g62
g63
NtRp4659
(dp4660
g66
(dp4661
g74
I4
ssg75
g4655
sg68
(lp4662
S'Web2py Web Framework'
p4663
asbasbasbag61
(g77
g63
NtRp4664
(dp4665
g66
(dp4666
sg75
g4572
sg68
(lp4667
g61
(g82
g63
NtRp4668
(dp4669
g66
(dp4670
g86
g87
ssg75
g4664
sg68
(lp4671
S'keywords'
p4672
asbag61
(g82
g63
NtRp4673
(dp4674
g66
(dp4675
g93
g94
ssg75
g4664
sg68
(lp4676
S':'
asbag61
(g82
g63
NtRp4677
(dp4678
g66
(dp4679
sg75
g4664
sg68
(lp4680
g61
(g62
g63
NtRp4681
(dp4682
g66
(dp4683
g74
I4
ssg75
g4677
sg68
(lp4684
S'web2py, python, framework'
p4685
asbasbasbasbasbasbasbag61
(g77
g63
NtRp4686
(dp4687
g66
(dp4688
sg75
g3395
sg68
(lp4689
g61
(g82
g63
NtRp4690
(dp4691
g66
(dp4692
g86
g87
ssg75
g4686
sg68
(lp4693
S'postprocessing'
p4694
asbag61
(g82
g63
NtRp4695
(dp4696
g66
(dp4697
g93
g94
ssg75
g4686
sg68
(lp4698
S':'
asbag61
(g82
g63
NtRp4699
(dp4700
g66
(dp4701
sg75
g4686
sg68
(lp4702
g61
(g62
g63
NtRp4703
(dp4704
g66
(dp4705
g74
I5
ssg75
g4699
sg68
(lp4706
g61
(g70
g63
NtRp4707
(dp4708
g66
(dp4709
g74
I4
ssg75
Nsg68
(lp4710
sbasbasbasbag61
(g77
g63
NtRp4711
(dp4712
g66
(dp4713
sg75
g3395
sg68
(lp4714
g61
(g82
g63
NtRp4715
(dp4716
g66
(dp4717
g86
g87
ssg75
g4711
sg68
(lp4718
S'session_file'
p4719
asbag61
(g82
g63
NtRp4720
(dp4721
g66
(dp4722
g93
g94
ssg75
g4711
sg68
(lp4723
S':'
asbag61
(g82
g63
NtRp4724
(dp4725
g66
(dp4726
sg75
g4711
sg68
(lp4727
g61
(g62
g63
NtRp4728
(dp4729
g66
(dp4730
g74
I5
ssg75
g4724
sg68
(lp4731
S"<open file 'C:\\Users\\Osku\\koodaus\\web2py\\applications\\sitsit\\sessions\\127.0.0.1-ec2284ba-32fe-4a19-9a6f-e97c370381b5', mode 'rb+' at 0x04E109B0>"
p4732
asbasbasbag61
(g77
g63
NtRp4733
(dp4734
g66
(dp4735
sg75
g3395
sg68
(lp4736
g61
(g82
g63
NtRp4737
(dp4738
g66
(dp4739
g86
g87
ssg75
g4733
sg68
(lp4740
S'session_filename'
p4741
asbag61
(g82
g63
NtRp4742
(dp4743
g66
(dp4744
g93
g94
ssg75
g4733
sg68
(lp4745
S':'
asbag61
(g82
g63
NtRp4746
(dp4747
g66
(dp4748
sg75
g4733
sg68
(lp4749
g61
(g62
g63
NtRp4750
(dp4751
g66
(dp4752
g74
I5
ssg75
g4746
sg68
(lp4753
S'C:\\Users\\Osku\\koodaus\\web2py\\applications\\sitsit\\sessions\\127.0.0.1-ec2284ba-32fe-4a19-9a6f-e97c370381b5'
p4754
asbasbasbag61
(g77
g63
NtRp4755
(dp4756
g66
(dp4757
sg75
g3395
sg68
(lp4758
g61
(g82
g63
NtRp4759
(dp4760
g66
(dp4761
g86
g87
ssg75
g4755
sg68
(lp4762
S'session_id'
p4763
asbag61
(g82
g63
NtRp4764
(dp4765
g66
(dp4766
g93
g94
ssg75
g4755
sg68
(lp4767
S':'
asbag61
(g82
g63
NtRp4768
(dp4769
g66
(dp4770
sg75
g4755
sg68
(lp4771
g61
(g62
g63
NtRp4772
(dp4773
g66
(dp4774
g74
I5
ssg75
g4768
sg68
(lp4775
S'127.0.0.1-ec2284ba-32fe-4a19-9a6f-e97c370381b5'
p4776
asbasbasbag61
(g77
g63
NtRp4777
(dp4778
g66
(dp4779
sg75
g3395
sg68
(lp4780
g61
(g82
g63
NtRp4781
(dp4782
g66
(dp4783
g86
g87
ssg75
g4777
sg68
(lp4784
S'session_id_name'
p4785
asbag61
(g82
g63
NtRp4786
(dp4787
g66
(dp4788
g93
g94
ssg75
g4777
sg68
(lp4789
S':'
asbag61
(g82
g63
NtRp4790
(dp4791
g66
(dp4792
sg75
g4777
sg68
(lp4793
g61
(g62
g63
NtRp4794
(dp4795
g66
(dp4796
g74
I5
ssg75
g4790
sg68
(lp4797
g3452
asbasbasbag61
(g77
g63
NtRp4798
(dp4799
g66
(dp4800
sg75
g3395
sg68
(lp4801
g61
(g82
g63
NtRp4802
(dp4803
g66
(dp4804
g86
g87
ssg75
g4798
sg68
(lp4805
S'session_locked'
p4806
asbag61
(g82
g63
NtRp4807
(dp4808
g66
(dp4809
g93
g94
ssg75
g4798
sg68
(lp4810
S':'
asbag61
(g82
g63
NtRp4811
(dp4812
g66
(dp4813
sg75
g4798
sg68
(lp4814
g61
(g62
g63
NtRp4815
(dp4816
g66
(dp4817
g74
I5
ssg75
g4811
sg68
(lp4818
g1633
asbasbasbag61
(g77
g63
NtRp4819
(dp4820
g66
(dp4821
sg75
g3395
sg68
(lp4822
g61
(g82
g63
NtRp4823
(dp4824
g66
(dp4825
g86
g87
ssg75
g4819
sg68
(lp4826
S'session_new'
p4827
asbag61
(g82
g63
NtRp4828
(dp4829
g66
(dp4830
g93
g94
ssg75
g4819
sg68
(lp4831
S':'
asbag61
(g82
g63
NtRp4832
(dp4833
g66
(dp4834
sg75
g4819
sg68
(lp4835
g61
(g62
g63
NtRp4836
(dp4837
g66
(dp4838
g74
I5
ssg75
g4832
sg68
(lp4839
g104
asbasbasbag61
(g77
g63
NtRp4840
(dp4841
g66
(dp4842
sg75
g3395
sg68
(lp4843
g61
(g82
g63
NtRp4844
(dp4845
g66
(dp4846
g86
g87
ssg75
g4840
sg68
(lp4847
S'status'
p4848
asbag61
(g82
g63
NtRp4849
(dp4850
g66
(dp4851
g93
g94
ssg75
g4840
sg68
(lp4852
S':'
asbag61
(g82
g63
NtRp4853
(dp4854
g66
(dp4855
sg75
g4840
sg68
(lp4856
g61
(g62
g63
NtRp4857
(dp4858
g66
(dp4859
g74
I5
ssg75
g4853
sg68
(lp4860
S'200'
p4861
asbasbasbag61
(g77
g63
NtRp4862
(dp4863
g66
(dp4864
sg75
g3395
sg68
(lp4865
g61
(g82
g63
NtRp4866
(dp4867
g66
(dp4868
g86
g87
ssg75
g4862
sg68
(lp4869
S'subtitle'
p4870
asbag61
(g82
g63
NtRp4871
(dp4872
g66
(dp4873
g93
g94
ssg75
g4862
sg68
(lp4874
S':'
asbag61
(g82
g63
NtRp4875
(dp4876
g66
(dp4877
sg75
g4862
sg68
(lp4878
g61
(g62
g63
NtRp4879
(dp4880
g66
(dp4881
g74
I5
ssg75
g4875
sg68
(lp4882
g3931
(S's\r\x00\x00\x00customize me!'
tRp4883
asbasbasbag61
(g77
g63
NtRp4884
(dp4885
g66
(dp4886
sg75
g3395
sg68
(lp4887
g61
(g82
g63
NtRp4888
(dp4889
g66
(dp4890
g86
g87
ssg75
g4884
sg68
(lp4891
S'title'
p4892
asbag61
(g82
g63
NtRp4893
(dp4894
g66
(dp4895
g93
g94
ssg75
g4884
sg68
(lp4896
S':'
asbag61
(g82
g63
NtRp4897
(dp4898
g66
(dp4899
sg75
g4884
sg68
(lp4900
g61
(g62
g63
NtRp4901
(dp4902
g66
(dp4903
g74
I5
ssg75
g4897
sg68
(lp4904
S'Sitsit'
p4905
asbasbasbag61
(g77
g63
NtRp4906
(dp4907
g66
(dp4908
sg75
g3395
sg68
(lp4909
g61
(g82
g63
NtRp4910
(dp4911
g66
(dp4912
g86
g87
ssg75
g4906
sg68
(lp4913
g2318
asbag61
(g82
g63
NtRp4914
(dp4915
g66
(dp4916
g93
g94
ssg75
g4906
sg68
(lp4917
S':'
asbag61
(g82
g63
NtRp4918
(dp4919
g66
(dp4920
sg75
g4906
sg68
(lp4921
g61
(g62
g63
NtRp4922
(dp4923
g66
(dp4924
g74
I5
ssg75
g4918
sg68
(lp4925
g2331
asbasbasbag61
(g77
g63
NtRp4926
(dp4927
g66
(dp4928
sg75
g3395
sg68
(lp4929
g61
(g82
g63
NtRp4930
(dp4931
g66
(dp4932
g86
g87
ssg75
g4926
sg68
(lp4933
S'view'
p4934
asbag61
(g82
g63
NtRp4935
(dp4936
g66
(dp4937
g93
g94
ssg75
g4926
sg68
(lp4938
S':'
asbag61
(g82
g63
NtRp4939
(dp4940
g66
(dp4941
sg75
g4926
sg68
(lp4942
g61
(g62
g63
NtRp4943
(dp4944
g66
(dp4945
g74
I5
ssg75
g4939
sg68
(lp4946
S'default/sitsit.html'
p4947
asbasbasbasbasbsS'locals'
p4948
(dp4949
g4
S"r'C:\\Users\\Osku\\koodaus\\web2py\\applications\\sitsit\\controllers/default.py'"
p4950
sg6
S"'# -*- coding: utf-8 -*-\\n# this file is released ...rud())\\n\\n\\nresponse._vars=response._caller(sitsit)\\n'"
p4951
sssS'traceback'
p4952
S'Traceback (most recent call last):\n  File "gluon/restricted.py", line 204, in restricted\n  File "gluon/restricted.py", line 189, in compile2\n  File "C:\\Users\\Osku\\koodaus\\web2py\\applications\\sitsit\\controllers/default.py", line 44\n    return "False"\n                 \n^\nIndentationError: unindent does not match any outer indentation level\n'
p4953
s.