(dp1
S'output'
p2
S"<type 'exceptions.TypeError'> unsupported operand type(s) for +: 'dict' and 'dict'"
p3
sS'layer'
p4
S'C:\\Users\\Osku\\koodaus\\web2py\\applications\\sitsit\\controllers/default.py'
p5
sS'code'
p6
S'# -*- coding: utf-8 -*-\n# this file is released under public domain and you can use without limitations\n\n#########################################################################\n## This is a samples controller\n## - index is the default action of any application\n## - user is required for authentication and authorization\n## - download is for downloading files uploaded in the db (does streaming)\n## - call exposes all registered services (none by default)\n#########################################################################\n\ndef index():\n    """\n    example action using the internationalization operator T and flash\n    rendered by views/default/index.html or views/generic.html\n    """\n    response.flash = "Welcome to web2py!"\n    return dict(message=T(\'Hello World\'))\n\n\ndef sitsit(): \n\tif len(request.args) == 0:\n\t\tresponse.view = "%s/%s.%s" % (request.controller, request.function+"new", request.extension)\n\t\tform = SQLFORM(db.party)\n\t\tif form.process().accepted:\n\t\t\treturn redirect(URL(args=form.vars.id))\n\t\treturn dict(form=form)\n\tif len(request.args):\n\t\tsitsiID = request.args[0]\n\t\tsitsit = db.party[sitsiID]\n\t\tif sitsit:\n\t\t\treturn (dict(sitsit.as_dict())+dict(found=True))\n\t\telse:\n\t\t\treturn dict(found=False)\n\ndef user():\n    """\n    exposes:\n    http://..../[app]/default/user/login\n    http://..../[app]/default/user/logout\n    http://..../[app]/default/user/register\n    http://..../[app]/default/user/profile\n    http://..../[app]/default/user/retrieve_password\n    http://..../[app]/default/user/change_password\n    use @auth.requires_login()\n        @auth.requires_membership(\'group name\')\n        @auth.requires_permission(\'read\',\'table name\',record_id)\n    to decorate functions that need access control\n    """\n    return dict(form=auth())\n\n\ndef download():\n    """\n    allows downloading of uploaded files\n    http://..../[app]/default/download/[filename]\n    """\n    return response.download(request,db)\n\n\ndef call():\n    """\n    exposes services. for example:\n    http://..../[app]/default/call/jsonrpc\n    decorate with @services.jsonrpc the functions to expose\n    supports xml, json, xmlrpc, jsonrpc, amfrpc, rss, csv\n    """\n    return service()\n\n\n@auth.requires_signature()\ndef data():\n    """\n    http://..../[app]/default/data/tables\n    http://..../[app]/default/data/create/[table]\n    http://..../[app]/default/data/read/[table]/[id]\n    http://..../[app]/default/data/update/[table]/[id]\n    http://..../[app]/default/data/delete/[table]/[id]\n    http://..../[app]/default/data/select/[table]\n    http://..../[app]/default/data/search/[table]\n    but URLs must be signed, i.e. linked with\n      A(\'table\',_href=URL(\'data/tables\',user_signature=True))\n    or with the signed load operator\n      LOAD(\'default\',\'data.load\',args=\'tables\',ajax=True,user_signature=True)\n    """\n    return dict(form=crud())\n\n\nresponse._vars=response._caller(sitsit)\n'
p7
sS'snapshot'
p8
(dp9
S'exception'
p10
(dp11
S'__hash__'
p12
S"<method-wrapper '__hash__' of exceptions.TypeError object at 0x0504EA80>"
p13
sS'__setattr__'
p14
S"<method-wrapper '__setattr__' of exceptions.TypeError object at 0x0504EA80>"
p15
sS'__reduce_ex__'
p16
S'<built-in method __reduce_ex__ of exceptions.TypeError object at 0x0504EA80>'
p17
sS'__getslice__'
p18
S"<method-wrapper '__getslice__' of exceptions.TypeError object at 0x0504EA80>"
p19
sS'__getitem__'
p20
S"<method-wrapper '__getitem__' of exceptions.TypeError object at 0x0504EA80>"
p21
sS'__setstate__'
p22
S'<built-in method __setstate__ of exceptions.TypeError object at 0x0504EA80>'
p23
sS'__reduce__'
p24
S'<built-in method __reduce__ of exceptions.TypeError object at 0x0504EA80>'
p25
sS'__str__'
p26
S"<method-wrapper '__str__' of exceptions.TypeError object at 0x0504EA80>"
p27
sS'args'
p28
S'("unsupported operand type(s) for +: \'dict\' and \'dict\'",)'
p29
sS'__getattribute__'
p30
S"<method-wrapper '__getattribute__' of exceptions.TypeError object at 0x0504EA80>"
p31
sS'__class__'
p32
S"<type 'exceptions.TypeError'>"
p33
sS'__delattr__'
p34
S"<method-wrapper '__delattr__' of exceptions.TypeError object at 0x0504EA80>"
p35
sS'__repr__'
p36
S"<method-wrapper '__repr__' of exceptions.TypeError object at 0x0504EA80>"
p37
sS'__dict__'
p38
S'{}'
p39
sS'__doc__'
p40
S"'Inappropriate argument type.'"
p41
sS'__init__'
p42
S"<method-wrapper '__init__' of exceptions.TypeError object at 0x0504EA80>"
p43
sS'__new__'
p44
S'<built-in method __new__ of type object at 0x1E1CCD78>'
p45
ssS'evalue'
p46
S"unsupported operand type(s) for +: 'dict' and 'dict'"
p47
sS'request'
p48
ccopy_reg
_reconstructor
p49
(cgluon.html
BEAUTIFY
p50
c__builtin__
object
p51
NtRp52
(dp53
S'attributes'
p54
(dp55
sS'components'
p56
(lp57
g49
(cgluon.html
TABLE
p58
g51
NtRp59
(dp60
g54
(dp61
S'level'
p62
I5
ssS'parent'
p63
Nsg56
(lp64
g49
(cgluon.html
TR
p65
g51
NtRp66
(dp67
g54
(dp68
sg63
g59
sg56
(lp69
g49
(cgluon.html
TD
p70
g51
NtRp71
(dp72
g54
(dp73
S'_style'
p74
S'font-weight:bold;vertical-align:top'
p75
ssg63
g66
sg56
(lp76
S'ajax'
p77
asbag49
(g70
g51
NtRp78
(dp79
g54
(dp80
S'_valign'
p81
S'top'
p82
ssg63
g66
sg56
(lp83
S':'
asbag49
(g70
g51
NtRp84
(dp85
g54
(dp86
sg63
g66
sg56
(lp87
g49
(g50
g51
NtRp88
(dp89
g54
(dp90
g62
I5
ssg63
g84
sg56
(lp91
S'False'
p92
asbasbasbag49
(g65
g51
NtRp93
(dp94
g54
(dp95
sg63
g59
sg56
(lp96
g49
(g70
g51
NtRp97
(dp98
g54
(dp99
g74
g75
ssg63
g93
sg56
(lp100
S'application'
p101
asbag49
(g70
g51
NtRp102
(dp103
g54
(dp104
g81
g82
ssg63
g93
sg56
(lp105
S':'
asbag49
(g70
g51
NtRp106
(dp107
g54
(dp108
sg63
g93
sg56
(lp109
g49
(g50
g51
NtRp110
(dp111
g54
(dp112
g62
I5
ssg63
g106
sg56
(lp113
S'sitsit'
p114
asbasbasbag49
(g65
g51
NtRp115
(dp116
g54
(dp117
sg63
g59
sg56
(lp118
g49
(g70
g51
NtRp119
(dp120
g54
(dp121
g74
g75
ssg63
g115
sg56
(lp122
g28
asbag49
(g70
g51
NtRp123
(dp124
g54
(dp125
g81
g82
ssg63
g115
sg56
(lp126
S':'
asbag49
(g70
g51
NtRp127
(dp128
g54
(dp129
sg63
g115
sg56
(lp130
g49
(g50
g51
NtRp131
(dp132
g54
(dp133
g62
I5
ssg63
g127
sg56
(lp134
g49
(g58
g51
NtRp135
(dp136
g54
(dp137
g62
I4
ssg63
Nsg56
(lp138
g49
(g65
g51
NtRp139
(dp140
g54
(dp141
sg63
g135
sg56
(lp142
g49
(g70
g51
NtRp143
(dp144
g54
(dp145
sg63
g139
sg56
(lp146
g49
(g50
g51
NtRp147
(dp148
g54
(dp149
g62
I4
ssg63
g143
sg56
(lp150
S'1'
asbasbasbasbasbasbasbag49
(g65
g51
NtRp151
(dp152
g54
(dp153
sg63
g59
sg56
(lp154
g49
(g70
g51
NtRp155
(dp156
g54
(dp157
g74
g75
ssg63
g151
sg56
(lp158
S'body'
p159
asbag49
(g70
g51
NtRp160
(dp161
g54
(dp162
g81
g82
ssg63
g151
sg56
(lp163
S':'
asbag49
(g70
g51
NtRp164
(dp165
g54
(dp166
sg63
g151
sg56
(lp167
g49
(g50
g51
NtRp168
(dp169
g54
(dp170
g62
I5
ssg63
g164
sg56
(lp171
S'<cStringIO.StringO object at 0x05055F00>'
p172
asbasbasbag49
(g65
g51
NtRp173
(dp174
g54
(dp175
sg63
g59
sg56
(lp176
g49
(g70
g51
NtRp177
(dp178
g54
(dp179
g74
g75
ssg63
g173
sg56
(lp180
S'client'
p181
asbag49
(g70
g51
NtRp182
(dp183
g54
(dp184
g81
g82
ssg63
g173
sg56
(lp185
S':'
asbag49
(g70
g51
NtRp186
(dp187
g54
(dp188
sg63
g173
sg56
(lp189
g49
(g50
g51
NtRp190
(dp191
g54
(dp192
g62
I5
ssg63
g186
sg56
(lp193
S'127.0.0.1'
p194
asbasbasbag49
(g65
g51
NtRp195
(dp196
g54
(dp197
sg63
g59
sg56
(lp198
g49
(g70
g51
NtRp199
(dp200
g54
(dp201
g74
g75
ssg63
g195
sg56
(lp202
S'controller'
p203
asbag49
(g70
g51
NtRp204
(dp205
g54
(dp206
g81
g82
ssg63
g195
sg56
(lp207
S':'
asbag49
(g70
g51
NtRp208
(dp209
g54
(dp210
sg63
g195
sg56
(lp211
g49
(g50
g51
NtRp212
(dp213
g54
(dp214
g62
I5
ssg63
g208
sg56
(lp215
S'default'
p216
asbasbasbag49
(g65
g51
NtRp217
(dp218
g54
(dp219
sg63
g59
sg56
(lp220
g49
(g70
g51
NtRp221
(dp222
g54
(dp223
g74
g75
ssg63
g217
sg56
(lp224
S'cookies'
p225
asbag49
(g70
g51
NtRp226
(dp227
g54
(dp228
g81
g82
ssg63
g217
sg56
(lp229
S':'
asbag49
(g70
g51
NtRp230
(dp231
g54
(dp232
sg63
g217
sg56
(lp233
g49
(g50
g51
NtRp234
(dp235
g54
(dp236
g62
I5
ssg63
g230
sg56
(lp237
g49
(g58
g51
NtRp238
(dp239
g54
(dp240
g62
I4
ssg63
Nsg56
(lp241
g49
(g65
g51
NtRp242
(dp243
g54
(dp244
sg63
g238
sg56
(lp245
g49
(g70
g51
NtRp246
(dp247
g54
(dp248
g74
g75
ssg63
g242
sg56
(lp249
S'session_id_admin'
p250
asbag49
(g70
g51
NtRp251
(dp252
g54
(dp253
g81
g82
ssg63
g242
sg56
(lp254
S':'
asbag49
(g70
g51
NtRp255
(dp256
g54
(dp257
sg63
g242
sg56
(lp258
g49
(g50
g51
NtRp259
(dp260
g54
(dp261
g62
I4
ssg63
g255
sg56
(lp262
g49
(g58
g51
NtRp263
(dp264
g54
(dp265
g62
I3
ssg63
Nsg56
(lp266
g49
(g65
g51
NtRp267
(dp268
g54
(dp269
sg63
g263
sg56
(lp270
g49
(g70
g51
NtRp271
(dp272
g54
(dp273
g74
g75
ssg63
g267
sg56
(lp274
S'comment'
p275
asbag49
(g70
g51
NtRp276
(dp277
g54
(dp278
g81
g82
ssg63
g267
sg56
(lp279
S':'
asbag49
(g70
g51
NtRp280
(dp281
g54
(dp282
sg63
g267
sg56
(lp283
g49
(g50
g51
NtRp284
(dp285
g54
(dp286
g62
I3
ssg63
g280
sg56
(lp287
S''
asbasbasbag49
(g65
g51
NtRp288
(dp289
g54
(dp290
sg63
g263
sg56
(lp291
g49
(g70
g51
NtRp292
(dp293
g54
(dp294
g74
g75
ssg63
g288
sg56
(lp295
S'domain'
p296
asbag49
(g70
g51
NtRp297
(dp298
g54
(dp299
g81
g82
ssg63
g288
sg56
(lp300
S':'
asbag49
(g70
g51
NtRp301
(dp302
g54
(dp303
sg63
g288
sg56
(lp304
g49
(g50
g51
NtRp305
(dp306
g54
(dp307
g62
I3
ssg63
g301
sg56
(lp308
S''
asbasbasbag49
(g65
g51
NtRp309
(dp310
g54
(dp311
sg63
g263
sg56
(lp312
g49
(g70
g51
NtRp313
(dp314
g54
(dp315
g74
g75
ssg63
g309
sg56
(lp316
S'expires'
p317
asbag49
(g70
g51
NtRp318
(dp319
g54
(dp320
g81
g82
ssg63
g309
sg56
(lp321
S':'
asbag49
(g70
g51
NtRp322
(dp323
g54
(dp324
sg63
g309
sg56
(lp325
g49
(g50
g51
NtRp326
(dp327
g54
(dp328
g62
I3
ssg63
g322
sg56
(lp329
S''
asbasbasbag49
(g65
g51
NtRp330
(dp331
g54
(dp332
sg63
g263
sg56
(lp333
g49
(g70
g51
NtRp334
(dp335
g54
(dp336
g74
g75
ssg63
g330
sg56
(lp337
S'max-age'
p338
asbag49
(g70
g51
NtRp339
(dp340
g54
(dp341
g81
g82
ssg63
g330
sg56
(lp342
S':'
asbag49
(g70
g51
NtRp343
(dp344
g54
(dp345
sg63
g330
sg56
(lp346
g49
(g50
g51
NtRp347
(dp348
g54
(dp349
g62
I3
ssg63
g343
sg56
(lp350
S''
asbasbasbag49
(g65
g51
NtRp351
(dp352
g54
(dp353
sg63
g263
sg56
(lp354
g49
(g70
g51
NtRp355
(dp356
g54
(dp357
g74
g75
ssg63
g351
sg56
(lp358
S'path'
p359
asbag49
(g70
g51
NtRp360
(dp361
g54
(dp362
g81
g82
ssg63
g351
sg56
(lp363
S':'
asbag49
(g70
g51
NtRp364
(dp365
g54
(dp366
sg63
g351
sg56
(lp367
g49
(g50
g51
NtRp368
(dp369
g54
(dp370
g62
I3
ssg63
g364
sg56
(lp371
S''
asbasbasbag49
(g65
g51
NtRp372
(dp373
g54
(dp374
sg63
g263
sg56
(lp375
g49
(g70
g51
NtRp376
(dp377
g54
(dp378
g74
g75
ssg63
g372
sg56
(lp379
S'secure'
p380
asbag49
(g70
g51
NtRp381
(dp382
g54
(dp383
g81
g82
ssg63
g372
sg56
(lp384
S':'
asbag49
(g70
g51
NtRp385
(dp386
g54
(dp387
sg63
g372
sg56
(lp388
g49
(g50
g51
NtRp389
(dp390
g54
(dp391
g62
I3
ssg63
g385
sg56
(lp392
S''
asbasbasbag49
(g65
g51
NtRp393
(dp394
g54
(dp395
sg63
g263
sg56
(lp396
g49
(g70
g51
NtRp397
(dp398
g54
(dp399
g74
g75
ssg63
g393
sg56
(lp400
S'version'
p401
asbag49
(g70
g51
NtRp402
(dp403
g54
(dp404
g81
g82
ssg63
g393
sg56
(lp405
S':'
asbag49
(g70
g51
NtRp406
(dp407
g54
(dp408
sg63
g393
sg56
(lp409
g49
(g50
g51
NtRp410
(dp411
g54
(dp412
g62
I3
ssg63
g406
sg56
(lp413
S''
asbasbasbasbasbasbasbag49
(g65
g51
NtRp414
(dp415
g54
(dp416
sg63
g238
sg56
(lp417
g49
(g70
g51
NtRp418
(dp419
g54
(dp420
g74
g75
ssg63
g414
sg56
(lp421
S'session_id_sitsit'
p422
asbag49
(g70
g51
NtRp423
(dp424
g54
(dp425
g81
g82
ssg63
g414
sg56
(lp426
S':'
asbag49
(g70
g51
NtRp427
(dp428
g54
(dp429
sg63
g414
sg56
(lp430
g49
(g50
g51
NtRp431
(dp432
g54
(dp433
g62
I4
ssg63
g427
sg56
(lp434
g49
(g58
g51
NtRp435
(dp436
g54
(dp437
g62
I3
ssg63
Nsg56
(lp438
g49
(g65
g51
NtRp439
(dp440
g54
(dp441
sg63
g435
sg56
(lp442
g49
(g70
g51
NtRp443
(dp444
g54
(dp445
g74
g75
ssg63
g439
sg56
(lp446
g275
asbag49
(g70
g51
NtRp447
(dp448
g54
(dp449
g81
g82
ssg63
g439
sg56
(lp450
S':'
asbag49
(g70
g51
NtRp451
(dp452
g54
(dp453
sg63
g439
sg56
(lp454
g49
(g50
g51
NtRp455
(dp456
g54
(dp457
g62
I3
ssg63
g451
sg56
(lp458
S''
asbasbasbag49
(g65
g51
NtRp459
(dp460
g54
(dp461
sg63
g435
sg56
(lp462
g49
(g70
g51
NtRp463
(dp464
g54
(dp465
g74
g75
ssg63
g459
sg56
(lp466
g296
asbag49
(g70
g51
NtRp467
(dp468
g54
(dp469
g81
g82
ssg63
g459
sg56
(lp470
S':'
asbag49
(g70
g51
NtRp471
(dp472
g54
(dp473
sg63
g459
sg56
(lp474
g49
(g50
g51
NtRp475
(dp476
g54
(dp477
g62
I3
ssg63
g471
sg56
(lp478
S''
asbasbasbag49
(g65
g51
NtRp479
(dp480
g54
(dp481
sg63
g435
sg56
(lp482
g49
(g70
g51
NtRp483
(dp484
g54
(dp485
g74
g75
ssg63
g479
sg56
(lp486
g317
asbag49
(g70
g51
NtRp487
(dp488
g54
(dp489
g81
g82
ssg63
g479
sg56
(lp490
S':'
asbag49
(g70
g51
NtRp491
(dp492
g54
(dp493
sg63
g479
sg56
(lp494
g49
(g50
g51
NtRp495
(dp496
g54
(dp497
g62
I3
ssg63
g491
sg56
(lp498
S''
asbasbasbag49
(g65
g51
NtRp499
(dp500
g54
(dp501
sg63
g435
sg56
(lp502
g49
(g70
g51
NtRp503
(dp504
g54
(dp505
g74
g75
ssg63
g499
sg56
(lp506
g338
asbag49
(g70
g51
NtRp507
(dp508
g54
(dp509
g81
g82
ssg63
g499
sg56
(lp510
S':'
asbag49
(g70
g51
NtRp511
(dp512
g54
(dp513
sg63
g499
sg56
(lp514
g49
(g50
g51
NtRp515
(dp516
g54
(dp517
g62
I3
ssg63
g511
sg56
(lp518
S''
asbasbasbag49
(g65
g51
NtRp519
(dp520
g54
(dp521
sg63
g435
sg56
(lp522
g49
(g70
g51
NtRp523
(dp524
g54
(dp525
g74
g75
ssg63
g519
sg56
(lp526
g359
asbag49
(g70
g51
NtRp527
(dp528
g54
(dp529
g81
g82
ssg63
g519
sg56
(lp530
S':'
asbag49
(g70
g51
NtRp531
(dp532
g54
(dp533
sg63
g519
sg56
(lp534
g49
(g50
g51
NtRp535
(dp536
g54
(dp537
g62
I3
ssg63
g531
sg56
(lp538
S''
asbasbasbag49
(g65
g51
NtRp539
(dp540
g54
(dp541
sg63
g435
sg56
(lp542
g49
(g70
g51
NtRp543
(dp544
g54
(dp545
g74
g75
ssg63
g539
sg56
(lp546
g380
asbag49
(g70
g51
NtRp547
(dp548
g54
(dp549
g81
g82
ssg63
g539
sg56
(lp550
S':'
asbag49
(g70
g51
NtRp551
(dp552
g54
(dp553
sg63
g539
sg56
(lp554
g49
(g50
g51
NtRp555
(dp556
g54
(dp557
g62
I3
ssg63
g551
sg56
(lp558
S''
asbasbasbag49
(g65
g51
NtRp559
(dp560
g54
(dp561
sg63
g435
sg56
(lp562
g49
(g70
g51
NtRp563
(dp564
g54
(dp565
g74
g75
ssg63
g559
sg56
(lp566
g401
asbag49
(g70
g51
NtRp567
(dp568
g54
(dp569
g81
g82
ssg63
g559
sg56
(lp570
S':'
asbag49
(g70
g51
NtRp571
(dp572
g54
(dp573
sg63
g559
sg56
(lp574
g49
(g50
g51
NtRp575
(dp576
g54
(dp577
g62
I3
ssg63
g571
sg56
(lp578
S''
asbasbasbasbasbasbasbag49
(g65
g51
NtRp579
(dp580
g54
(dp581
sg63
g238
sg56
(lp582
g49
(g70
g51
NtRp583
(dp584
g54
(dp585
g74
g75
ssg63
g579
sg56
(lp586
S'session_id_welcome'
p587
asbag49
(g70
g51
NtRp588
(dp589
g54
(dp590
g81
g82
ssg63
g579
sg56
(lp591
S':'
asbag49
(g70
g51
NtRp592
(dp593
g54
(dp594
sg63
g579
sg56
(lp595
g49
(g50
g51
NtRp596
(dp597
g54
(dp598
g62
I4
ssg63
g592
sg56
(lp599
g49
(g58
g51
NtRp600
(dp601
g54
(dp602
g62
I3
ssg63
Nsg56
(lp603
g49
(g65
g51
NtRp604
(dp605
g54
(dp606
sg63
g600
sg56
(lp607
g49
(g70
g51
NtRp608
(dp609
g54
(dp610
g74
g75
ssg63
g604
sg56
(lp611
g275
asbag49
(g70
g51
NtRp612
(dp613
g54
(dp614
g81
g82
ssg63
g604
sg56
(lp615
S':'
asbag49
(g70
g51
NtRp616
(dp617
g54
(dp618
sg63
g604
sg56
(lp619
g49
(g50
g51
NtRp620
(dp621
g54
(dp622
g62
I3
ssg63
g616
sg56
(lp623
S''
asbasbasbag49
(g65
g51
NtRp624
(dp625
g54
(dp626
sg63
g600
sg56
(lp627
g49
(g70
g51
NtRp628
(dp629
g54
(dp630
g74
g75
ssg63
g624
sg56
(lp631
g296
asbag49
(g70
g51
NtRp632
(dp633
g54
(dp634
g81
g82
ssg63
g624
sg56
(lp635
S':'
asbag49
(g70
g51
NtRp636
(dp637
g54
(dp638
sg63
g624
sg56
(lp639
g49
(g50
g51
NtRp640
(dp641
g54
(dp642
g62
I3
ssg63
g636
sg56
(lp643
S''
asbasbasbag49
(g65
g51
NtRp644
(dp645
g54
(dp646
sg63
g600
sg56
(lp647
g49
(g70
g51
NtRp648
(dp649
g54
(dp650
g74
g75
ssg63
g644
sg56
(lp651
g317
asbag49
(g70
g51
NtRp652
(dp653
g54
(dp654
g81
g82
ssg63
g644
sg56
(lp655
S':'
asbag49
(g70
g51
NtRp656
(dp657
g54
(dp658
sg63
g644
sg56
(lp659
g49
(g50
g51
NtRp660
(dp661
g54
(dp662
g62
I3
ssg63
g656
sg56
(lp663
S''
asbasbasbag49
(g65
g51
NtRp664
(dp665
g54
(dp666
sg63
g600
sg56
(lp667
g49
(g70
g51
NtRp668
(dp669
g54
(dp670
g74
g75
ssg63
g664
sg56
(lp671
g338
asbag49
(g70
g51
NtRp672
(dp673
g54
(dp674
g81
g82
ssg63
g664
sg56
(lp675
S':'
asbag49
(g70
g51
NtRp676
(dp677
g54
(dp678
sg63
g664
sg56
(lp679
g49
(g50
g51
NtRp680
(dp681
g54
(dp682
g62
I3
ssg63
g676
sg56
(lp683
S''
asbasbasbag49
(g65
g51
NtRp684
(dp685
g54
(dp686
sg63
g600
sg56
(lp687
g49
(g70
g51
NtRp688
(dp689
g54
(dp690
g74
g75
ssg63
g684
sg56
(lp691
g359
asbag49
(g70
g51
NtRp692
(dp693
g54
(dp694
g81
g82
ssg63
g684
sg56
(lp695
S':'
asbag49
(g70
g51
NtRp696
(dp697
g54
(dp698
sg63
g684
sg56
(lp699
g49
(g50
g51
NtRp700
(dp701
g54
(dp702
g62
I3
ssg63
g696
sg56
(lp703
S''
asbasbasbag49
(g65
g51
NtRp704
(dp705
g54
(dp706
sg63
g600
sg56
(lp707
g49
(g70
g51
NtRp708
(dp709
g54
(dp710
g74
g75
ssg63
g704
sg56
(lp711
g380
asbag49
(g70
g51
NtRp712
(dp713
g54
(dp714
g81
g82
ssg63
g704
sg56
(lp715
S':'
asbag49
(g70
g51
NtRp716
(dp717
g54
(dp718
sg63
g704
sg56
(lp719
g49
(g50
g51
NtRp720
(dp721
g54
(dp722
g62
I3
ssg63
g716
sg56
(lp723
S''
asbasbasbag49
(g65
g51
NtRp724
(dp725
g54
(dp726
sg63
g600
sg56
(lp727
g49
(g70
g51
NtRp728
(dp729
g54
(dp730
g74
g75
ssg63
g724
sg56
(lp731
g401
asbag49
(g70
g51
NtRp732
(dp733
g54
(dp734
g81
g82
ssg63
g724
sg56
(lp735
S':'
asbag49
(g70
g51
NtRp736
(dp737
g54
(dp738
sg63
g724
sg56
(lp739
g49
(g50
g51
NtRp740
(dp741
g54
(dp742
g62
I3
ssg63
g736
sg56
(lp743
S''
asbasbasbasbasbasbasbasbasbasbasbag49
(g65
g51
NtRp744
(dp745
g54
(dp746
sg63
g59
sg56
(lp747
g49
(g70
g51
NtRp748
(dp749
g54
(dp750
g74
g75
ssg63
g744
sg56
(lp751
S'env'
p752
asbag49
(g70
g51
NtRp753
(dp754
g54
(dp755
g81
g82
ssg63
g744
sg56
(lp756
S':'
asbag49
(g70
g51
NtRp757
(dp758
g54
(dp759
sg63
g744
sg56
(lp760
g49
(g50
g51
NtRp761
(dp762
g54
(dp763
g62
I5
ssg63
g757
sg56
(lp764
g49
(g58
g51
NtRp765
(dp766
g54
(dp767
g62
I4
ssg63
Nsg56
(lp768
g49
(g65
g51
NtRp769
(dp770
g54
(dp771
sg63
g765
sg56
(lp772
g49
(g70
g51
NtRp773
(dp774
g54
(dp775
g74
g75
ssg63
g769
sg56
(lp776
S'app_folders'
p777
asbag49
(g70
g51
NtRp778
(dp779
g54
(dp780
g81
g82
ssg63
g769
sg56
(lp781
S':'
asbag49
(g70
g51
NtRp782
(dp783
g54
(dp784
sg63
g769
sg56
(lp785
g49
(g50
g51
NtRp786
(dp787
g54
(dp788
g62
I4
ssg63
g782
sg56
(lp789
S"set(['C:\\\\Users\\\\Osku\\\\koodaus\\\\web2py\\\\applications\\\\sitsit\\\\', 'C:\\\\Users\\\\Osku\\\\koodaus\\\\web2py\\\\applications\\\\welcome\\\\', 'C:\\\\Users\\\\Osku\\\\koodaus\\\\web2py\\\\applications\\\\admin\\\\'])"
p790
asbasbasbag49
(g65
g51
NtRp791
(dp792
g54
(dp793
sg63
g765
sg56
(lp794
g49
(g70
g51
NtRp795
(dp796
g54
(dp797
g74
g75
ssg63
g791
sg56
(lp798
S'applications_parent'
p799
asbag49
(g70
g51
NtRp800
(dp801
g54
(dp802
g81
g82
ssg63
g791
sg56
(lp803
S':'
asbag49
(g70
g51
NtRp804
(dp805
g54
(dp806
sg63
g791
sg56
(lp807
g49
(g50
g51
NtRp808
(dp809
g54
(dp810
g62
I4
ssg63
g804
sg56
(lp811
S'C:\\Users\\Osku\\koodaus\\web2py'
p812
asbasbasbag49
(g65
g51
NtRp813
(dp814
g54
(dp815
sg63
g765
sg56
(lp816
g49
(g70
g51
NtRp817
(dp818
g54
(dp819
g74
g75
ssg63
g813
sg56
(lp820
S'cmd_args'
p821
asbag49
(g70
g51
NtRp822
(dp823
g54
(dp824
g81
g82
ssg63
g813
sg56
(lp825
S':'
asbag49
(g70
g51
NtRp826
(dp827
g54
(dp828
sg63
g813
sg56
(lp829
g49
(g50
g51
NtRp830
(dp831
g54
(dp832
g62
I4
ssg63
g826
sg56
(lp833
g49
(g58
g51
NtRp834
(dp835
g54
(dp836
g62
I3
ssg63
Nsg56
(lp837
sbasbasbasbag49
(g65
g51
NtRp838
(dp839
g54
(dp840
sg63
g765
sg56
(lp841
g49
(g70
g51
NtRp842
(dp843
g54
(dp844
g74
g75
ssg63
g838
sg56
(lp845
S'cmd_options'
p846
asbag49
(g70
g51
NtRp847
(dp848
g54
(dp849
g81
g82
ssg63
g838
sg56
(lp850
S':'
asbag49
(g70
g51
NtRp851
(dp852
g54
(dp853
sg63
g838
sg56
(lp854
g49
(g50
g51
NtRp855
(dp856
g54
(dp857
g62
I4
ssg63
g851
sg56
(lp858
S"<Values at 0x2270030: {'verbose': False, 'ip': '127.0.0.1', 'shutdown_timeout': 5, 'taskbar': False, 'nocron': False, 'pid_filename': 'httpserver.pid', 'maxthreads': None, 'softcron': False, 'server_name': 'Osku-Kannettava', 'bpython': False, 'nogui': False, 'port': 8000, 'extcron': False, 'debuglevel': 30, 'test': None, 'folder': 'C:\\\\Users\\\\Osku\\\\koodaus\\\\web2py', 'config': '', 'import_models': False, 'winservice': '', 'shell': None, 'run': '', 'log_filename': 'httpserver.log', 'args': [''], 'socket_timeout': 5, 'ssl_ca_certificate': None, 'scheduler': None, 'profiler_filename': None, 'ssl_private_key': '', 'password': '<ask>', 'request_queue_size': 5, 'ssl_certificate': '', 'cronjob': False, 'numthreads': None, 'quiet': False, 'interfaces': None, 'minthreads': None, 'timeout': 10, 'plain': False, 'nobanner': False}>"
p859
asbasbasbag49
(g65
g51
NtRp860
(dp861
g54
(dp862
sg63
g765
sg56
(lp863
g49
(g70
g51
NtRp864
(dp865
g54
(dp866
g74
g75
ssg63
g860
sg56
(lp867
S'db_sessions'
p868
asbag49
(g70
g51
NtRp869
(dp870
g54
(dp871
g81
g82
ssg63
g860
sg56
(lp872
S':'
asbag49
(g70
g51
NtRp873
(dp874
g54
(dp875
sg63
g860
sg56
(lp876
g49
(g50
g51
NtRp877
(dp878
g54
(dp879
g62
I4
ssg63
g873
sg56
(lp880
S'set([])'
p881
asbasbasbag49
(g65
g51
NtRp882
(dp883
g54
(dp884
sg63
g765
sg56
(lp885
g49
(g70
g51
NtRp886
(dp887
g54
(dp888
g74
g75
ssg63
g882
sg56
(lp889
S'debugging'
p890
asbag49
(g70
g51
NtRp891
(dp892
g54
(dp893
g81
g82
ssg63
g882
sg56
(lp894
S':'
asbag49
(g70
g51
NtRp895
(dp896
g54
(dp897
sg63
g882
sg56
(lp898
g49
(g50
g51
NtRp899
(dp900
g54
(dp901
g62
I4
ssg63
g895
sg56
(lp902
g92
asbasbasbag49
(g65
g51
NtRp903
(dp904
g54
(dp905
sg63
g765
sg56
(lp906
g49
(g70
g51
NtRp907
(dp908
g54
(dp909
g74
g75
ssg63
g903
sg56
(lp910
S'gluon_parent'
p911
asbag49
(g70
g51
NtRp912
(dp913
g54
(dp914
g81
g82
ssg63
g903
sg56
(lp915
S':'
asbag49
(g70
g51
NtRp916
(dp917
g54
(dp918
sg63
g903
sg56
(lp919
g49
(g50
g51
NtRp920
(dp921
g54
(dp922
g62
I4
ssg63
g916
sg56
(lp923
S'C:\\Users\\Osku\\koodaus\\web2py'
p924
asbasbasbag49
(g65
g51
NtRp925
(dp926
g54
(dp927
sg63
g765
sg56
(lp928
g49
(g70
g51
NtRp929
(dp930
g54
(dp931
g74
g75
ssg63
g925
sg56
(lp932
S'http_accept'
p933
asbag49
(g70
g51
NtRp934
(dp935
g54
(dp936
g81
g82
ssg63
g925
sg56
(lp937
S':'
asbag49
(g70
g51
NtRp938
(dp939
g54
(dp940
sg63
g925
sg56
(lp941
g49
(g50
g51
NtRp942
(dp943
g54
(dp944
g62
I4
ssg63
g938
sg56
(lp945
S'text/html,application/xhtml+xml,application/xml;q=0.9,*/*;q=0.8'
p946
asbasbasbag49
(g65
g51
NtRp947
(dp948
g54
(dp949
sg63
g765
sg56
(lp950
g49
(g70
g51
NtRp951
(dp952
g54
(dp953
g74
g75
ssg63
g947
sg56
(lp954
S'http_accept_charset'
p955
asbag49
(g70
g51
NtRp956
(dp957
g54
(dp958
g81
g82
ssg63
g947
sg56
(lp959
S':'
asbag49
(g70
g51
NtRp960
(dp961
g54
(dp962
sg63
g947
sg56
(lp963
g49
(g50
g51
NtRp964
(dp965
g54
(dp966
g62
I4
ssg63
g960
sg56
(lp967
S'ISO-8859-1,utf-8;q=0.7,*;q=0.3'
p968
asbasbasbag49
(g65
g51
NtRp969
(dp970
g54
(dp971
sg63
g765
sg56
(lp972
g49
(g70
g51
NtRp973
(dp974
g54
(dp975
g74
g75
ssg63
g969
sg56
(lp976
S'http_accept_encoding'
p977
asbag49
(g70
g51
NtRp978
(dp979
g54
(dp980
g81
g82
ssg63
g969
sg56
(lp981
S':'
asbag49
(g70
g51
NtRp982
(dp983
g54
(dp984
sg63
g969
sg56
(lp985
g49
(g50
g51
NtRp986
(dp987
g54
(dp988
g62
I4
ssg63
g982
sg56
(lp989
S'gzip,deflate,sdch'
p990
asbasbasbag49
(g65
g51
NtRp991
(dp992
g54
(dp993
sg63
g765
sg56
(lp994
g49
(g70
g51
NtRp995
(dp996
g54
(dp997
g74
g75
ssg63
g991
sg56
(lp998
S'http_accept_language'
p999
asbag49
(g70
g51
NtRp1000
(dp1001
g54
(dp1002
g81
g82
ssg63
g991
sg56
(lp1003
S':'
asbag49
(g70
g51
NtRp1004
(dp1005
g54
(dp1006
sg63
g991
sg56
(lp1007
g49
(g50
g51
NtRp1008
(dp1009
g54
(dp1010
g62
I4
ssg63
g1004
sg56
(lp1011
S'en-GB,en-US;q=0.8,en;q=0.6,fi;q=0.4'
p1012
asbasbasbag49
(g65
g51
NtRp1013
(dp1014
g54
(dp1015
sg63
g765
sg56
(lp1016
g49
(g70
g51
NtRp1017
(dp1018
g54
(dp1019
g74
g75
ssg63
g1013
sg56
(lp1020
S'http_cache_control'
p1021
asbag49
(g70
g51
NtRp1022
(dp1023
g54
(dp1024
g81
g82
ssg63
g1013
sg56
(lp1025
S':'
asbag49
(g70
g51
NtRp1026
(dp1027
g54
(dp1028
sg63
g1013
sg56
(lp1029
g49
(g50
g51
NtRp1030
(dp1031
g54
(dp1032
g62
I4
ssg63
g1026
sg56
(lp1033
S'max-age=0'
p1034
asbasbasbag49
(g65
g51
NtRp1035
(dp1036
g54
(dp1037
sg63
g765
sg56
(lp1038
g49
(g70
g51
NtRp1039
(dp1040
g54
(dp1041
g74
g75
ssg63
g1035
sg56
(lp1042
S'http_connection'
p1043
asbag49
(g70
g51
NtRp1044
(dp1045
g54
(dp1046
g81
g82
ssg63
g1035
sg56
(lp1047
S':'
asbag49
(g70
g51
NtRp1048
(dp1049
g54
(dp1050
sg63
g1035
sg56
(lp1051
g49
(g50
g51
NtRp1052
(dp1053
g54
(dp1054
g62
I4
ssg63
g1048
sg56
(lp1055
S'keep-alive'
p1056
asbasbasbag49
(g65
g51
NtRp1057
(dp1058
g54
(dp1059
sg63
g765
sg56
(lp1060
g49
(g70
g51
NtRp1061
(dp1062
g54
(dp1063
g74
g75
ssg63
g1057
sg56
(lp1064
S'http_cookie'
p1065
asbag49
(g70
g51
NtRp1066
(dp1067
g54
(dp1068
g81
g82
ssg63
g1057
sg56
(lp1069
S':'
asbag49
(g70
g51
NtRp1070
(dp1071
g54
(dp1072
sg63
g1057
sg56
(lp1073
g49
(g50
g51
NtRp1074
(dp1075
g54
(dp1076
g62
I4
ssg63
g1070
sg56
(lp1077
S'session_id_welcome=127.0.0.1-731960a1-ea7c-4af8-ac49-7798aa234dcd; session_id_admin=127.0.0.1-941ea7a4-a42e-46de-bdfb-3dd29fbb7e62; session_id_sitsit=127.0.0.1-ec2284ba-32fe-4a19-9a6f-e97c370381b5'
p1078
asbasbasbag49
(g65
g51
NtRp1079
(dp1080
g54
(dp1081
sg63
g765
sg56
(lp1082
g49
(g70
g51
NtRp1083
(dp1084
g54
(dp1085
g74
g75
ssg63
g1079
sg56
(lp1086
S'http_host'
p1087
asbag49
(g70
g51
NtRp1088
(dp1089
g54
(dp1090
g81
g82
ssg63
g1079
sg56
(lp1091
S':'
asbag49
(g70
g51
NtRp1092
(dp1093
g54
(dp1094
sg63
g1079
sg56
(lp1095
g49
(g50
g51
NtRp1096
(dp1097
g54
(dp1098
g62
I4
ssg63
g1092
sg56
(lp1099
S'127.0.0.1:8000'
p1100
asbasbasbag49
(g65
g51
NtRp1101
(dp1102
g54
(dp1103
sg63
g765
sg56
(lp1104
g49
(g70
g51
NtRp1105
(dp1106
g54
(dp1107
g74
g75
ssg63
g1101
sg56
(lp1108
S'http_referer'
p1109
asbag49
(g70
g51
NtRp1110
(dp1111
g54
(dp1112
g81
g82
ssg63
g1101
sg56
(lp1113
S':'
asbag49
(g70
g51
NtRp1114
(dp1115
g54
(dp1116
sg63
g1101
sg56
(lp1117
g49
(g50
g51
NtRp1118
(dp1119
g54
(dp1120
g62
I4
ssg63
g1114
sg56
(lp1121
S'http://127.0.0.1:8000/sitsit/default/sitsit'
p1122
asbasbasbag49
(g65
g51
NtRp1123
(dp1124
g54
(dp1125
sg63
g765
sg56
(lp1126
g49
(g70
g51
NtRp1127
(dp1128
g54
(dp1129
g74
g75
ssg63
g1123
sg56
(lp1130
S'http_user_agent'
p1131
asbag49
(g70
g51
NtRp1132
(dp1133
g54
(dp1134
g81
g82
ssg63
g1123
sg56
(lp1135
S':'
asbag49
(g70
g51
NtRp1136
(dp1137
g54
(dp1138
sg63
g1123
sg56
(lp1139
g49
(g50
g51
NtRp1140
(dp1141
g54
(dp1142
g62
I4
ssg63
g1136
sg56
(lp1143
S'Mozilla/5.0 (Windows NT 6.1) AppleWebKit/536.11 (KHTML, like Gecko) Chrome/20.0.1132.47 Safari/536.11'
p1144
asbasbasbag49
(g65
g51
NtRp1145
(dp1146
g54
(dp1147
sg63
g765
sg56
(lp1148
g49
(g70
g51
NtRp1149
(dp1150
g54
(dp1151
g74
g75
ssg63
g1145
sg56
(lp1152
S'is_jython'
p1153
asbag49
(g70
g51
NtRp1154
(dp1155
g54
(dp1156
g81
g82
ssg63
g1145
sg56
(lp1157
S':'
asbag49
(g70
g51
NtRp1158
(dp1159
g54
(dp1160
sg63
g1145
sg56
(lp1161
g49
(g50
g51
NtRp1162
(dp1163
g54
(dp1164
g62
I4
ssg63
g1158
sg56
(lp1165
g92
asbasbasbag49
(g65
g51
NtRp1166
(dp1167
g54
(dp1168
sg63
g765
sg56
(lp1169
g49
(g70
g51
NtRp1170
(dp1171
g54
(dp1172
g74
g75
ssg63
g1166
sg56
(lp1173
S'is_pypy'
p1174
asbag49
(g70
g51
NtRp1175
(dp1176
g54
(dp1177
g81
g82
ssg63
g1166
sg56
(lp1178
S':'
asbag49
(g70
g51
NtRp1179
(dp1180
g54
(dp1181
sg63
g1166
sg56
(lp1182
g49
(g50
g51
NtRp1183
(dp1184
g54
(dp1185
g62
I4
ssg63
g1179
sg56
(lp1186
g92
asbasbasbag49
(g65
g51
NtRp1187
(dp1188
g54
(dp1189
sg63
g765
sg56
(lp1190
g49
(g70
g51
NtRp1191
(dp1192
g54
(dp1193
g74
g75
ssg63
g1187
sg56
(lp1194
S'path_info'
p1195
asbag49
(g70
g51
NtRp1196
(dp1197
g54
(dp1198
g81
g82
ssg63
g1187
sg56
(lp1199
S':'
asbag49
(g70
g51
NtRp1200
(dp1201
g54
(dp1202
sg63
g1187
sg56
(lp1203
g49
(g50
g51
NtRp1204
(dp1205
g54
(dp1206
g62
I4
ssg63
g1200
sg56
(lp1207
S'/sitsit/default/sitsit/1'
p1208
asbasbasbag49
(g65
g51
NtRp1209
(dp1210
g54
(dp1211
sg63
g765
sg56
(lp1212
g49
(g70
g51
NtRp1213
(dp1214
g54
(dp1215
g74
g75
ssg63
g1209
sg56
(lp1216
S'query_string'
p1217
asbag49
(g70
g51
NtRp1218
(dp1219
g54
(dp1220
g81
g82
ssg63
g1209
sg56
(lp1221
S':'
asbag49
(g70
g51
NtRp1222
(dp1223
g54
(dp1224
sg63
g1209
sg56
(lp1225
g49
(g50
g51
NtRp1226
(dp1227
g54
(dp1228
g62
I4
ssg63
g1222
sg56
(lp1229
S''
asbasbasbag49
(g65
g51
NtRp1230
(dp1231
g54
(dp1232
sg63
g765
sg56
(lp1233
g49
(g70
g51
NtRp1234
(dp1235
g54
(dp1236
g74
g75
ssg63
g1230
sg56
(lp1237
S'remote_addr'
p1238
asbag49
(g70
g51
NtRp1239
(dp1240
g54
(dp1241
g81
g82
ssg63
g1230
sg56
(lp1242
S':'
asbag49
(g70
g51
NtRp1243
(dp1244
g54
(dp1245
sg63
g1230
sg56
(lp1246
g49
(g50
g51
NtRp1247
(dp1248
g54
(dp1249
g62
I4
ssg63
g1243
sg56
(lp1250
g194
asbasbasbag49
(g65
g51
NtRp1251
(dp1252
g54
(dp1253
sg63
g765
sg56
(lp1254
g49
(g70
g51
NtRp1255
(dp1256
g54
(dp1257
g74
g75
ssg63
g1251
sg56
(lp1258
S'remote_port'
p1259
asbag49
(g70
g51
NtRp1260
(dp1261
g54
(dp1262
g81
g82
ssg63
g1251
sg56
(lp1263
S':'
asbag49
(g70
g51
NtRp1264
(dp1265
g54
(dp1266
sg63
g1251
sg56
(lp1267
g49
(g50
g51
NtRp1268
(dp1269
g54
(dp1270
g62
I4
ssg63
g1264
sg56
(lp1271
S'57818'
p1272
asbasbasbag49
(g65
g51
NtRp1273
(dp1274
g54
(dp1275
sg63
g765
sg56
(lp1276
g49
(g70
g51
NtRp1277
(dp1278
g54
(dp1279
g74
g75
ssg63
g1273
sg56
(lp1280
S'request_method'
p1281
asbag49
(g70
g51
NtRp1282
(dp1283
g54
(dp1284
g81
g82
ssg63
g1273
sg56
(lp1285
S':'
asbag49
(g70
g51
NtRp1286
(dp1287
g54
(dp1288
sg63
g1273
sg56
(lp1289
g49
(g50
g51
NtRp1290
(dp1291
g54
(dp1292
g62
I4
ssg63
g1286
sg56
(lp1293
S'GET'
p1294
asbasbasbag49
(g65
g51
NtRp1295
(dp1296
g54
(dp1297
sg63
g765
sg56
(lp1298
g49
(g70
g51
NtRp1299
(dp1300
g54
(dp1301
g74
g75
ssg63
g1295
sg56
(lp1302
S'script_name'
p1303
asbag49
(g70
g51
NtRp1304
(dp1305
g54
(dp1306
g81
g82
ssg63
g1295
sg56
(lp1307
S':'
asbag49
(g70
g51
NtRp1308
(dp1309
g54
(dp1310
sg63
g1295
sg56
(lp1311
g49
(g50
g51
NtRp1312
(dp1313
g54
(dp1314
g62
I4
ssg63
g1308
sg56
(lp1315
S''
asbasbasbag49
(g65
g51
NtRp1316
(dp1317
g54
(dp1318
sg63
g765
sg56
(lp1319
g49
(g70
g51
NtRp1320
(dp1321
g54
(dp1322
g74
g75
ssg63
g1316
sg56
(lp1323
S'server_name'
p1324
asbag49
(g70
g51
NtRp1325
(dp1326
g54
(dp1327
g81
g82
ssg63
g1316
sg56
(lp1328
S':'
asbag49
(g70
g51
NtRp1329
(dp1330
g54
(dp1331
sg63
g1316
sg56
(lp1332
g49
(g50
g51
NtRp1333
(dp1334
g54
(dp1335
g62
I4
ssg63
g1329
sg56
(lp1336
S'Osku-Kannettava'
p1337
asbasbasbag49
(g65
g51
NtRp1338
(dp1339
g54
(dp1340
sg63
g765
sg56
(lp1341
g49
(g70
g51
NtRp1342
(dp1343
g54
(dp1344
g74
g75
ssg63
g1338
sg56
(lp1345
S'server_port'
p1346
asbag49
(g70
g51
NtRp1347
(dp1348
g54
(dp1349
g81
g82
ssg63
g1338
sg56
(lp1350
S':'
asbag49
(g70
g51
NtRp1351
(dp1352
g54
(dp1353
sg63
g1338
sg56
(lp1354
g49
(g50
g51
NtRp1355
(dp1356
g54
(dp1357
g62
I4
ssg63
g1351
sg56
(lp1358
S'8000'
p1359
asbasbasbag49
(g65
g51
NtRp1360
(dp1361
g54
(dp1362
sg63
g765
sg56
(lp1363
g49
(g70
g51
NtRp1364
(dp1365
g54
(dp1366
g74
g75
ssg63
g1360
sg56
(lp1367
S'server_protocol'
p1368
asbag49
(g70
g51
NtRp1369
(dp1370
g54
(dp1371
g81
g82
ssg63
g1360
sg56
(lp1372
S':'
asbag49
(g70
g51
NtRp1373
(dp1374
g54
(dp1375
sg63
g1360
sg56
(lp1376
g49
(g50
g51
NtRp1377
(dp1378
g54
(dp1379
g62
I4
ssg63
g1373
sg56
(lp1380
S'HTTP/1.1'
p1381
asbasbasbag49
(g65
g51
NtRp1382
(dp1383
g54
(dp1384
sg63
g765
sg56
(lp1385
g49
(g70
g51
NtRp1386
(dp1387
g54
(dp1388
g74
g75
ssg63
g1382
sg56
(lp1389
S'server_software'
p1390
asbag49
(g70
g51
NtRp1391
(dp1392
g54
(dp1393
g81
g82
ssg63
g1382
sg56
(lp1394
S':'
asbag49
(g70
g51
NtRp1395
(dp1396
g54
(dp1397
sg63
g1382
sg56
(lp1398
g49
(g50
g51
NtRp1399
(dp1400
g54
(dp1401
g62
I4
ssg63
g1395
sg56
(lp1402
S'Rocket 1.2.4'
p1403
asbasbasbag49
(g65
g51
NtRp1404
(dp1405
g54
(dp1406
sg63
g765
sg56
(lp1407
g49
(g70
g51
NtRp1408
(dp1409
g54
(dp1410
g74
g75
ssg63
g1404
sg56
(lp1411
S'web2py_crontype'
p1412
asbag49
(g70
g51
NtRp1413
(dp1414
g54
(dp1415
g81
g82
ssg63
g1404
sg56
(lp1416
S':'
asbag49
(g70
g51
NtRp1417
(dp1418
g54
(dp1419
sg63
g1404
sg56
(lp1420
g49
(g50
g51
NtRp1421
(dp1422
g54
(dp1423
g62
I4
ssg63
g1417
sg56
(lp1424
S'hard'
p1425
asbasbasbag49
(g65
g51
NtRp1426
(dp1427
g54
(dp1428
sg63
g765
sg56
(lp1429
g49
(g70
g51
NtRp1430
(dp1431
g54
(dp1432
g74
g75
ssg63
g1426
sg56
(lp1433
S'web2py_path'
p1434
asbag49
(g70
g51
NtRp1435
(dp1436
g54
(dp1437
g81
g82
ssg63
g1426
sg56
(lp1438
S':'
asbag49
(g70
g51
NtRp1439
(dp1440
g54
(dp1441
sg63
g1426
sg56
(lp1442
g49
(g50
g51
NtRp1443
(dp1444
g54
(dp1445
g62
I4
ssg63
g1439
sg56
(lp1446
g812
asbasbasbag49
(g65
g51
NtRp1447
(dp1448
g54
(dp1449
sg63
g765
sg56
(lp1450
g49
(g70
g51
NtRp1451
(dp1452
g54
(dp1453
g74
g75
ssg63
g1447
sg56
(lp1454
S'web2py_version'
p1455
asbag49
(g70
g51
NtRp1456
(dp1457
g54
(dp1458
g81
g82
ssg63
g1447
sg56
(lp1459
S':'
asbag49
(g70
g51
NtRp1460
(dp1461
g54
(dp1462
sg63
g1447
sg56
(lp1463
g49
(g50
g51
NtRp1464
(dp1465
g54
(dp1466
g62
I4
ssg63
g1460
sg56
(lp1467
g49
(g58
g51
NtRp1468
(dp1469
g54
(dp1470
g62
I3
ssg63
Nsg56
(lp1471
g49
(g65
g51
NtRp1472
(dp1473
g54
(dp1474
sg63
g1468
sg56
(lp1475
g49
(g70
g51
NtRp1476
(dp1477
g54
(dp1478
sg63
g1472
sg56
(lp1479
g49
(g50
g51
NtRp1480
(dp1481
g54
(dp1482
g62
I3
ssg63
g1476
sg56
(lp1483
S'1'
asbasbasbag49
(g65
g51
NtRp1484
(dp1485
g54
(dp1486
sg63
g1468
sg56
(lp1487
g49
(g70
g51
NtRp1488
(dp1489
g54
(dp1490
sg63
g1484
sg56
(lp1491
g49
(g50
g51
NtRp1492
(dp1493
g54
(dp1494
g62
I3
ssg63
g1488
sg56
(lp1495
S'99'
p1496
asbasbasbag49
(g65
g51
NtRp1497
(dp1498
g54
(dp1499
sg63
g1468
sg56
(lp1500
g49
(g70
g51
NtRp1501
(dp1502
g54
(dp1503
sg63
g1497
sg56
(lp1504
g49
(g50
g51
NtRp1505
(dp1506
g54
(dp1507
g62
I3
ssg63
g1501
sg56
(lp1508
S'7'
asbasbasbag49
(g65
g51
NtRp1509
(dp1510
g54
(dp1511
sg63
g1468
sg56
(lp1512
g49
(g70
g51
NtRp1513
(dp1514
g54
(dp1515
sg63
g1509
sg56
(lp1516
g49
(g50
g51
NtRp1517
(dp1518
g54
(dp1519
g62
I3
ssg63
g1513
sg56
(lp1520
S'datetime.datetime(2012, 3, 4, 22, 12, 8)'
p1521
asbasbasbag49
(g65
g51
NtRp1522
(dp1523
g54
(dp1524
sg63
g1468
sg56
(lp1525
g49
(g70
g51
NtRp1526
(dp1527
g54
(dp1528
sg63
g1522
sg56
(lp1529
g49
(g50
g51
NtRp1530
(dp1531
g54
(dp1532
g62
I3
ssg63
g1526
sg56
(lp1533
S'stable'
p1534
asbasbasbasbasbasbasbag49
(g65
g51
NtRp1535
(dp1536
g54
(dp1537
sg63
g765
sg56
(lp1538
g49
(g70
g51
NtRp1539
(dp1540
g54
(dp1541
g74
g75
ssg63
g1535
sg56
(lp1542
S'wsgi_errors'
p1543
asbag49
(g70
g51
NtRp1544
(dp1545
g54
(dp1546
g81
g82
ssg63
g1535
sg56
(lp1547
S':'
asbag49
(g70
g51
NtRp1548
(dp1549
g54
(dp1550
sg63
g1535
sg56
(lp1551
g49
(g50
g51
NtRp1552
(dp1553
g54
(dp1554
g62
I4
ssg63
g1548
sg56
(lp1555
S"<open file '<stderr>', mode 'w' at 0x014F00B0>"
p1556
asbasbasbag49
(g65
g51
NtRp1557
(dp1558
g54
(dp1559
sg63
g765
sg56
(lp1560
g49
(g70
g51
NtRp1561
(dp1562
g54
(dp1563
g74
g75
ssg63
g1557
sg56
(lp1564
S'wsgi_file_wrapper'
p1565
asbag49
(g70
g51
NtRp1566
(dp1567
g54
(dp1568
g81
g82
ssg63
g1557
sg56
(lp1569
S':'
asbag49
(g70
g51
NtRp1570
(dp1571
g54
(dp1572
sg63
g1557
sg56
(lp1573
g49
(g50
g51
NtRp1574
(dp1575
g54
(dp1576
g62
I4
ssg63
g1570
sg56
(lp1577
S'<class wsgiref.util.FileWrapper at 0x020041E0>'
p1578
asbasbasbag49
(g65
g51
NtRp1579
(dp1580
g54
(dp1581
sg63
g765
sg56
(lp1582
g49
(g70
g51
NtRp1583
(dp1584
g54
(dp1585
g74
g75
ssg63
g1579
sg56
(lp1586
S'wsgi_input'
p1587
asbag49
(g70
g51
NtRp1588
(dp1589
g54
(dp1590
g81
g82
ssg63
g1579
sg56
(lp1591
S':'
asbag49
(g70
g51
NtRp1592
(dp1593
g54
(dp1594
sg63
g1579
sg56
(lp1595
g49
(g50
g51
NtRp1596
(dp1597
g54
(dp1598
g62
I4
ssg63
g1592
sg56
(lp1599
S'<socket._fileobject object at 0x04E03130>'
p1600
asbasbasbag49
(g65
g51
NtRp1601
(dp1602
g54
(dp1603
sg63
g765
sg56
(lp1604
g49
(g70
g51
NtRp1605
(dp1606
g54
(dp1607
g74
g75
ssg63
g1601
sg56
(lp1608
S'wsgi_multiprocess'
p1609
asbag49
(g70
g51
NtRp1610
(dp1611
g54
(dp1612
g81
g82
ssg63
g1601
sg56
(lp1613
S':'
asbag49
(g70
g51
NtRp1614
(dp1615
g54
(dp1616
sg63
g1601
sg56
(lp1617
g49
(g50
g51
NtRp1618
(dp1619
g54
(dp1620
g62
I4
ssg63
g1614
sg56
(lp1621
g92
asbasbasbag49
(g65
g51
NtRp1622
(dp1623
g54
(dp1624
sg63
g765
sg56
(lp1625
g49
(g70
g51
NtRp1626
(dp1627
g54
(dp1628
g74
g75
ssg63
g1622
sg56
(lp1629
S'wsgi_multithread'
p1630
asbag49
(g70
g51
NtRp1631
(dp1632
g54
(dp1633
g81
g82
ssg63
g1622
sg56
(lp1634
S':'
asbag49
(g70
g51
NtRp1635
(dp1636
g54
(dp1637
sg63
g1622
sg56
(lp1638
g49
(g50
g51
NtRp1639
(dp1640
g54
(dp1641
g62
I4
ssg63
g1635
sg56
(lp1642
S'True'
p1643
asbasbasbag49
(g65
g51
NtRp1644
(dp1645
g54
(dp1646
sg63
g765
sg56
(lp1647
g49
(g70
g51
NtRp1648
(dp1649
g54
(dp1650
g74
g75
ssg63
g1644
sg56
(lp1651
S'wsgi_run_once'
p1652
asbag49
(g70
g51
NtRp1653
(dp1654
g54
(dp1655
g81
g82
ssg63
g1644
sg56
(lp1656
S':'
asbag49
(g70
g51
NtRp1657
(dp1658
g54
(dp1659
sg63
g1644
sg56
(lp1660
g49
(g50
g51
NtRp1661
(dp1662
g54
(dp1663
g62
I4
ssg63
g1657
sg56
(lp1664
g92
asbasbasbag49
(g65
g51
NtRp1665
(dp1666
g54
(dp1667
sg63
g765
sg56
(lp1668
g49
(g70
g51
NtRp1669
(dp1670
g54
(dp1671
g74
g75
ssg63
g1665
sg56
(lp1672
S'wsgi_url_scheme'
p1673
asbag49
(g70
g51
NtRp1674
(dp1675
g54
(dp1676
g81
g82
ssg63
g1665
sg56
(lp1677
S':'
asbag49
(g70
g51
NtRp1678
(dp1679
g54
(dp1680
sg63
g1665
sg56
(lp1681
g49
(g50
g51
NtRp1682
(dp1683
g54
(dp1684
g62
I4
ssg63
g1678
sg56
(lp1685
S'http'
p1686
asbasbasbag49
(g65
g51
NtRp1687
(dp1688
g54
(dp1689
sg63
g765
sg56
(lp1690
g49
(g70
g51
NtRp1691
(dp1692
g54
(dp1693
g74
g75
ssg63
g1687
sg56
(lp1694
S'wsgi_version'
p1695
asbag49
(g70
g51
NtRp1696
(dp1697
g54
(dp1698
g81
g82
ssg63
g1687
sg56
(lp1699
S':'
asbag49
(g70
g51
NtRp1700
(dp1701
g54
(dp1702
sg63
g1687
sg56
(lp1703
g49
(g50
g51
NtRp1704
(dp1705
g54
(dp1706
g62
I4
ssg63
g1700
sg56
(lp1707
g49
(g58
g51
NtRp1708
(dp1709
g54
(dp1710
g62
I3
ssg63
Nsg56
(lp1711
g49
(g65
g51
NtRp1712
(dp1713
g54
(dp1714
sg63
g1708
sg56
(lp1715
g49
(g70
g51
NtRp1716
(dp1717
g54
(dp1718
sg63
g1712
sg56
(lp1719
g49
(g50
g51
NtRp1720
(dp1721
g54
(dp1722
g62
I3
ssg63
g1716
sg56
(lp1723
S'1'
asbasbasbag49
(g65
g51
NtRp1724
(dp1725
g54
(dp1726
sg63
g1708
sg56
(lp1727
g49
(g70
g51
NtRp1728
(dp1729
g54
(dp1730
sg63
g1724
sg56
(lp1731
g49
(g50
g51
NtRp1732
(dp1733
g54
(dp1734
g62
I3
ssg63
g1728
sg56
(lp1735
S'0'
asbasbasbasbasbasbasbasbasbasbasbag49
(g65
g51
NtRp1736
(dp1737
g54
(dp1738
sg63
g59
sg56
(lp1739
g49
(g70
g51
NtRp1740
(dp1741
g54
(dp1742
g74
g75
ssg63
g1736
sg56
(lp1743
S'extension'
p1744
asbag49
(g70
g51
NtRp1745
(dp1746
g54
(dp1747
g81
g82
ssg63
g1736
sg56
(lp1748
S':'
asbag49
(g70
g51
NtRp1749
(dp1750
g54
(dp1751
sg63
g1736
sg56
(lp1752
g49
(g50
g51
NtRp1753
(dp1754
g54
(dp1755
g62
I5
ssg63
g1749
sg56
(lp1756
S'html'
p1757
asbasbasbag49
(g65
g51
NtRp1758
(dp1759
g54
(dp1760
sg63
g59
sg56
(lp1761
g49
(g70
g51
NtRp1762
(dp1763
g54
(dp1764
g74
g75
ssg63
g1758
sg56
(lp1765
S'folder'
p1766
asbag49
(g70
g51
NtRp1767
(dp1768
g54
(dp1769
g81
g82
ssg63
g1758
sg56
(lp1770
S':'
asbag49
(g70
g51
NtRp1771
(dp1772
g54
(dp1773
sg63
g1758
sg56
(lp1774
g49
(g50
g51
NtRp1775
(dp1776
g54
(dp1777
g62
I5
ssg63
g1771
sg56
(lp1778
S'C:\\Users\\Osku\\koodaus\\web2py\\applications\\sitsit\\'
p1779
asbasbasbag49
(g65
g51
NtRp1780
(dp1781
g54
(dp1782
sg63
g59
sg56
(lp1783
g49
(g70
g51
NtRp1784
(dp1785
g54
(dp1786
g74
g75
ssg63
g1780
sg56
(lp1787
S'function'
p1788
asbag49
(g70
g51
NtRp1789
(dp1790
g54
(dp1791
g81
g82
ssg63
g1780
sg56
(lp1792
S':'
asbag49
(g70
g51
NtRp1793
(dp1794
g54
(dp1795
sg63
g1780
sg56
(lp1796
g49
(g50
g51
NtRp1797
(dp1798
g54
(dp1799
g62
I5
ssg63
g1793
sg56
(lp1800
S'sitsit'
p1801
asbasbasbag49
(g65
g51
NtRp1802
(dp1803
g54
(dp1804
sg63
g59
sg56
(lp1805
g49
(g70
g51
NtRp1806
(dp1807
g54
(dp1808
g74
g75
ssg63
g1802
sg56
(lp1809
S'get_vars'
p1810
asbag49
(g70
g51
NtRp1811
(dp1812
g54
(dp1813
g81
g82
ssg63
g1802
sg56
(lp1814
S':'
asbag49
(g70
g51
NtRp1815
(dp1816
g54
(dp1817
sg63
g1802
sg56
(lp1818
g49
(g50
g51
NtRp1819
(dp1820
g54
(dp1821
g62
I5
ssg63
g1815
sg56
(lp1822
g49
(g58
g51
NtRp1823
(dp1824
g54
(dp1825
g62
I4
ssg63
Nsg56
(lp1826
sbasbasbasbag49
(g65
g51
NtRp1827
(dp1828
g54
(dp1829
sg63
g59
sg56
(lp1830
g49
(g70
g51
NtRp1831
(dp1832
g54
(dp1833
g74
g75
ssg63
g1827
sg56
(lp1834
S'global_settings'
p1835
asbag49
(g70
g51
NtRp1836
(dp1837
g54
(dp1838
g81
g82
ssg63
g1827
sg56
(lp1839
S':'
asbag49
(g70
g51
NtRp1840
(dp1841
g54
(dp1842
sg63
g1827
sg56
(lp1843
g49
(g50
g51
NtRp1844
(dp1845
g54
(dp1846
g62
I5
ssg63
g1840
sg56
(lp1847
g49
(g58
g51
NtRp1848
(dp1849
g54
(dp1850
g62
I4
ssg63
Nsg56
(lp1851
g49
(g65
g51
NtRp1852
(dp1853
g54
(dp1854
sg63
g1848
sg56
(lp1855
g49
(g70
g51
NtRp1856
(dp1857
g54
(dp1858
g74
g75
ssg63
g1852
sg56
(lp1859
g777
asbag49
(g70
g51
NtRp1860
(dp1861
g54
(dp1862
g81
g82
ssg63
g1852
sg56
(lp1863
S':'
asbag49
(g70
g51
NtRp1864
(dp1865
g54
(dp1866
sg63
g1852
sg56
(lp1867
g49
(g50
g51
NtRp1868
(dp1869
g54
(dp1870
g62
I4
ssg63
g1864
sg56
(lp1871
S"set(['C:\\\\Users\\\\Osku\\\\koodaus\\\\web2py\\\\applications\\\\sitsit\\\\', 'C:\\\\Users\\\\Osku\\\\koodaus\\\\web2py\\\\applications\\\\welcome\\\\', 'C:\\\\Users\\\\Osku\\\\koodaus\\\\web2py\\\\applications\\\\admin\\\\'])"
p1872
asbasbasbag49
(g65
g51
NtRp1873
(dp1874
g54
(dp1875
sg63
g1848
sg56
(lp1876
g49
(g70
g51
NtRp1877
(dp1878
g54
(dp1879
g74
g75
ssg63
g1873
sg56
(lp1880
g799
asbag49
(g70
g51
NtRp1881
(dp1882
g54
(dp1883
g81
g82
ssg63
g1873
sg56
(lp1884
S':'
asbag49
(g70
g51
NtRp1885
(dp1886
g54
(dp1887
sg63
g1873
sg56
(lp1888
g49
(g50
g51
NtRp1889
(dp1890
g54
(dp1891
g62
I4
ssg63
g1885
sg56
(lp1892
g812
asbasbasbag49
(g65
g51
NtRp1893
(dp1894
g54
(dp1895
sg63
g1848
sg56
(lp1896
g49
(g70
g51
NtRp1897
(dp1898
g54
(dp1899
g74
g75
ssg63
g1893
sg56
(lp1900
g821
asbag49
(g70
g51
NtRp1901
(dp1902
g54
(dp1903
g81
g82
ssg63
g1893
sg56
(lp1904
S':'
asbag49
(g70
g51
NtRp1905
(dp1906
g54
(dp1907
sg63
g1893
sg56
(lp1908
g49
(g50
g51
NtRp1909
(dp1910
g54
(dp1911
g62
I4
ssg63
g1905
sg56
(lp1912
g49
(g58
g51
NtRp1913
(dp1914
g54
(dp1915
g62
I3
ssg63
Nsg56
(lp1916
sbasbasbasbag49
(g65
g51
NtRp1917
(dp1918
g54
(dp1919
sg63
g1848
sg56
(lp1920
g49
(g70
g51
NtRp1921
(dp1922
g54
(dp1923
g74
g75
ssg63
g1917
sg56
(lp1924
g846
asbag49
(g70
g51
NtRp1925
(dp1926
g54
(dp1927
g81
g82
ssg63
g1917
sg56
(lp1928
S':'
asbag49
(g70
g51
NtRp1929
(dp1930
g54
(dp1931
sg63
g1917
sg56
(lp1932
g49
(g50
g51
NtRp1933
(dp1934
g54
(dp1935
g62
I4
ssg63
g1929
sg56
(lp1936
S"<Values at 0x2270030: {'verbose': False, 'ip': '127.0.0.1', 'shutdown_timeout': 5, 'taskbar': False, 'nocron': False, 'pid_filename': 'httpserver.pid', 'maxthreads': None, 'softcron': False, 'server_name': 'Osku-Kannettava', 'bpython': False, 'nogui': False, 'port': 8000, 'extcron': False, 'debuglevel': 30, 'test': None, 'folder': 'C:\\\\Users\\\\Osku\\\\koodaus\\\\web2py', 'config': '', 'import_models': False, 'winservice': '', 'shell': None, 'run': '', 'log_filename': 'httpserver.log', 'args': [''], 'socket_timeout': 5, 'ssl_ca_certificate': None, 'scheduler': None, 'profiler_filename': None, 'ssl_private_key': '', 'password': '<ask>', 'request_queue_size': 5, 'ssl_certificate': '', 'cronjob': False, 'numthreads': None, 'quiet': False, 'interfaces': None, 'minthreads': None, 'timeout': 10, 'plain': False, 'nobanner': False}>"
p1937
asbasbasbag49
(g65
g51
NtRp1938
(dp1939
g54
(dp1940
sg63
g1848
sg56
(lp1941
g49
(g70
g51
NtRp1942
(dp1943
g54
(dp1944
g74
g75
ssg63
g1938
sg56
(lp1945
g868
asbag49
(g70
g51
NtRp1946
(dp1947
g54
(dp1948
g81
g82
ssg63
g1938
sg56
(lp1949
S':'
asbag49
(g70
g51
NtRp1950
(dp1951
g54
(dp1952
sg63
g1938
sg56
(lp1953
g49
(g50
g51
NtRp1954
(dp1955
g54
(dp1956
g62
I4
ssg63
g1950
sg56
(lp1957
S'set([])'
p1958
asbasbasbag49
(g65
g51
NtRp1959
(dp1960
g54
(dp1961
sg63
g1848
sg56
(lp1962
g49
(g70
g51
NtRp1963
(dp1964
g54
(dp1965
g74
g75
ssg63
g1959
sg56
(lp1966
g890
asbag49
(g70
g51
NtRp1967
(dp1968
g54
(dp1969
g81
g82
ssg63
g1959
sg56
(lp1970
S':'
asbag49
(g70
g51
NtRp1971
(dp1972
g54
(dp1973
sg63
g1959
sg56
(lp1974
g49
(g50
g51
NtRp1975
(dp1976
g54
(dp1977
g62
I4
ssg63
g1971
sg56
(lp1978
g92
asbasbasbag49
(g65
g51
NtRp1979
(dp1980
g54
(dp1981
sg63
g1848
sg56
(lp1982
g49
(g70
g51
NtRp1983
(dp1984
g54
(dp1985
g74
g75
ssg63
g1979
sg56
(lp1986
g911
asbag49
(g70
g51
NtRp1987
(dp1988
g54
(dp1989
g81
g82
ssg63
g1979
sg56
(lp1990
S':'
asbag49
(g70
g51
NtRp1991
(dp1992
g54
(dp1993
sg63
g1979
sg56
(lp1994
g49
(g50
g51
NtRp1995
(dp1996
g54
(dp1997
g62
I4
ssg63
g1991
sg56
(lp1998
g924
asbasbasbag49
(g65
g51
NtRp1999
(dp2000
g54
(dp2001
sg63
g1848
sg56
(lp2002
g49
(g70
g51
NtRp2003
(dp2004
g54
(dp2005
g74
g75
ssg63
g1999
sg56
(lp2006
g1153
asbag49
(g70
g51
NtRp2007
(dp2008
g54
(dp2009
g81
g82
ssg63
g1999
sg56
(lp2010
S':'
asbag49
(g70
g51
NtRp2011
(dp2012
g54
(dp2013
sg63
g1999
sg56
(lp2014
g49
(g50
g51
NtRp2015
(dp2016
g54
(dp2017
g62
I4
ssg63
g2011
sg56
(lp2018
g92
asbasbasbag49
(g65
g51
NtRp2019
(dp2020
g54
(dp2021
sg63
g1848
sg56
(lp2022
g49
(g70
g51
NtRp2023
(dp2024
g54
(dp2025
g74
g75
ssg63
g2019
sg56
(lp2026
g1174
asbag49
(g70
g51
NtRp2027
(dp2028
g54
(dp2029
g81
g82
ssg63
g2019
sg56
(lp2030
S':'
asbag49
(g70
g51
NtRp2031
(dp2032
g54
(dp2033
sg63
g2019
sg56
(lp2034
g49
(g50
g51
NtRp2035
(dp2036
g54
(dp2037
g62
I4
ssg63
g2031
sg56
(lp2038
g92
asbasbasbag49
(g65
g51
NtRp2039
(dp2040
g54
(dp2041
sg63
g1848
sg56
(lp2042
g49
(g70
g51
NtRp2043
(dp2044
g54
(dp2045
g74
g75
ssg63
g2039
sg56
(lp2046
g1412
asbag49
(g70
g51
NtRp2047
(dp2048
g54
(dp2049
g81
g82
ssg63
g2039
sg56
(lp2050
S':'
asbag49
(g70
g51
NtRp2051
(dp2052
g54
(dp2053
sg63
g2039
sg56
(lp2054
g49
(g50
g51
NtRp2055
(dp2056
g54
(dp2057
g62
I4
ssg63
g2051
sg56
(lp2058
g1425
asbasbasbag49
(g65
g51
NtRp2059
(dp2060
g54
(dp2061
sg63
g1848
sg56
(lp2062
g49
(g70
g51
NtRp2063
(dp2064
g54
(dp2065
g74
g75
ssg63
g2059
sg56
(lp2066
g1455
asbag49
(g70
g51
NtRp2067
(dp2068
g54
(dp2069
g81
g82
ssg63
g2059
sg56
(lp2070
S':'
asbag49
(g70
g51
NtRp2071
(dp2072
g54
(dp2073
sg63
g2059
sg56
(lp2074
g49
(g50
g51
NtRp2075
(dp2076
g54
(dp2077
g62
I4
ssg63
g2071
sg56
(lp2078
g49
(g58
g51
NtRp2079
(dp2080
g54
(dp2081
g62
I3
ssg63
Nsg56
(lp2082
g49
(g65
g51
NtRp2083
(dp2084
g54
(dp2085
sg63
g2079
sg56
(lp2086
g49
(g70
g51
NtRp2087
(dp2088
g54
(dp2089
sg63
g2083
sg56
(lp2090
g49
(g50
g51
NtRp2091
(dp2092
g54
(dp2093
g62
I3
ssg63
g2087
sg56
(lp2094
S'1'
asbasbasbag49
(g65
g51
NtRp2095
(dp2096
g54
(dp2097
sg63
g2079
sg56
(lp2098
g49
(g70
g51
NtRp2099
(dp2100
g54
(dp2101
sg63
g2095
sg56
(lp2102
g49
(g50
g51
NtRp2103
(dp2104
g54
(dp2105
g62
I3
ssg63
g2099
sg56
(lp2106
S'99'
p2107
asbasbasbag49
(g65
g51
NtRp2108
(dp2109
g54
(dp2110
sg63
g2079
sg56
(lp2111
g49
(g70
g51
NtRp2112
(dp2113
g54
(dp2114
sg63
g2108
sg56
(lp2115
g49
(g50
g51
NtRp2116
(dp2117
g54
(dp2118
g62
I3
ssg63
g2112
sg56
(lp2119
S'7'
asbasbasbag49
(g65
g51
NtRp2120
(dp2121
g54
(dp2122
sg63
g2079
sg56
(lp2123
g49
(g70
g51
NtRp2124
(dp2125
g54
(dp2126
sg63
g2120
sg56
(lp2127
g49
(g50
g51
NtRp2128
(dp2129
g54
(dp2130
g62
I3
ssg63
g2124
sg56
(lp2131
S'datetime.datetime(2012, 3, 4, 22, 12, 8)'
p2132
asbasbasbag49
(g65
g51
NtRp2133
(dp2134
g54
(dp2135
sg63
g2079
sg56
(lp2136
g49
(g70
g51
NtRp2137
(dp2138
g54
(dp2139
sg63
g2133
sg56
(lp2140
g49
(g50
g51
NtRp2141
(dp2142
g54
(dp2143
g62
I3
ssg63
g2137
sg56
(lp2144
g1534
asbasbasbasbasbasbasbasbasbasbasbag49
(g65
g51
NtRp2145
(dp2146
g54
(dp2147
sg63
g59
sg56
(lp2148
g49
(g70
g51
NtRp2149
(dp2150
g54
(dp2151
g74
g75
ssg63
g2145
sg56
(lp2152
S'is_https'
p2153
asbag49
(g70
g51
NtRp2154
(dp2155
g54
(dp2156
g81
g82
ssg63
g2145
sg56
(lp2157
S':'
asbag49
(g70
g51
NtRp2158
(dp2159
g54
(dp2160
sg63
g2145
sg56
(lp2161
g49
(g50
g51
NtRp2162
(dp2163
g54
(dp2164
g62
I5
ssg63
g2158
sg56
(lp2165
g92
asbasbasbag49
(g65
g51
NtRp2166
(dp2167
g54
(dp2168
sg63
g59
sg56
(lp2169
g49
(g70
g51
NtRp2170
(dp2171
g54
(dp2172
g74
g75
ssg63
g2166
sg56
(lp2173
S'is_local'
p2174
asbag49
(g70
g51
NtRp2175
(dp2176
g54
(dp2177
g81
g82
ssg63
g2166
sg56
(lp2178
S':'
asbag49
(g70
g51
NtRp2179
(dp2180
g54
(dp2181
sg63
g2166
sg56
(lp2182
g49
(g50
g51
NtRp2183
(dp2184
g54
(dp2185
g62
I5
ssg63
g2179
sg56
(lp2186
g1643
asbasbasbag49
(g65
g51
NtRp2187
(dp2188
g54
(dp2189
sg63
g59
sg56
(lp2190
g49
(g70
g51
NtRp2191
(dp2192
g54
(dp2193
g74
g75
ssg63
g2187
sg56
(lp2194
S'is_restful'
p2195
asbag49
(g70
g51
NtRp2196
(dp2197
g54
(dp2198
g81
g82
ssg63
g2187
sg56
(lp2199
S':'
asbag49
(g70
g51
NtRp2200
(dp2201
g54
(dp2202
sg63
g2187
sg56
(lp2203
g49
(g50
g51
NtRp2204
(dp2205
g54
(dp2206
g62
I5
ssg63
g2200
sg56
(lp2207
g92
asbasbasbag49
(g65
g51
NtRp2208
(dp2209
g54
(dp2210
sg63
g59
sg56
(lp2211
g49
(g70
g51
NtRp2212
(dp2213
g54
(dp2214
g74
g75
ssg63
g2208
sg56
(lp2215
S'now'
p2216
asbag49
(g70
g51
NtRp2217
(dp2218
g54
(dp2219
g81
g82
ssg63
g2208
sg56
(lp2220
S':'
asbag49
(g70
g51
NtRp2221
(dp2222
g54
(dp2223
sg63
g2208
sg56
(lp2224
g49
(g50
g51
NtRp2225
(dp2226
g54
(dp2227
g62
I5
ssg63
g2221
sg56
(lp2228
S'datetime.datetime(2012, 7, 6, 23, 12, 48, 229000)'
p2229
asbasbasbag49
(g65
g51
NtRp2230
(dp2231
g54
(dp2232
sg63
g59
sg56
(lp2233
g49
(g70
g51
NtRp2234
(dp2235
g54
(dp2236
g74
g75
ssg63
g2230
sg56
(lp2237
S'post_vars'
p2238
asbag49
(g70
g51
NtRp2239
(dp2240
g54
(dp2241
g81
g82
ssg63
g2230
sg56
(lp2242
S':'
asbag49
(g70
g51
NtRp2243
(dp2244
g54
(dp2245
sg63
g2230
sg56
(lp2246
g49
(g50
g51
NtRp2247
(dp2248
g54
(dp2249
g62
I5
ssg63
g2243
sg56
(lp2250
g49
(g58
g51
NtRp2251
(dp2252
g54
(dp2253
g62
I4
ssg63
Nsg56
(lp2254
sbasbasbasbag49
(g65
g51
NtRp2255
(dp2256
g54
(dp2257
sg63
g59
sg56
(lp2258
g49
(g70
g51
NtRp2259
(dp2260
g54
(dp2261
g74
g75
ssg63
g2255
sg56
(lp2262
S'raw_args'
p2263
asbag49
(g70
g51
NtRp2264
(dp2265
g54
(dp2266
g81
g82
ssg63
g2255
sg56
(lp2267
S':'
asbag49
(g70
g51
NtRp2268
(dp2269
g54
(dp2270
sg63
g2255
sg56
(lp2271
g49
(g50
g51
NtRp2272
(dp2273
g54
(dp2274
g62
I5
ssg63
g2268
sg56
(lp2275
S'1'
asbasbasbag49
(g65
g51
NtRp2276
(dp2277
g54
(dp2278
sg63
g59
sg56
(lp2279
g49
(g70
g51
NtRp2280
(dp2281
g54
(dp2282
g74
g75
ssg63
g2276
sg56
(lp2283
S'url'
p2284
asbag49
(g70
g51
NtRp2285
(dp2286
g54
(dp2287
g81
g82
ssg63
g2276
sg56
(lp2288
S':'
asbag49
(g70
g51
NtRp2289
(dp2290
g54
(dp2291
sg63
g2276
sg56
(lp2292
g49
(g50
g51
NtRp2293
(dp2294
g54
(dp2295
g62
I5
ssg63
g2289
sg56
(lp2296
S'/sitsit/default/sitsit/1'
p2297
asbasbasbag49
(g65
g51
NtRp2298
(dp2299
g54
(dp2300
sg63
g59
sg56
(lp2301
g49
(g70
g51
NtRp2302
(dp2303
g54
(dp2304
g74
g75
ssg63
g2298
sg56
(lp2305
S'utcnow'
p2306
asbag49
(g70
g51
NtRp2307
(dp2308
g54
(dp2309
g81
g82
ssg63
g2298
sg56
(lp2310
S':'
asbag49
(g70
g51
NtRp2311
(dp2312
g54
(dp2313
sg63
g2298
sg56
(lp2314
g49
(g50
g51
NtRp2315
(dp2316
g54
(dp2317
g62
I5
ssg63
g2311
sg56
(lp2318
S'datetime.datetime(2012, 7, 6, 21, 12, 48, 229000)'
p2319
asbasbasbag49
(g65
g51
NtRp2320
(dp2321
g54
(dp2322
sg63
g59
sg56
(lp2323
g49
(g70
g51
NtRp2324
(dp2325
g54
(dp2326
g74
g75
ssg63
g2320
sg56
(lp2327
S'uuid'
p2328
asbag49
(g70
g51
NtRp2329
(dp2330
g54
(dp2331
g81
g82
ssg63
g2320
sg56
(lp2332
S':'
asbag49
(g70
g51
NtRp2333
(dp2334
g54
(dp2335
sg63
g2320
sg56
(lp2336
g49
(g50
g51
NtRp2337
(dp2338
g54
(dp2339
g62
I5
ssg63
g2333
sg56
(lp2340
S'sitsit/127.0.0.1.2012-07-06.23-12-48.f94c1b27-cebb-408b-beaa-f9808a106dc9'
p2341
asbasbasbag49
(g65
g51
NtRp2342
(dp2343
g54
(dp2344
sg63
g59
sg56
(lp2345
g49
(g70
g51
NtRp2346
(dp2347
g54
(dp2348
g74
g75
ssg63
g2342
sg56
(lp2349
S'vars'
p2350
asbag49
(g70
g51
NtRp2351
(dp2352
g54
(dp2353
g81
g82
ssg63
g2342
sg56
(lp2354
S':'
asbag49
(g70
g51
NtRp2355
(dp2356
g54
(dp2357
sg63
g2342
sg56
(lp2358
g49
(g50
g51
NtRp2359
(dp2360
g54
(dp2361
g62
I5
ssg63
g2355
sg56
(lp2362
g49
(g58
g51
NtRp2363
(dp2364
g54
(dp2365
g62
I4
ssg63
Nsg56
(lp2366
sbasbasbasbag49
(g65
g51
NtRp2367
(dp2368
g54
(dp2369
sg63
g59
sg56
(lp2370
g49
(g70
g51
NtRp2371
(dp2372
g54
(dp2373
g74
g75
ssg63
g2367
sg56
(lp2374
S'wsgi'
p2375
asbag49
(g70
g51
NtRp2376
(dp2377
g54
(dp2378
g81
g82
ssg63
g2367
sg56
(lp2379
S':'
asbag49
(g70
g51
NtRp2380
(dp2381
g54
(dp2382
sg63
g2367
sg56
(lp2383
g49
(g50
g51
NtRp2384
(dp2385
g54
(dp2386
g62
I5
ssg63
g2380
sg56
(lp2387
g49
(g58
g51
NtRp2388
(dp2389
g54
(dp2390
g62
I4
ssg63
Nsg56
(lp2391
g49
(g65
g51
NtRp2392
(dp2393
g54
(dp2394
sg63
g2388
sg56
(lp2395
g49
(g70
g51
NtRp2396
(dp2397
g54
(dp2398
g74
g75
ssg63
g2392
sg56
(lp2399
S'environ'
p2400
asbag49
(g70
g51
NtRp2401
(dp2402
g54
(dp2403
g81
g82
ssg63
g2392
sg56
(lp2404
S':'
asbag49
(g70
g51
NtRp2405
(dp2406
g54
(dp2407
sg63
g2392
sg56
(lp2408
g49
(g50
g51
NtRp2409
(dp2410
g54
(dp2411
g62
I4
ssg63
g2405
sg56
(lp2412
g49
(g58
g51
NtRp2413
(dp2414
g54
(dp2415
g62
I3
ssg63
Nsg56
(lp2416
g49
(g65
g51
NtRp2417
(dp2418
g54
(dp2419
sg63
g2413
sg56
(lp2420
g49
(g70
g51
NtRp2421
(dp2422
g54
(dp2423
g74
g75
ssg63
g2417
sg56
(lp2424
S'HTTP_ACCEPT'
p2425
asbag49
(g70
g51
NtRp2426
(dp2427
g54
(dp2428
g81
g82
ssg63
g2417
sg56
(lp2429
S':'
asbag49
(g70
g51
NtRp2430
(dp2431
g54
(dp2432
sg63
g2417
sg56
(lp2433
g49
(g50
g51
NtRp2434
(dp2435
g54
(dp2436
g62
I3
ssg63
g2430
sg56
(lp2437
g946
asbasbasbag49
(g65
g51
NtRp2438
(dp2439
g54
(dp2440
sg63
g2413
sg56
(lp2441
g49
(g70
g51
NtRp2442
(dp2443
g54
(dp2444
g74
g75
ssg63
g2438
sg56
(lp2445
S'HTTP_ACCEPT_CHARSET'
p2446
asbag49
(g70
g51
NtRp2447
(dp2448
g54
(dp2449
g81
g82
ssg63
g2438
sg56
(lp2450
S':'
asbag49
(g70
g51
NtRp2451
(dp2452
g54
(dp2453
sg63
g2438
sg56
(lp2454
g49
(g50
g51
NtRp2455
(dp2456
g54
(dp2457
g62
I3
ssg63
g2451
sg56
(lp2458
g968
asbasbasbag49
(g65
g51
NtRp2459
(dp2460
g54
(dp2461
sg63
g2413
sg56
(lp2462
g49
(g70
g51
NtRp2463
(dp2464
g54
(dp2465
g74
g75
ssg63
g2459
sg56
(lp2466
S'HTTP_ACCEPT_ENCODING'
p2467
asbag49
(g70
g51
NtRp2468
(dp2469
g54
(dp2470
g81
g82
ssg63
g2459
sg56
(lp2471
S':'
asbag49
(g70
g51
NtRp2472
(dp2473
g54
(dp2474
sg63
g2459
sg56
(lp2475
g49
(g50
g51
NtRp2476
(dp2477
g54
(dp2478
g62
I3
ssg63
g2472
sg56
(lp2479
g990
asbasbasbag49
(g65
g51
NtRp2480
(dp2481
g54
(dp2482
sg63
g2413
sg56
(lp2483
g49
(g70
g51
NtRp2484
(dp2485
g54
(dp2486
g74
g75
ssg63
g2480
sg56
(lp2487
S'HTTP_ACCEPT_LANGUAGE'
p2488
asbag49
(g70
g51
NtRp2489
(dp2490
g54
(dp2491
g81
g82
ssg63
g2480
sg56
(lp2492
S':'
asbag49
(g70
g51
NtRp2493
(dp2494
g54
(dp2495
sg63
g2480
sg56
(lp2496
g49
(g50
g51
NtRp2497
(dp2498
g54
(dp2499
g62
I3
ssg63
g2493
sg56
(lp2500
g1012
asbasbasbag49
(g65
g51
NtRp2501
(dp2502
g54
(dp2503
sg63
g2413
sg56
(lp2504
g49
(g70
g51
NtRp2505
(dp2506
g54
(dp2507
g74
g75
ssg63
g2501
sg56
(lp2508
S'HTTP_CACHE_CONTROL'
p2509
asbag49
(g70
g51
NtRp2510
(dp2511
g54
(dp2512
g81
g82
ssg63
g2501
sg56
(lp2513
S':'
asbag49
(g70
g51
NtRp2514
(dp2515
g54
(dp2516
sg63
g2501
sg56
(lp2517
g49
(g50
g51
NtRp2518
(dp2519
g54
(dp2520
g62
I3
ssg63
g2514
sg56
(lp2521
g1034
asbasbasbag49
(g65
g51
NtRp2522
(dp2523
g54
(dp2524
sg63
g2413
sg56
(lp2525
g49
(g70
g51
NtRp2526
(dp2527
g54
(dp2528
g74
g75
ssg63
g2522
sg56
(lp2529
S'HTTP_CONNECTION'
p2530
asbag49
(g70
g51
NtRp2531
(dp2532
g54
(dp2533
g81
g82
ssg63
g2522
sg56
(lp2534
S':'
asbag49
(g70
g51
NtRp2535
(dp2536
g54
(dp2537
sg63
g2522
sg56
(lp2538
g49
(g50
g51
NtRp2539
(dp2540
g54
(dp2541
g62
I3
ssg63
g2535
sg56
(lp2542
g1056
asbasbasbag49
(g65
g51
NtRp2543
(dp2544
g54
(dp2545
sg63
g2413
sg56
(lp2546
g49
(g70
g51
NtRp2547
(dp2548
g54
(dp2549
g74
g75
ssg63
g2543
sg56
(lp2550
S'HTTP_COOKIE'
p2551
asbag49
(g70
g51
NtRp2552
(dp2553
g54
(dp2554
g81
g82
ssg63
g2543
sg56
(lp2555
S':'
asbag49
(g70
g51
NtRp2556
(dp2557
g54
(dp2558
sg63
g2543
sg56
(lp2559
g49
(g50
g51
NtRp2560
(dp2561
g54
(dp2562
g62
I3
ssg63
g2556
sg56
(lp2563
g1078
asbasbasbag49
(g65
g51
NtRp2564
(dp2565
g54
(dp2566
sg63
g2413
sg56
(lp2567
g49
(g70
g51
NtRp2568
(dp2569
g54
(dp2570
g74
g75
ssg63
g2564
sg56
(lp2571
S'HTTP_HOST'
p2572
asbag49
(g70
g51
NtRp2573
(dp2574
g54
(dp2575
g81
g82
ssg63
g2564
sg56
(lp2576
S':'
asbag49
(g70
g51
NtRp2577
(dp2578
g54
(dp2579
sg63
g2564
sg56
(lp2580
g49
(g50
g51
NtRp2581
(dp2582
g54
(dp2583
g62
I3
ssg63
g2577
sg56
(lp2584
g1100
asbasbasbag49
(g65
g51
NtRp2585
(dp2586
g54
(dp2587
sg63
g2413
sg56
(lp2588
g49
(g70
g51
NtRp2589
(dp2590
g54
(dp2591
g74
g75
ssg63
g2585
sg56
(lp2592
S'HTTP_REFERER'
p2593
asbag49
(g70
g51
NtRp2594
(dp2595
g54
(dp2596
g81
g82
ssg63
g2585
sg56
(lp2597
S':'
asbag49
(g70
g51
NtRp2598
(dp2599
g54
(dp2600
sg63
g2585
sg56
(lp2601
g49
(g50
g51
NtRp2602
(dp2603
g54
(dp2604
g62
I3
ssg63
g2598
sg56
(lp2605
g1122
asbasbasbag49
(g65
g51
NtRp2606
(dp2607
g54
(dp2608
sg63
g2413
sg56
(lp2609
g49
(g70
g51
NtRp2610
(dp2611
g54
(dp2612
g74
g75
ssg63
g2606
sg56
(lp2613
S'HTTP_USER_AGENT'
p2614
asbag49
(g70
g51
NtRp2615
(dp2616
g54
(dp2617
g81
g82
ssg63
g2606
sg56
(lp2618
S':'
asbag49
(g70
g51
NtRp2619
(dp2620
g54
(dp2621
sg63
g2606
sg56
(lp2622
g49
(g50
g51
NtRp2623
(dp2624
g54
(dp2625
g62
I3
ssg63
g2619
sg56
(lp2626
g1144
asbasbasbag49
(g65
g51
NtRp2627
(dp2628
g54
(dp2629
sg63
g2413
sg56
(lp2630
g49
(g70
g51
NtRp2631
(dp2632
g54
(dp2633
g74
g75
ssg63
g2627
sg56
(lp2634
S'PATH_INFO'
p2635
asbag49
(g70
g51
NtRp2636
(dp2637
g54
(dp2638
g81
g82
ssg63
g2627
sg56
(lp2639
S':'
asbag49
(g70
g51
NtRp2640
(dp2641
g54
(dp2642
sg63
g2627
sg56
(lp2643
g49
(g50
g51
NtRp2644
(dp2645
g54
(dp2646
g62
I3
ssg63
g2640
sg56
(lp2647
g1208
asbasbasbag49
(g65
g51
NtRp2648
(dp2649
g54
(dp2650
sg63
g2413
sg56
(lp2651
g49
(g70
g51
NtRp2652
(dp2653
g54
(dp2654
g74
g75
ssg63
g2648
sg56
(lp2655
S'QUERY_STRING'
p2656
asbag49
(g70
g51
NtRp2657
(dp2658
g54
(dp2659
g81
g82
ssg63
g2648
sg56
(lp2660
S':'
asbag49
(g70
g51
NtRp2661
(dp2662
g54
(dp2663
sg63
g2648
sg56
(lp2664
g49
(g50
g51
NtRp2665
(dp2666
g54
(dp2667
g62
I3
ssg63
g2661
sg56
(lp2668
S''
asbasbasbag49
(g65
g51
NtRp2669
(dp2670
g54
(dp2671
sg63
g2413
sg56
(lp2672
g49
(g70
g51
NtRp2673
(dp2674
g54
(dp2675
g74
g75
ssg63
g2669
sg56
(lp2676
S'REMOTE_ADDR'
p2677
asbag49
(g70
g51
NtRp2678
(dp2679
g54
(dp2680
g81
g82
ssg63
g2669
sg56
(lp2681
S':'
asbag49
(g70
g51
NtRp2682
(dp2683
g54
(dp2684
sg63
g2669
sg56
(lp2685
g49
(g50
g51
NtRp2686
(dp2687
g54
(dp2688
g62
I3
ssg63
g2682
sg56
(lp2689
g194
asbasbasbag49
(g65
g51
NtRp2690
(dp2691
g54
(dp2692
sg63
g2413
sg56
(lp2693
g49
(g70
g51
NtRp2694
(dp2695
g54
(dp2696
g74
g75
ssg63
g2690
sg56
(lp2697
S'REMOTE_PORT'
p2698
asbag49
(g70
g51
NtRp2699
(dp2700
g54
(dp2701
g81
g82
ssg63
g2690
sg56
(lp2702
S':'
asbag49
(g70
g51
NtRp2703
(dp2704
g54
(dp2705
sg63
g2690
sg56
(lp2706
g49
(g50
g51
NtRp2707
(dp2708
g54
(dp2709
g62
I3
ssg63
g2703
sg56
(lp2710
g1272
asbasbasbag49
(g65
g51
NtRp2711
(dp2712
g54
(dp2713
sg63
g2413
sg56
(lp2714
g49
(g70
g51
NtRp2715
(dp2716
g54
(dp2717
g74
g75
ssg63
g2711
sg56
(lp2718
S'REQUEST_METHOD'
p2719
asbag49
(g70
g51
NtRp2720
(dp2721
g54
(dp2722
g81
g82
ssg63
g2711
sg56
(lp2723
S':'
asbag49
(g70
g51
NtRp2724
(dp2725
g54
(dp2726
sg63
g2711
sg56
(lp2727
g49
(g50
g51
NtRp2728
(dp2729
g54
(dp2730
g62
I3
ssg63
g2724
sg56
(lp2731
g1294
asbasbasbag49
(g65
g51
NtRp2732
(dp2733
g54
(dp2734
sg63
g2413
sg56
(lp2735
g49
(g70
g51
NtRp2736
(dp2737
g54
(dp2738
g74
g75
ssg63
g2732
sg56
(lp2739
S'SCRIPT_NAME'
p2740
asbag49
(g70
g51
NtRp2741
(dp2742
g54
(dp2743
g81
g82
ssg63
g2732
sg56
(lp2744
S':'
asbag49
(g70
g51
NtRp2745
(dp2746
g54
(dp2747
sg63
g2732
sg56
(lp2748
g49
(g50
g51
NtRp2749
(dp2750
g54
(dp2751
g62
I3
ssg63
g2745
sg56
(lp2752
S''
asbasbasbag49
(g65
g51
NtRp2753
(dp2754
g54
(dp2755
sg63
g2413
sg56
(lp2756
g49
(g70
g51
NtRp2757
(dp2758
g54
(dp2759
g74
g75
ssg63
g2753
sg56
(lp2760
S'SERVER_NAME'
p2761
asbag49
(g70
g51
NtRp2762
(dp2763
g54
(dp2764
g81
g82
ssg63
g2753
sg56
(lp2765
S':'
asbag49
(g70
g51
NtRp2766
(dp2767
g54
(dp2768
sg63
g2753
sg56
(lp2769
g49
(g50
g51
NtRp2770
(dp2771
g54
(dp2772
g62
I3
ssg63
g2766
sg56
(lp2773
g1337
asbasbasbag49
(g65
g51
NtRp2774
(dp2775
g54
(dp2776
sg63
g2413
sg56
(lp2777
g49
(g70
g51
NtRp2778
(dp2779
g54
(dp2780
g74
g75
ssg63
g2774
sg56
(lp2781
S'SERVER_PORT'
p2782
asbag49
(g70
g51
NtRp2783
(dp2784
g54
(dp2785
g81
g82
ssg63
g2774
sg56
(lp2786
S':'
asbag49
(g70
g51
NtRp2787
(dp2788
g54
(dp2789
sg63
g2774
sg56
(lp2790
g49
(g50
g51
NtRp2791
(dp2792
g54
(dp2793
g62
I3
ssg63
g2787
sg56
(lp2794
g1359
asbasbasbag49
(g65
g51
NtRp2795
(dp2796
g54
(dp2797
sg63
g2413
sg56
(lp2798
g49
(g70
g51
NtRp2799
(dp2800
g54
(dp2801
g74
g75
ssg63
g2795
sg56
(lp2802
S'SERVER_PROTOCOL'
p2803
asbag49
(g70
g51
NtRp2804
(dp2805
g54
(dp2806
g81
g82
ssg63
g2795
sg56
(lp2807
S':'
asbag49
(g70
g51
NtRp2808
(dp2809
g54
(dp2810
sg63
g2795
sg56
(lp2811
g49
(g50
g51
NtRp2812
(dp2813
g54
(dp2814
g62
I3
ssg63
g2808
sg56
(lp2815
g1381
asbasbasbag49
(g65
g51
NtRp2816
(dp2817
g54
(dp2818
sg63
g2413
sg56
(lp2819
g49
(g70
g51
NtRp2820
(dp2821
g54
(dp2822
g74
g75
ssg63
g2816
sg56
(lp2823
S'SERVER_SOFTWARE'
p2824
asbag49
(g70
g51
NtRp2825
(dp2826
g54
(dp2827
g81
g82
ssg63
g2816
sg56
(lp2828
S':'
asbag49
(g70
g51
NtRp2829
(dp2830
g54
(dp2831
sg63
g2816
sg56
(lp2832
g49
(g50
g51
NtRp2833
(dp2834
g54
(dp2835
g62
I3
ssg63
g2829
sg56
(lp2836
g1403
asbasbasbag49
(g65
g51
NtRp2837
(dp2838
g54
(dp2839
sg63
g2413
sg56
(lp2840
g49
(g70
g51
NtRp2841
(dp2842
g54
(dp2843
g74
g75
ssg63
g2837
sg56
(lp2844
S'wsgi.errors'
p2845
asbag49
(g70
g51
NtRp2846
(dp2847
g54
(dp2848
g81
g82
ssg63
g2837
sg56
(lp2849
S':'
asbag49
(g70
g51
NtRp2850
(dp2851
g54
(dp2852
sg63
g2837
sg56
(lp2853
g49
(g50
g51
NtRp2854
(dp2855
g54
(dp2856
g62
I3
ssg63
g2850
sg56
(lp2857
S"<open file '<stderr>', mode 'w' at 0x014F00B0>"
p2858
asbasbasbag49
(g65
g51
NtRp2859
(dp2860
g54
(dp2861
sg63
g2413
sg56
(lp2862
g49
(g70
g51
NtRp2863
(dp2864
g54
(dp2865
g74
g75
ssg63
g2859
sg56
(lp2866
S'wsgi.file_wrapper'
p2867
asbag49
(g70
g51
NtRp2868
(dp2869
g54
(dp2870
g81
g82
ssg63
g2859
sg56
(lp2871
S':'
asbag49
(g70
g51
NtRp2872
(dp2873
g54
(dp2874
sg63
g2859
sg56
(lp2875
g49
(g50
g51
NtRp2876
(dp2877
g54
(dp2878
g62
I3
ssg63
g2872
sg56
(lp2879
S'<class wsgiref.util.FileWrapper at 0x020041E0>'
p2880
asbasbasbag49
(g65
g51
NtRp2881
(dp2882
g54
(dp2883
sg63
g2413
sg56
(lp2884
g49
(g70
g51
NtRp2885
(dp2886
g54
(dp2887
g74
g75
ssg63
g2881
sg56
(lp2888
S'wsgi.input'
p2889
asbag49
(g70
g51
NtRp2890
(dp2891
g54
(dp2892
g81
g82
ssg63
g2881
sg56
(lp2893
S':'
asbag49
(g70
g51
NtRp2894
(dp2895
g54
(dp2896
sg63
g2881
sg56
(lp2897
g49
(g50
g51
NtRp2898
(dp2899
g54
(dp2900
g62
I3
ssg63
g2894
sg56
(lp2901
S'<cStringIO.StringO object at 0x05055F00>'
p2902
asbasbasbag49
(g65
g51
NtRp2903
(dp2904
g54
(dp2905
sg63
g2413
sg56
(lp2906
g49
(g70
g51
NtRp2907
(dp2908
g54
(dp2909
g74
g75
ssg63
g2903
sg56
(lp2910
S'wsgi.multiprocess'
p2911
asbag49
(g70
g51
NtRp2912
(dp2913
g54
(dp2914
g81
g82
ssg63
g2903
sg56
(lp2915
S':'
asbag49
(g70
g51
NtRp2916
(dp2917
g54
(dp2918
sg63
g2903
sg56
(lp2919
g49
(g50
g51
NtRp2920
(dp2921
g54
(dp2922
g62
I3
ssg63
g2916
sg56
(lp2923
g92
asbasbasbag49
(g65
g51
NtRp2924
(dp2925
g54
(dp2926
sg63
g2413
sg56
(lp2927
g49
(g70
g51
NtRp2928
(dp2929
g54
(dp2930
g74
g75
ssg63
g2924
sg56
(lp2931
S'wsgi.multithread'
p2932
asbag49
(g70
g51
NtRp2933
(dp2934
g54
(dp2935
g81
g82
ssg63
g2924
sg56
(lp2936
S':'
asbag49
(g70
g51
NtRp2937
(dp2938
g54
(dp2939
sg63
g2924
sg56
(lp2940
g49
(g50
g51
NtRp2941
(dp2942
g54
(dp2943
g62
I3
ssg63
g2937
sg56
(lp2944
g1643
asbasbasbag49
(g65
g51
NtRp2945
(dp2946
g54
(dp2947
sg63
g2413
sg56
(lp2948
g49
(g70
g51
NtRp2949
(dp2950
g54
(dp2951
g74
g75
ssg63
g2945
sg56
(lp2952
S'wsgi.run_once'
p2953
asbag49
(g70
g51
NtRp2954
(dp2955
g54
(dp2956
g81
g82
ssg63
g2945
sg56
(lp2957
S':'
asbag49
(g70
g51
NtRp2958
(dp2959
g54
(dp2960
sg63
g2945
sg56
(lp2961
g49
(g50
g51
NtRp2962
(dp2963
g54
(dp2964
g62
I3
ssg63
g2958
sg56
(lp2965
g92
asbasbasbag49
(g65
g51
NtRp2966
(dp2967
g54
(dp2968
sg63
g2413
sg56
(lp2969
g49
(g70
g51
NtRp2970
(dp2971
g54
(dp2972
g74
g75
ssg63
g2966
sg56
(lp2973
S'wsgi.url_scheme'
p2974
asbag49
(g70
g51
NtRp2975
(dp2976
g54
(dp2977
g81
g82
ssg63
g2966
sg56
(lp2978
S':'
asbag49
(g70
g51
NtRp2979
(dp2980
g54
(dp2981
sg63
g2966
sg56
(lp2982
g49
(g50
g51
NtRp2983
(dp2984
g54
(dp2985
g62
I3
ssg63
g2979
sg56
(lp2986
g1686
asbasbasbag49
(g65
g51
NtRp2987
(dp2988
g54
(dp2989
sg63
g2413
sg56
(lp2990
g49
(g70
g51
NtRp2991
(dp2992
g54
(dp2993
g74
g75
ssg63
g2987
sg56
(lp2994
S'wsgi.version'
p2995
asbag49
(g70
g51
NtRp2996
(dp2997
g54
(dp2998
g81
g82
ssg63
g2987
sg56
(lp2999
S':'
asbag49
(g70
g51
NtRp3000
(dp3001
g54
(dp3002
sg63
g2987
sg56
(lp3003
g49
(g50
g51
NtRp3004
(dp3005
g54
(dp3006
g62
I3
ssg63
g3000
sg56
(lp3007
S'1'
asbasbasbasbasbasbasbasbasbasbasbasbasbsS'frames'
p3008
(lp3009
(dp3010
S'file'
p3011
S'C:\\Users\\Osku\\koodaus\\web2py\\gluon\\restricted.py'
p3012
sS'dump'
p3013
(dp3014
sS'lnum'
p3015
I205
sS'lines'
p3016
(dp3017
sS'call'
p3018
S"(code='# -*- coding: utf-8 -*-\\n# this file is released ...rud())\\n\\n\\nresponse._vars=response._caller(sitsit)\\n', environment={'A': <class 'gluon.html.A'>, 'Auth': <class 'gluon.tools.Auth'>, 'B': <class 'gluon.html.B'>, 'BEAUTIFY': <class 'gluon.html.BEAUTIFY'>, 'BODY': <class 'gluon.html.BODY'>, 'BR': <class 'gluon.html.BR'>, 'BUTTON': <class 'gluon.html.BUTTON'>, 'CAT': <class 'gluon.html.CAT'>, 'CENTER': <class 'gluon.html.CENTER'>, 'CLEANUP': <class 'gluon.validators.CLEANUP'>, ...}, layer=r'C:\\Users\\Osku\\koodaus\\web2py\\applications\\sitsit\\controllers/default.py')"
p3019
sS'func'
p3020
S'restricted'
p3021
sa(dp3022
g3011
S'C:\\Users\\Osku\\koodaus\\web2py\\applications\\sitsit\\controllers\\default.py'
p3023
sg3013
(dp3024
sg3015
I89
sg3016
(dp3025
I78
S'    http://..../[app]/default/data/delete/[table]/[id]'
p3026
sI79
S'    http://..../[app]/default/data/select/[table]'
p3027
sI80
S'    http://..../[app]/default/data/search/[table]'
p3028
sI81
S'    but URLs must be signed, i.e. linked with'
p3029
sI82
S"      A('table',_href=URL('data/tables',user_signature=True))"
p3030
sI83
S'    or with the signed load operator'
p3031
sI84
S"      LOAD('default','data.load',args='tables',ajax=True,user_signature=True)"
p3032
sI85
S'    """'
p3033
sI86
S'    return dict(form=crud())'
p3034
sI87
S''
ssg3018
S'()'
p3035
sg3020
S'<module>'
p3036
sa(dp3037
g3011
S'C:\\Users\\Osku\\koodaus\\web2py\\gluon\\globals.py'
p3038
sg3013
(dp3039
sg3015
I173
sg3016
(dp3040
sg3018
S'(f=<function sitsit at 0x04E2B7B0>)'
p3041
sg3020
S'<lambda>'
p3042
sa(dp3043
g3011
S'C:\\Users\\Osku\\koodaus\\web2py\\applications\\sitsit\\controllers\\default.py'
p3044
sg3013
(dp3045
sg3015
I32
sg3016
(dp3046
I32
S'\t\t\treturn (dict(sitsit.as_dict())+dict(found=True))'
p3047
sI33
S'\t\telse:'
p3048
sI34
S'\t\t\treturn dict(found=False)'
p3049
sI35
S''
sI36
S'def user():'
p3050
sI27
S'\t\treturn dict(form=form)'
p3051
sI28
S'\tif len(request.args):'
p3052
sI29
S'\t\tsitsiID = request.args[0]'
p3053
sI30
S'\t\tsitsit = db.party[sitsiID]'
p3054
sI31
S'\t\tif sitsit:'
p3055
ssg3018
S'()'
p3056
sg3020
S'sitsit'
p3057
sasS'pyver'
p3058
S'Python 2.5.4: C:\\Users\\Osku\\koodaus\\web2py\\web2py.exe'
p3059
sS'session'
p3060
g49
(g50
g51
NtRp3061
(dp3062
g54
(dp3063
sg56
(lp3064
g49
(g58
g51
NtRp3065
(dp3066
g54
(dp3067
g62
I5
ssg63
Nsg56
(lp3068
g49
(g65
g51
NtRp3069
(dp3070
g54
(dp3071
sg63
g3065
sg56
(lp3072
g49
(g70
g51
NtRp3073
(dp3074
g54
(dp3075
g74
g75
ssg63
g3069
sg56
(lp3076
S'auth'
p3077
asbag49
(g70
g51
NtRp3078
(dp3079
g54
(dp3080
g81
g82
ssg63
g3069
sg56
(lp3081
S':'
asbag49
(g70
g51
NtRp3082
(dp3083
g54
(dp3084
sg63
g3069
sg56
(lp3085
g49
(g50
g51
NtRp3086
(dp3087
g54
(dp3088
g62
I5
ssg63
g3082
sg56
(lp3089
g49
(g58
g51
NtRp3090
(dp3091
g54
(dp3092
g62
I4
ssg63
Nsg56
(lp3093
g49
(g65
g51
NtRp3094
(dp3095
g54
(dp3096
sg63
g3090
sg56
(lp3097
g49
(g70
g51
NtRp3098
(dp3099
g54
(dp3100
g74
g75
ssg63
g3094
sg56
(lp3101
S'expiration'
p3102
asbag49
(g70
g51
NtRp3103
(dp3104
g54
(dp3105
g81
g82
ssg63
g3094
sg56
(lp3106
S':'
asbag49
(g70
g51
NtRp3107
(dp3108
g54
(dp3109
sg63
g3094
sg56
(lp3110
g49
(g50
g51
NtRp3111
(dp3112
g54
(dp3113
g62
I4
ssg63
g3107
sg56
(lp3114
S'3600'
p3115
asbasbasbag49
(g65
g51
NtRp3116
(dp3117
g54
(dp3118
sg63
g3090
sg56
(lp3119
g49
(g70
g51
NtRp3120
(dp3121
g54
(dp3122
g74
g75
ssg63
g3116
sg56
(lp3123
S'hmac_key'
p3124
asbag49
(g70
g51
NtRp3125
(dp3126
g54
(dp3127
g81
g82
ssg63
g3116
sg56
(lp3128
S':'
asbag49
(g70
g51
NtRp3129
(dp3130
g54
(dp3131
sg63
g3116
sg56
(lp3132
g49
(g50
g51
NtRp3133
(dp3134
g54
(dp3135
g62
I4
ssg63
g3129
sg56
(lp3136
S'871ae63d-f3e0-499f-bd79-a2b724d0a3d4'
p3137
asbasbasbag49
(g65
g51
NtRp3138
(dp3139
g54
(dp3140
sg63
g3090
sg56
(lp3141
g49
(g70
g51
NtRp3142
(dp3143
g54
(dp3144
g74
g75
ssg63
g3138
sg56
(lp3145
S'last_visit'
p3146
asbag49
(g70
g51
NtRp3147
(dp3148
g54
(dp3149
g81
g82
ssg63
g3138
sg56
(lp3150
S':'
asbag49
(g70
g51
NtRp3151
(dp3152
g54
(dp3153
sg63
g3138
sg56
(lp3154
g49
(g50
g51
NtRp3155
(dp3156
g54
(dp3157
g62
I4
ssg63
g3151
sg56
(lp3158
S'datetime.datetime(2012, 7, 6, 23, 8, 29, 104000)'
p3159
asbasbasbag49
(g65
g51
NtRp3160
(dp3161
g54
(dp3162
sg63
g3090
sg56
(lp3163
g49
(g70
g51
NtRp3164
(dp3165
g54
(dp3166
g74
g75
ssg63
g3160
sg56
(lp3167
S'user'
p3168
asbag49
(g70
g51
NtRp3169
(dp3170
g54
(dp3171
g81
g82
ssg63
g3160
sg56
(lp3172
S':'
asbag49
(g70
g51
NtRp3173
(dp3174
g54
(dp3175
sg63
g3160
sg56
(lp3176
g49
(g50
g51
NtRp3177
(dp3178
g54
(dp3179
g62
I4
ssg63
g3173
sg56
(lp3180
g49
(g58
g51
NtRp3181
(dp3182
g54
(dp3183
g62
I3
ssg63
Nsg56
(lp3184
g49
(g65
g51
NtRp3185
(dp3186
g54
(dp3187
sg63
g3181
sg56
(lp3188
g49
(g70
g51
NtRp3189
(dp3190
g54
(dp3191
g74
g75
ssg63
g3185
sg56
(lp3192
S'birthdate'
p3193
asbag49
(g70
g51
NtRp3194
(dp3195
g54
(dp3196
g81
g82
ssg63
g3185
sg56
(lp3197
S':'
asbag49
(g70
g51
NtRp3198
(dp3199
g54
(dp3200
sg63
g3185
sg56
(lp3201
g49
(g50
g51
NtRp3202
(dp3203
g54
(dp3204
g62
I3
ssg63
g3198
sg56
(lp3205
S'None'
p3206
asbasbasbag49
(g65
g51
NtRp3207
(dp3208
g54
(dp3209
sg63
g3181
sg56
(lp3210
g49
(g70
g51
NtRp3211
(dp3212
g54
(dp3213
g74
g75
ssg63
g3207
sg56
(lp3214
S'email'
p3215
asbag49
(g70
g51
NtRp3216
(dp3217
g54
(dp3218
g81
g82
ssg63
g3207
sg56
(lp3219
S':'
asbag49
(g70
g51
NtRp3220
(dp3221
g54
(dp3222
sg63
g3207
sg56
(lp3223
g49
(g50
g51
NtRp3224
(dp3225
g54
(dp3226
g62
I3
ssg63
g3220
sg56
(lp3227
S'oskari.petas@gmail.com'
p3228
asbasbasbag49
(g65
g51
NtRp3229
(dp3230
g54
(dp3231
sg63
g3181
sg56
(lp3232
g49
(g70
g51
NtRp3233
(dp3234
g54
(dp3235
g74
g75
ssg63
g3229
sg56
(lp3236
S'first_name'
p3237
asbag49
(g70
g51
NtRp3238
(dp3239
g54
(dp3240
g81
g82
ssg63
g3229
sg56
(lp3241
S':'
asbag49
(g70
g51
NtRp3242
(dp3243
g54
(dp3244
sg63
g3229
sg56
(lp3245
g49
(g50
g51
NtRp3246
(dp3247
g54
(dp3248
g62
I3
ssg63
g3242
sg56
(lp3249
S'Oskari'
p3250
asbasbasbag49
(g65
g51
NtRp3251
(dp3252
g54
(dp3253
sg63
g3181
sg56
(lp3254
g49
(g70
g51
NtRp3255
(dp3256
g54
(dp3257
g74
g75
ssg63
g3251
sg56
(lp3258
S'id'
p3259
asbag49
(g70
g51
NtRp3260
(dp3261
g54
(dp3262
g81
g82
ssg63
g3251
sg56
(lp3263
S':'
asbag49
(g70
g51
NtRp3264
(dp3265
g54
(dp3266
sg63
g3251
sg56
(lp3267
g49
(g50
g51
NtRp3268
(dp3269
g54
(dp3270
g62
I3
ssg63
g3264
sg56
(lp3271
S'1'
asbasbasbag49
(g65
g51
NtRp3272
(dp3273
g54
(dp3274
sg63
g3181
sg56
(lp3275
g49
(g70
g51
NtRp3276
(dp3277
g54
(dp3278
g74
g75
ssg63
g3272
sg56
(lp3279
S'last_name'
p3280
asbag49
(g70
g51
NtRp3281
(dp3282
g54
(dp3283
g81
g82
ssg63
g3272
sg56
(lp3284
S':'
asbag49
(g70
g51
NtRp3285
(dp3286
g54
(dp3287
sg63
g3272
sg56
(lp3288
g49
(g50
g51
NtRp3289
(dp3290
g54
(dp3291
g62
I3
ssg63
g3285
sg56
(lp3292
S'Petas'
p3293
asbasbasbag49
(g65
g51
NtRp3294
(dp3295
g54
(dp3296
sg63
g3181
sg56
(lp3297
g49
(g70
g51
NtRp3298
(dp3299
g54
(dp3300
g74
g75
ssg63
g3294
sg56
(lp3301
S'password'
p3302
asbag49
(g70
g51
NtRp3303
(dp3304
g54
(dp3305
g81
g82
ssg63
g3294
sg56
(lp3306
S':'
asbag49
(g70
g51
NtRp3307
(dp3308
g54
(dp3309
sg63
g3294
sg56
(lp3310
g49
(g50
g51
NtRp3311
(dp3312
g54
(dp3313
g62
I3
ssg63
g3307
sg56
(lp3314
S'b11d7fe42f4ed95554a3bb1f580d7880'
p3315
asbasbasbag49
(g65
g51
NtRp3316
(dp3317
g54
(dp3318
sg63
g3181
sg56
(lp3319
g49
(g70
g51
NtRp3320
(dp3321
g54
(dp3322
g74
g75
ssg63
g3316
sg56
(lp3323
S'registration_id'
p3324
asbag49
(g70
g51
NtRp3325
(dp3326
g54
(dp3327
g81
g82
ssg63
g3316
sg56
(lp3328
S':'
asbag49
(g70
g51
NtRp3329
(dp3330
g54
(dp3331
sg63
g3316
sg56
(lp3332
g49
(g50
g51
NtRp3333
(dp3334
g54
(dp3335
g62
I3
ssg63
g3329
sg56
(lp3336
S''
asbasbasbag49
(g65
g51
NtRp3337
(dp3338
g54
(dp3339
sg63
g3181
sg56
(lp3340
g49
(g70
g51
NtRp3341
(dp3342
g54
(dp3343
g74
g75
ssg63
g3337
sg56
(lp3344
S'registration_key'
p3345
asbag49
(g70
g51
NtRp3346
(dp3347
g54
(dp3348
g81
g82
ssg63
g3337
sg56
(lp3349
S':'
asbag49
(g70
g51
NtRp3350
(dp3351
g54
(dp3352
sg63
g3337
sg56
(lp3353
g49
(g50
g51
NtRp3354
(dp3355
g54
(dp3356
g62
I3
ssg63
g3350
sg56
(lp3357
S''
asbasbasbag49
(g65
g51
NtRp3358
(dp3359
g54
(dp3360
sg63
g3181
sg56
(lp3361
g49
(g70
g51
NtRp3362
(dp3363
g54
(dp3364
g74
g75
ssg63
g3358
sg56
(lp3365
S'representation'
p3366
asbag49
(g70
g51
NtRp3367
(dp3368
g54
(dp3369
g81
g82
ssg63
g3358
sg56
(lp3370
S':'
asbag49
(g70
g51
NtRp3371
(dp3372
g54
(dp3373
sg63
g3358
sg56
(lp3374
g49
(g50
g51
NtRp3375
(dp3376
g54
(dp3377
g62
I3
ssg63
g3371
sg56
(lp3378
S'AS'
p3379
asbasbasbag49
(g65
g51
NtRp3380
(dp3381
g54
(dp3382
sg63
g3181
sg56
(lp3383
g49
(g70
g51
NtRp3384
(dp3385
g54
(dp3386
g74
g75
ssg63
g3380
sg56
(lp3387
S'reset_password_key'
p3388
asbag49
(g70
g51
NtRp3389
(dp3390
g54
(dp3391
g81
g82
ssg63
g3380
sg56
(lp3392
S':'
asbag49
(g70
g51
NtRp3393
(dp3394
g54
(dp3395
sg63
g3380
sg56
(lp3396
g49
(g50
g51
NtRp3397
(dp3398
g54
(dp3399
g62
I3
ssg63
g3393
sg56
(lp3400
S''
asbasbasbasbasbasbasbag49
(g65
g51
NtRp3401
(dp3402
g54
(dp3403
sg63
g3090
sg56
(lp3404
g49
(g70
g51
NtRp3405
(dp3406
g54
(dp3407
g74
g75
ssg63
g3401
sg56
(lp3408
S'user_groups'
p3409
asbag49
(g70
g51
NtRp3410
(dp3411
g54
(dp3412
g81
g82
ssg63
g3401
sg56
(lp3413
S':'
asbag49
(g70
g51
NtRp3414
(dp3415
g54
(dp3416
sg63
g3401
sg56
(lp3417
g49
(g50
g51
NtRp3418
(dp3419
g54
(dp3420
g62
I4
ssg63
g3414
sg56
(lp3421
g49
(g58
g51
NtRp3422
(dp3423
g54
(dp3424
g62
I3
ssg63
Nsg56
(lp3425
g49
(g65
g51
NtRp3426
(dp3427
g54
(dp3428
sg63
g3422
sg56
(lp3429
g49
(g70
g51
NtRp3430
(dp3431
g54
(dp3432
g74
g75
ssg63
g3426
sg56
(lp3433
S'1'
asbag49
(g70
g51
NtRp3434
(dp3435
g54
(dp3436
g81
g82
ssg63
g3426
sg56
(lp3437
S':'
asbag49
(g70
g51
NtRp3438
(dp3439
g54
(dp3440
sg63
g3426
sg56
(lp3441
g49
(g50
g51
NtRp3442
(dp3443
g54
(dp3444
g62
I3
ssg63
g3438
sg56
(lp3445
S'user_1'
p3446
asbasbasbasbasbasbasbasbasbasbasbasbasbsS'etype'
p3447
S"<type 'exceptions.TypeError'>"
p3448
sS'date'
p3449
S'Fri Jul 06 23:12:48 2012'
p3450
sS'response'
p3451
g49
(g50
g51
NtRp3452
(dp3453
g54
(dp3454
sg56
(lp3455
g49
(g58
g51
NtRp3456
(dp3457
g54
(dp3458
g62
I5
ssg63
Nsg56
(lp3459
g49
(g65
g51
NtRp3460
(dp3461
g54
(dp3462
sg63
g3456
sg56
(lp3463
g49
(g70
g51
NtRp3464
(dp3465
g54
(dp3466
g74
g75
ssg63
g3460
sg56
(lp3467
g159
asbag49
(g70
g51
NtRp3468
(dp3469
g54
(dp3470
g81
g82
ssg63
g3460
sg56
(lp3471
S':'
asbag49
(g70
g51
NtRp3472
(dp3473
g54
(dp3474
sg63
g3460
sg56
(lp3475
g49
(g50
g51
NtRp3476
(dp3477
g54
(dp3478
g62
I5
ssg63
g3472
sg56
(lp3479
S'<cStringIO.StringO object at 0x04E275C0>'
p3480
asbasbasbag49
(g65
g51
NtRp3481
(dp3482
g54
(dp3483
sg63
g3456
sg56
(lp3484
g49
(g70
g51
NtRp3485
(dp3486
g54
(dp3487
g74
g75
ssg63
g3481
sg56
(lp3488
g225
asbag49
(g70
g51
NtRp3489
(dp3490
g54
(dp3491
g81
g82
ssg63
g3481
sg56
(lp3492
S':'
asbag49
(g70
g51
NtRp3493
(dp3494
g54
(dp3495
sg63
g3481
sg56
(lp3496
g49
(g50
g51
NtRp3497
(dp3498
g54
(dp3499
g62
I5
ssg63
g3493
sg56
(lp3500
g49
(g58
g51
NtRp3501
(dp3502
g54
(dp3503
g62
I4
ssg63
Nsg56
(lp3504
g49
(g65
g51
NtRp3505
(dp3506
g54
(dp3507
sg63
g3501
sg56
(lp3508
g49
(g70
g51
NtRp3509
(dp3510
g54
(dp3511
g74
g75
ssg63
g3505
sg56
(lp3512
S'session_id_sitsit'
p3513
asbag49
(g70
g51
NtRp3514
(dp3515
g54
(dp3516
g81
g82
ssg63
g3505
sg56
(lp3517
S':'
asbag49
(g70
g51
NtRp3518
(dp3519
g54
(dp3520
sg63
g3505
sg56
(lp3521
g49
(g50
g51
NtRp3522
(dp3523
g54
(dp3524
g62
I4
ssg63
g3518
sg56
(lp3525
g49
(g58
g51
NtRp3526
(dp3527
g54
(dp3528
g62
I3
ssg63
Nsg56
(lp3529
g49
(g65
g51
NtRp3530
(dp3531
g54
(dp3532
sg63
g3526
sg56
(lp3533
g49
(g70
g51
NtRp3534
(dp3535
g54
(dp3536
g74
g75
ssg63
g3530
sg56
(lp3537
g275
asbag49
(g70
g51
NtRp3538
(dp3539
g54
(dp3540
g81
g82
ssg63
g3530
sg56
(lp3541
S':'
asbag49
(g70
g51
NtRp3542
(dp3543
g54
(dp3544
sg63
g3530
sg56
(lp3545
g49
(g50
g51
NtRp3546
(dp3547
g54
(dp3548
g62
I3
ssg63
g3542
sg56
(lp3549
S''
asbasbasbag49
(g65
g51
NtRp3550
(dp3551
g54
(dp3552
sg63
g3526
sg56
(lp3553
g49
(g70
g51
NtRp3554
(dp3555
g54
(dp3556
g74
g75
ssg63
g3550
sg56
(lp3557
g296
asbag49
(g70
g51
NtRp3558
(dp3559
g54
(dp3560
g81
g82
ssg63
g3550
sg56
(lp3561
S':'
asbag49
(g70
g51
NtRp3562
(dp3563
g54
(dp3564
sg63
g3550
sg56
(lp3565
g49
(g50
g51
NtRp3566
(dp3567
g54
(dp3568
g62
I3
ssg63
g3562
sg56
(lp3569
S''
asbasbasbag49
(g65
g51
NtRp3570
(dp3571
g54
(dp3572
sg63
g3526
sg56
(lp3573
g49
(g70
g51
NtRp3574
(dp3575
g54
(dp3576
g74
g75
ssg63
g3570
sg56
(lp3577
g317
asbag49
(g70
g51
NtRp3578
(dp3579
g54
(dp3580
g81
g82
ssg63
g3570
sg56
(lp3581
S':'
asbag49
(g70
g51
NtRp3582
(dp3583
g54
(dp3584
sg63
g3570
sg56
(lp3585
g49
(g50
g51
NtRp3586
(dp3587
g54
(dp3588
g62
I3
ssg63
g3582
sg56
(lp3589
S''
asbasbasbag49
(g65
g51
NtRp3590
(dp3591
g54
(dp3592
sg63
g3526
sg56
(lp3593
g49
(g70
g51
NtRp3594
(dp3595
g54
(dp3596
g74
g75
ssg63
g3590
sg56
(lp3597
g338
asbag49
(g70
g51
NtRp3598
(dp3599
g54
(dp3600
g81
g82
ssg63
g3590
sg56
(lp3601
S':'
asbag49
(g70
g51
NtRp3602
(dp3603
g54
(dp3604
sg63
g3590
sg56
(lp3605
g49
(g50
g51
NtRp3606
(dp3607
g54
(dp3608
g62
I3
ssg63
g3602
sg56
(lp3609
S''
asbasbasbag49
(g65
g51
NtRp3610
(dp3611
g54
(dp3612
sg63
g3526
sg56
(lp3613
g49
(g70
g51
NtRp3614
(dp3615
g54
(dp3616
g74
g75
ssg63
g3610
sg56
(lp3617
g359
asbag49
(g70
g51
NtRp3618
(dp3619
g54
(dp3620
g81
g82
ssg63
g3610
sg56
(lp3621
S':'
asbag49
(g70
g51
NtRp3622
(dp3623
g54
(dp3624
sg63
g3610
sg56
(lp3625
g49
(g50
g51
NtRp3626
(dp3627
g54
(dp3628
g62
I3
ssg63
g3622
sg56
(lp3629
S'/'
asbasbasbag49
(g65
g51
NtRp3630
(dp3631
g54
(dp3632
sg63
g3526
sg56
(lp3633
g49
(g70
g51
NtRp3634
(dp3635
g54
(dp3636
g74
g75
ssg63
g3630
sg56
(lp3637
g380
asbag49
(g70
g51
NtRp3638
(dp3639
g54
(dp3640
g81
g82
ssg63
g3630
sg56
(lp3641
S':'
asbag49
(g70
g51
NtRp3642
(dp3643
g54
(dp3644
sg63
g3630
sg56
(lp3645
g49
(g50
g51
NtRp3646
(dp3647
g54
(dp3648
g62
I3
ssg63
g3642
sg56
(lp3649
S''
asbasbasbag49
(g65
g51
NtRp3650
(dp3651
g54
(dp3652
sg63
g3526
sg56
(lp3653
g49
(g70
g51
NtRp3654
(dp3655
g54
(dp3656
g74
g75
ssg63
g3650
sg56
(lp3657
g401
asbag49
(g70
g51
NtRp3658
(dp3659
g54
(dp3660
g81
g82
ssg63
g3650
sg56
(lp3661
S':'
asbag49
(g70
g51
NtRp3662
(dp3663
g54
(dp3664
sg63
g3650
sg56
(lp3665
g49
(g50
g51
NtRp3666
(dp3667
g54
(dp3668
g62
I3
ssg63
g3662
sg56
(lp3669
S''
asbasbasbasbasbasbasbasbasbasbasbag49
(g65
g51
NtRp3670
(dp3671
g54
(dp3672
sg63
g3456
sg56
(lp3673
g49
(g70
g51
NtRp3674
(dp3675
g54
(dp3676
g74
g75
ssg63
g3670
sg56
(lp3677
S'delimiters'
p3678
asbag49
(g70
g51
NtRp3679
(dp3680
g54
(dp3681
g81
g82
ssg63
g3670
sg56
(lp3682
S':'
asbag49
(g70
g51
NtRp3683
(dp3684
g54
(dp3685
sg63
g3670
sg56
(lp3686
g49
(g50
g51
NtRp3687
(dp3688
g54
(dp3689
g62
I5
ssg63
g3683
sg56
(lp3690
g49
(g58
g51
NtRp3691
(dp3692
g54
(dp3693
g62
I4
ssg63
Nsg56
(lp3694
g49
(g65
g51
NtRp3695
(dp3696
g54
(dp3697
sg63
g3691
sg56
(lp3698
g49
(g70
g51
NtRp3699
(dp3700
g54
(dp3701
sg63
g3695
sg56
(lp3702
g49
(g50
g51
NtRp3703
(dp3704
g54
(dp3705
g62
I4
ssg63
g3699
sg56
(lp3706
S'{{'
p3707
asbasbasbag49
(g65
g51
NtRp3708
(dp3709
g54
(dp3710
sg63
g3691
sg56
(lp3711
g49
(g70
g51
NtRp3712
(dp3713
g54
(dp3714
sg63
g3708
sg56
(lp3715
g49
(g50
g51
NtRp3716
(dp3717
g54
(dp3718
g62
I4
ssg63
g3712
sg56
(lp3719
S'}}'
p3720
asbasbasbasbasbasbasbag49
(g65
g51
NtRp3721
(dp3722
g54
(dp3723
sg63
g3456
sg56
(lp3724
g49
(g70
g51
NtRp3725
(dp3726
g54
(dp3727
g74
g75
ssg63
g3721
sg56
(lp3728
S'files'
p3729
asbag49
(g70
g51
NtRp3730
(dp3731
g54
(dp3732
g81
g82
ssg63
g3721
sg56
(lp3733
S':'
asbag49
(g70
g51
NtRp3734
(dp3735
g54
(dp3736
sg63
g3721
sg56
(lp3737
g49
(g50
g51
NtRp3738
(dp3739
g54
(dp3740
g62
I5
ssg63
g3734
sg56
(lp3741
g49
(g58
g51
NtRp3742
(dp3743
g54
(dp3744
g62
I4
ssg63
Nsg56
(lp3745
sbasbasbasbag49
(g65
g51
NtRp3746
(dp3747
g54
(dp3748
sg63
g3456
sg56
(lp3749
g49
(g70
g51
NtRp3750
(dp3751
g54
(dp3752
g74
g75
ssg63
g3746
sg56
(lp3753
S'flash'
p3754
asbag49
(g70
g51
NtRp3755
(dp3756
g54
(dp3757
g81
g82
ssg63
g3746
sg56
(lp3758
S':'
asbag49
(g70
g51
NtRp3759
(dp3760
g54
(dp3761
sg63
g3746
sg56
(lp3762
g49
(g50
g51
NtRp3763
(dp3764
g54
(dp3765
g62
I5
ssg63
g3759
sg56
(lp3766
S''
asbasbasbag49
(g65
g51
NtRp3767
(dp3768
g54
(dp3769
sg63
g3456
sg56
(lp3770
g49
(g70
g51
NtRp3771
(dp3772
g54
(dp3773
g74
g75
ssg63
g3767
sg56
(lp3774
S'generic_patterns'
p3775
asbag49
(g70
g51
NtRp3776
(dp3777
g54
(dp3778
g81
g82
ssg63
g3767
sg56
(lp3779
S':'
asbag49
(g70
g51
NtRp3780
(dp3781
g54
(dp3782
sg63
g3767
sg56
(lp3783
g49
(g50
g51
NtRp3784
(dp3785
g54
(dp3786
g62
I5
ssg63
g3780
sg56
(lp3787
g49
(g58
g51
NtRp3788
(dp3789
g54
(dp3790
g62
I4
ssg63
Nsg56
(lp3791
g49
(g65
g51
NtRp3792
(dp3793
g54
(dp3794
sg63
g3788
sg56
(lp3795
g49
(g70
g51
NtRp3796
(dp3797
g54
(dp3798
sg63
g3792
sg56
(lp3799
g49
(g50
g51
NtRp3800
(dp3801
g54
(dp3802
g62
I4
ssg63
g3796
sg56
(lp3803
S'*'
asbasbasbasbasbasbasbag49
(g65
g51
NtRp3804
(dp3805
g54
(dp3806
sg63
g3456
sg56
(lp3807
g49
(g70
g51
NtRp3808
(dp3809
g54
(dp3810
g74
g75
ssg63
g3804
sg56
(lp3811
S'headers'
p3812
asbag49
(g70
g51
NtRp3813
(dp3814
g54
(dp3815
g81
g82
ssg63
g3804
sg56
(lp3816
S':'
asbag49
(g70
g51
NtRp3817
(dp3818
g54
(dp3819
sg63
g3804
sg56
(lp3820
g49
(g50
g51
NtRp3821
(dp3822
g54
(dp3823
g62
I5
ssg63
g3817
sg56
(lp3824
g49
(g58
g51
NtRp3825
(dp3826
g54
(dp3827
g62
I4
ssg63
Nsg56
(lp3828
g49
(g65
g51
NtRp3829
(dp3830
g54
(dp3831
sg63
g3825
sg56
(lp3832
g49
(g70
g51
NtRp3833
(dp3834
g54
(dp3835
g74
g75
ssg63
g3829
sg56
(lp3836
S'Cache-Control'
p3837
asbag49
(g70
g51
NtRp3838
(dp3839
g54
(dp3840
g81
g82
ssg63
g3829
sg56
(lp3841
S':'
asbag49
(g70
g51
NtRp3842
(dp3843
g54
(dp3844
sg63
g3829
sg56
(lp3845
g49
(g50
g51
NtRp3846
(dp3847
g54
(dp3848
g62
I4
ssg63
g3842
sg56
(lp3849
S'no-store, no-cache, must-revalidate, post-check=0, pre-check=0'
p3850
asbasbasbag49
(g65
g51
NtRp3851
(dp3852
g54
(dp3853
sg63
g3825
sg56
(lp3854
g49
(g70
g51
NtRp3855
(dp3856
g54
(dp3857
g74
g75
ssg63
g3851
sg56
(lp3858
S'Content-Type'
p3859
asbag49
(g70
g51
NtRp3860
(dp3861
g54
(dp3862
g81
g82
ssg63
g3851
sg56
(lp3863
S':'
asbag49
(g70
g51
NtRp3864
(dp3865
g54
(dp3866
sg63
g3851
sg56
(lp3867
g49
(g50
g51
NtRp3868
(dp3869
g54
(dp3870
g62
I4
ssg63
g3864
sg56
(lp3871
S'text/html; charset=utf-8'
p3872
asbasbasbag49
(g65
g51
NtRp3873
(dp3874
g54
(dp3875
sg63
g3825
sg56
(lp3876
g49
(g70
g51
NtRp3877
(dp3878
g54
(dp3879
g74
g75
ssg63
g3873
sg56
(lp3880
S'Expires'
p3881
asbag49
(g70
g51
NtRp3882
(dp3883
g54
(dp3884
g81
g82
ssg63
g3873
sg56
(lp3885
S':'
asbag49
(g70
g51
NtRp3886
(dp3887
g54
(dp3888
sg63
g3873
sg56
(lp3889
g49
(g50
g51
NtRp3890
(dp3891
g54
(dp3892
g62
I4
ssg63
g3886
sg56
(lp3893
S'Fri, 06 Jul 2012 21:12:48 GMT'
p3894
asbasbasbag49
(g65
g51
NtRp3895
(dp3896
g54
(dp3897
sg63
g3825
sg56
(lp3898
g49
(g70
g51
NtRp3899
(dp3900
g54
(dp3901
g74
g75
ssg63
g3895
sg56
(lp3902
S'Pragma'
p3903
asbag49
(g70
g51
NtRp3904
(dp3905
g54
(dp3906
g81
g82
ssg63
g3895
sg56
(lp3907
S':'
asbag49
(g70
g51
NtRp3908
(dp3909
g54
(dp3910
sg63
g3895
sg56
(lp3911
g49
(g50
g51
NtRp3912
(dp3913
g54
(dp3914
g62
I4
ssg63
g3908
sg56
(lp3915
S'no-cache'
p3916
asbasbasbag49
(g65
g51
NtRp3917
(dp3918
g54
(dp3919
sg63
g3825
sg56
(lp3920
g49
(g70
g51
NtRp3921
(dp3922
g54
(dp3923
g74
g75
ssg63
g3917
sg56
(lp3924
S'X-Powered-By'
p3925
asbag49
(g70
g51
NtRp3926
(dp3927
g54
(dp3928
g81
g82
ssg63
g3917
sg56
(lp3929
S':'
asbag49
(g70
g51
NtRp3930
(dp3931
g54
(dp3932
sg63
g3917
sg56
(lp3933
g49
(g50
g51
NtRp3934
(dp3935
g54
(dp3936
g62
I4
ssg63
g3930
sg56
(lp3937
S'web2py'
p3938
asbasbasbasbasbasbasbag49
(g65
g51
NtRp3939
(dp3940
g54
(dp3941
sg63
g3456
sg56
(lp3942
g49
(g70
g51
NtRp3943
(dp3944
g54
(dp3945
g74
g75
ssg63
g3939
sg56
(lp3946
S'menu'
p3947
asbag49
(g70
g51
NtRp3948
(dp3949
g54
(dp3950
g81
g82
ssg63
g3939
sg56
(lp3951
S':'
asbag49
(g70
g51
NtRp3952
(dp3953
g54
(dp3954
sg63
g3939
sg56
(lp3955
g49
(g50
g51
NtRp3956
(dp3957
g54
(dp3958
g62
I5
ssg63
g3952
sg56
(lp3959
g49
(g58
g51
NtRp3960
(dp3961
g54
(dp3962
g62
I4
ssg63
Nsg56
(lp3963
g49
(g65
g51
NtRp3964
(dp3965
g54
(dp3966
sg63
g3960
sg56
(lp3967
g49
(g70
g51
NtRp3968
(dp3969
g54
(dp3970
sg63
g3964
sg56
(lp3971
g49
(g50
g51
NtRp3972
(dp3973
g54
(dp3974
g62
I4
ssg63
g3968
sg56
(lp3975
g49
(g58
g51
NtRp3976
(dp3977
g54
(dp3978
g62
I3
ssg63
Nsg56
(lp3979
g49
(g65
g51
NtRp3980
(dp3981
g54
(dp3982
sg63
g3976
sg56
(lp3983
g49
(g70
g51
NtRp3984
(dp3985
g54
(dp3986
sg63
g3980
sg56
(lp3987
g49
(g50
g51
NtRp3988
(dp3989
g54
(dp3990
g62
I3
ssg63
g3984
sg56
(lp3991
cgluon.languages
lazyT_unpickle
p3992
(S's\x04\x00\x00\x00Home'
tRp3993
asbasbasbag49
(g65
g51
NtRp3994
(dp3995
g54
(dp3996
sg63
g3976
sg56
(lp3997
g49
(g70
g51
NtRp3998
(dp3999
g54
(dp4000
sg63
g3994
sg56
(lp4001
g49
(g50
g51
NtRp4002
(dp4003
g54
(dp4004
g62
I3
ssg63
g3998
sg56
(lp4005
g92
asbasbasbag49
(g65
g51
NtRp4006
(dp4007
g54
(dp4008
sg63
g3976
sg56
(lp4009
g49
(g70
g51
NtRp4010
(dp4011
g54
(dp4012
sg63
g4006
sg56
(lp4013
g49
(g50
g51
NtRp4014
(dp4015
g54
(dp4016
g62
I3
ssg63
g4010
sg56
(lp4017
S'/sitsit/default/index'
p4018
asbasbasbag49
(g65
g51
NtRp4019
(dp4020
g54
(dp4021
sg63
g3976
sg56
(lp4022
g49
(g70
g51
NtRp4023
(dp4024
g54
(dp4025
sg63
g4019
sg56
(lp4026
g49
(g50
g51
NtRp4027
(dp4028
g54
(dp4029
g62
I3
ssg63
g4023
sg56
(lp4030
g49
(g58
g51
NtRp4031
(dp4032
g54
(dp4033
g62
I2
ssg63
Nsg56
(lp4034
sbasbasbasbasbasbasbasbag49
(g65
g51
NtRp4035
(dp4036
g54
(dp4037
sg63
g3960
sg56
(lp4038
g49
(g70
g51
NtRp4039
(dp4040
g54
(dp4041
sg63
g4035
sg56
(lp4042
g49
(g50
g51
NtRp4043
(dp4044
g54
(dp4045
g62
I4
ssg63
g4039
sg56
(lp4046
g49
(g58
g51
NtRp4047
(dp4048
g54
(dp4049
g62
I3
ssg63
Nsg56
(lp4050
g49
(g65
g51
NtRp4051
(dp4052
g54
(dp4053
sg63
g4047
sg56
(lp4054
g49
(g70
g51
NtRp4055
(dp4056
g54
(dp4057
sg63
g4051
sg56
(lp4058
g49
(g50
g51
NtRp4059
(dp4060
g54
(dp4061
g62
I3
ssg63
g4055
sg56
(lp4062
g49
(cgluon.html
SPAN
p4063
g51
NtRp4064
(dp4065
g54
(dp4066
g74
S'color:yellow'
p4067
ssg63
Nsg56
(lp4068
g3938
asbasbasbasbag49
(g65
g51
NtRp4069
(dp4070
g54
(dp4071
sg63
g4047
sg56
(lp4072
g49
(g70
g51
NtRp4073
(dp4074
g54
(dp4075
sg63
g4069
sg56
(lp4076
g49
(g50
g51
NtRp4077
(dp4078
g54
(dp4079
g62
I3
ssg63
g4073
sg56
(lp4080
g92
asbasbasbag49
(g65
g51
NtRp4081
(dp4082
g54
(dp4083
sg63
g4047
sg56
(lp4084
g49
(g70
g51
NtRp4085
(dp4086
g54
(dp4087
sg63
g4081
sg56
(lp4088
g49
(g50
g51
NtRp4089
(dp4090
g54
(dp4091
g62
I3
ssg63
g4085
sg56
(lp4092
S'None'
p4093
asbasbasbag49
(g65
g51
NtRp4094
(dp4095
g54
(dp4096
sg63
g4047
sg56
(lp4097
g49
(g70
g51
NtRp4098
(dp4099
g54
(dp4100
sg63
g4094
sg56
(lp4101
g49
(g50
g51
NtRp4102
(dp4103
g54
(dp4104
g62
I3
ssg63
g4098
sg56
(lp4105
g49
(g58
g51
NtRp4106
(dp4107
g54
(dp4108
g62
I2
ssg63
Nsg56
(lp4109
g49
(g65
g51
NtRp4110
(dp4111
g54
(dp4112
sg63
g4106
sg56
(lp4113
g49
(g70
g51
NtRp4114
(dp4115
g54
(dp4116
sg63
g4110
sg56
(lp4117
g49
(g50
g51
NtRp4118
(dp4119
g54
(dp4120
g62
I2
ssg63
g4114
sg56
(lp4121
g49
(g58
g51
NtRp4122
(dp4123
g54
(dp4124
g62
I1
ssg63
Nsg56
(lp4125
g49
(g65
g51
NtRp4126
(dp4127
g54
(dp4128
sg63
g4122
sg56
(lp4129
g49
(g70
g51
NtRp4130
(dp4131
g54
(dp4132
sg63
g4126
sg56
(lp4133
g49
(g50
g51
NtRp4134
(dp4135
g54
(dp4136
g62
I1
ssg63
g4130
sg56
(lp4137
g3992
(S's\x08\x00\x00\x00My Sites'
tRp4138
asbasbasbag49
(g65
g51
NtRp4139
(dp4140
g54
(dp4141
sg63
g4122
sg56
(lp4142
g49
(g70
g51
NtRp4143
(dp4144
g54
(dp4145
sg63
g4139
sg56
(lp4146
g49
(g50
g51
NtRp4147
(dp4148
g54
(dp4149
g62
I1
ssg63
g4143
sg56
(lp4150
I00
asbasbasbag49
(g65
g51
NtRp4151
(dp4152
g54
(dp4153
sg63
g4122
sg56
(lp4154
g49
(g70
g51
NtRp4155
(dp4156
g54
(dp4157
sg63
g4151
sg56
(lp4158
g49
(g50
g51
NtRp4159
(dp4160
g54
(dp4161
g62
I1
ssg63
g4155
sg56
(lp4162
S'/admin/default/site'
p4163
asbasbasbasbasbasbasbag49
(g65
g51
NtRp4164
(dp4165
g54
(dp4166
sg63
g4106
sg56
(lp4167
g49
(g70
g51
NtRp4168
(dp4169
g54
(dp4170
sg63
g4164
sg56
(lp4171
g49
(g50
g51
NtRp4172
(dp4173
g54
(dp4174
g62
I2
ssg63
g4168
sg56
(lp4175
g49
(g58
g51
NtRp4176
(dp4177
g54
(dp4178
g62
I1
ssg63
Nsg56
(lp4179
g49
(g65
g51
NtRp4180
(dp4181
g54
(dp4182
sg63
g4176
sg56
(lp4183
g49
(g70
g51
NtRp4184
(dp4185
g54
(dp4186
sg63
g4180
sg56
(lp4187
g49
(g50
g51
NtRp4188
(dp4189
g54
(dp4190
g62
I1
ssg63
g4184
sg56
(lp4191
g3992
(S's\x08\x00\x00\x00This App'
tRp4192
asbasbasbag49
(g65
g51
NtRp4193
(dp4194
g54
(dp4195
sg63
g4176
sg56
(lp4196
g49
(g70
g51
NtRp4197
(dp4198
g54
(dp4199
sg63
g4193
sg56
(lp4200
g49
(g50
g51
NtRp4201
(dp4202
g54
(dp4203
g62
I1
ssg63
g4197
sg56
(lp4204
I00
asbasbasbag49
(g65
g51
NtRp4205
(dp4206
g54
(dp4207
sg63
g4176
sg56
(lp4208
g49
(g70
g51
NtRp4209
(dp4210
g54
(dp4211
sg63
g4205
sg56
(lp4212
g49
(g50
g51
NtRp4213
(dp4214
g54
(dp4215
g62
I1
ssg63
g4209
sg56
(lp4216
S'/admin/default/design/sitsit'
p4217
asbasbasbag49
(g65
g51
NtRp4218
(dp4219
g54
(dp4220
sg63
g4176
sg56
(lp4221
g49
(g70
g51
NtRp4222
(dp4223
g54
(dp4224
sg63
g4218
sg56
(lp4225
g49
(g50
g51
NtRp4226
(dp4227
g54
(dp4228
g62
I1
ssg63
g4222
sg56
(lp4229
(lp4230
(g3992
(S's\n\x00\x00\x00Controller'
tRp4231
I00
S'/admin/default/edit/sitsit/controllers/default.py'
tp4232
a(g3992
(S's\x04\x00\x00\x00View'
tRp4233
I00
S'/admin/default/edit/sitsit/views/default/sitsit.html'
tp4234
a(g3992
(S's\x06\x00\x00\x00Layout'
tRp4235
I00
S'/admin/default/edit/sitsit/views/layout.html'
tp4236
a(g3992
(S's\n\x00\x00\x00Stylesheet'
tRp4237
I00
S'/admin/default/edit/sitsit/static/css/web2py.css'
tp4238
a(g3992
(S's\x08\x00\x00\x00DB Model'
tRp4239
I00
S'/admin/default/edit/sitsit/models/db.py'
tp4240
a(g3992
(S's\n\x00\x00\x00Menu Model'
tRp4241
I00
S'/admin/default/edit/sitsit/models/menu.py'
tp4242
a(g3992
(S's\x08\x00\x00\x00Database'
tRp4243
I00
S'/sitsit/appadmin/index'
tp4244
a(g3992
(S's\x06\x00\x00\x00Errors'
tRp4245
I00
S'/admin/default/errors/sitsit'
tp4246
a(g3992
(S's\x05\x00\x00\x00About'
tRp4247
I00
S'/admin/default/about/sitsit'
tp4248
aasbasbasbasbasbasbasbag49
(g65
g51
NtRp4249
(dp4250
g54
(dp4251
sg63
g4106
sg56
(lp4252
g49
(g70
g51
NtRp4253
(dp4254
g54
(dp4255
sg63
g4249
sg56
(lp4256
g49
(g50
g51
NtRp4257
(dp4258
g54
(dp4259
g62
I2
ssg63
g4253
sg56
(lp4260
g49
(g58
g51
NtRp4261
(dp4262
g54
(dp4263
g62
I1
ssg63
Nsg56
(lp4264
g49
(g65
g51
NtRp4265
(dp4266
g54
(dp4267
sg63
g4261
sg56
(lp4268
g49
(g70
g51
NtRp4269
(dp4270
g54
(dp4271
sg63
g4265
sg56
(lp4272
g49
(g50
g51
NtRp4273
(dp4274
g54
(dp4275
g62
I1
ssg63
g4269
sg56
(lp4276
S'web2py.com'
p4277
asbasbasbag49
(g65
g51
NtRp4278
(dp4279
g54
(dp4280
sg63
g4261
sg56
(lp4281
g49
(g70
g51
NtRp4282
(dp4283
g54
(dp4284
sg63
g4278
sg56
(lp4285
g49
(g50
g51
NtRp4286
(dp4287
g54
(dp4288
g62
I1
ssg63
g4282
sg56
(lp4289
I00
asbasbasbag49
(g65
g51
NtRp4290
(dp4291
g54
(dp4292
sg63
g4261
sg56
(lp4293
g49
(g70
g51
NtRp4294
(dp4295
g54
(dp4296
sg63
g4290
sg56
(lp4297
g49
(g50
g51
NtRp4298
(dp4299
g54
(dp4300
g62
I1
ssg63
g4294
sg56
(lp4301
S'http://www.web2py.com'
p4302
asbasbasbag49
(g65
g51
NtRp4303
(dp4304
g54
(dp4305
sg63
g4261
sg56
(lp4306
g49
(g70
g51
NtRp4307
(dp4308
g54
(dp4309
sg63
g4303
sg56
(lp4310
g49
(g50
g51
NtRp4311
(dp4312
g54
(dp4313
g62
I1
ssg63
g4307
sg56
(lp4314
(lp4315
(g3992
(S's\x08\x00\x00\x00Download'
tRp4316
I00
S'http://www.web2py.com/examples/default/download'
p4317
tp4318
a(g3992
(S's\x07\x00\x00\x00Support'
tRp4319
I00
S'http://www.web2py.com/examples/default/support'
p4320
tp4321
a(g3992
(S's\x04\x00\x00\x00Demo'
tRp4322
I00
S'http://web2py.com/demo_admin'
p4323
tp4324
a(g3992
(S's\x0e\x00\x00\x00Quick Examples'
tRp4325
I00
S'http://web2py.com/examples/default/examples'
p4326
tp4327
a(g3992
(S's\x03\x00\x00\x00FAQ'
tRp4328
I00
S'http://web2py.com/AlterEgo'
p4329
tp4330
a(g3992
(S's\x06\x00\x00\x00Videos'
tRp4331
I00
S'http://www.web2py.com/examples/default/videos/'
p4332
tp4333
a(g3992
(S's\x11\x00\x00\x00Free Applications'
tRp4334
I00
S'http://web2py.com/appliances'
p4335
tp4336
a(g3992
(S's\x07\x00\x00\x00Plugins'
tRp4337
I00
S'http://web2py.com/plugins'
p4338
tp4339
a(g3992
(S's\x07\x00\x00\x00Layouts'
tRp4340
I00
S'http://web2py.com/layouts'
p4341
tp4342
a(g3992
(S's\x07\x00\x00\x00Recipes'
tRp4343
I00
S'http://web2pyslices.com/'
p4344
tp4345
a(g3992
(S's\x08\x00\x00\x00Semantic'
tRp4346
I00
S'http://web2py.com/semantic'
p4347
tp4348
aasbasbasbasbasbasbasbag49
(g65
g51
NtRp4349
(dp4350
g54
(dp4351
sg63
g4106
sg56
(lp4352
g49
(g70
g51
NtRp4353
(dp4354
g54
(dp4355
sg63
g4349
sg56
(lp4356
g49
(g50
g51
NtRp4357
(dp4358
g54
(dp4359
g62
I2
ssg63
g4353
sg56
(lp4360
g49
(g58
g51
NtRp4361
(dp4362
g54
(dp4363
g62
I1
ssg63
Nsg56
(lp4364
g49
(g65
g51
NtRp4365
(dp4366
g54
(dp4367
sg63
g4361
sg56
(lp4368
g49
(g70
g51
NtRp4369
(dp4370
g54
(dp4371
sg63
g4365
sg56
(lp4372
g49
(g50
g51
NtRp4373
(dp4374
g54
(dp4375
g62
I1
ssg63
g4369
sg56
(lp4376
g3992
(S's\r\x00\x00\x00Documentation'
tRp4377
asbasbasbag49
(g65
g51
NtRp4378
(dp4379
g54
(dp4380
sg63
g4361
sg56
(lp4381
g49
(g70
g51
NtRp4382
(dp4383
g54
(dp4384
sg63
g4378
sg56
(lp4385
g49
(g50
g51
NtRp4386
(dp4387
g54
(dp4388
g62
I1
ssg63
g4382
sg56
(lp4389
I00
asbasbasbag49
(g65
g51
NtRp4390
(dp4391
g54
(dp4392
sg63
g4361
sg56
(lp4393
g49
(g70
g51
NtRp4394
(dp4395
g54
(dp4396
sg63
g4390
sg56
(lp4397
g49
(g50
g51
NtRp4398
(dp4399
g54
(dp4400
g62
I1
ssg63
g4394
sg56
(lp4401
S'http://www.web2py.com/book'
p4402
asbasbasbag49
(g65
g51
NtRp4403
(dp4404
g54
(dp4405
sg63
g4361
sg56
(lp4406
g49
(g70
g51
NtRp4407
(dp4408
g54
(dp4409
sg63
g4403
sg56
(lp4410
g49
(g50
g51
NtRp4411
(dp4412
g54
(dp4413
g62
I1
ssg63
g4407
sg56
(lp4414
(lp4415
(g3992
(S's\x07\x00\x00\x00Preface'
tRp4416
I00
S'http://www.web2py.com/book/default/chapter/00'
p4417
tp4418
a(g3992
(S's\x0c\x00\x00\x00Introduction'
tRp4419
I00
S'http://www.web2py.com/book/default/chapter/01'
p4420
tp4421
a(g3992
(S's\x06\x00\x00\x00Python'
tRp4422
I00
S'http://www.web2py.com/book/default/chapter/02'
p4423
tp4424
a(g3992
(S's\x08\x00\x00\x00Overview'
tRp4425
I00
S'http://www.web2py.com/book/default/chapter/03'
p4426
tp4427
a(g3992
(S's\x08\x00\x00\x00The Core'
tRp4428
I00
S'http://www.web2py.com/book/default/chapter/04'
p4429
tp4430
a(g3992
(S's\t\x00\x00\x00The Views'
tRp4431
I00
S'http://www.web2py.com/book/default/chapter/05'
p4432
tp4433
a(g3992
(S's\x08\x00\x00\x00Database'
tRp4434
I00
S'http://www.web2py.com/book/default/chapter/06'
p4435
tp4436
a(g3992
(S's\x14\x00\x00\x00Forms and Validators'
tRp4437
I00
S'http://www.web2py.com/book/default/chapter/07'
p4438
tp4439
a(g3992
(S's\r\x00\x00\x00Email and SMS'
tRp4440
I00
S'http://www.web2py.com/book/default/chapter/08'
p4441
tp4442
a(g3992
(S's\x0e\x00\x00\x00Access Control'
tRp4443
I00
S'http://www.web2py.com/book/default/chapter/09'
p4444
tp4445
a(g3992
(S's\x08\x00\x00\x00Services'
tRp4446
I00
S'http://www.web2py.com/book/default/chapter/10'
p4447
tp4448
a(g3992
(S's\x0c\x00\x00\x00Ajax Recipes'
tRp4449
I00
S'http://www.web2py.com/book/default/chapter/11'
p4450
tp4451
a(g3992
(S's\x16\x00\x00\x00Components and Plugins'
tRp4452
I00
S'http://www.web2py.com/book/default/chapter/12'
p4453
tp4454
a(g3992
(S's\x12\x00\x00\x00Deployment Recipes'
tRp4455
I00
S'http://www.web2py.com/book/default/chapter/13'
p4456
tp4457
a(g3992
(S's\r\x00\x00\x00Other Recipes'
tRp4458
I00
S'http://www.web2py.com/book/default/chapter/14'
p4459
tp4460
a(g3992
(S's\r\x00\x00\x00Buy this book'
tRp4461
I00
S'http://stores.lulu.com/web2py'
p4462
tp4463
aasbasbasbasbasbasbasbag49
(g65
g51
NtRp4464
(dp4465
g54
(dp4466
sg63
g4106
sg56
(lp4467
g49
(g70
g51
NtRp4468
(dp4469
g54
(dp4470
sg63
g4464
sg56
(lp4471
g49
(g50
g51
NtRp4472
(dp4473
g54
(dp4474
g62
I2
ssg63
g4468
sg56
(lp4475
g49
(g58
g51
NtRp4476
(dp4477
g54
(dp4478
g62
I1
ssg63
Nsg56
(lp4479
g49
(g65
g51
NtRp4480
(dp4481
g54
(dp4482
sg63
g4476
sg56
(lp4483
g49
(g70
g51
NtRp4484
(dp4485
g54
(dp4486
sg63
g4480
sg56
(lp4487
g49
(g50
g51
NtRp4488
(dp4489
g54
(dp4490
g62
I1
ssg63
g4484
sg56
(lp4491
g3992
(S's\t\x00\x00\x00Community'
tRp4492
asbasbasbag49
(g65
g51
NtRp4493
(dp4494
g54
(dp4495
sg63
g4476
sg56
(lp4496
g49
(g70
g51
NtRp4497
(dp4498
g54
(dp4499
sg63
g4493
sg56
(lp4500
g49
(g50
g51
NtRp4501
(dp4502
g54
(dp4503
g62
I1
ssg63
g4497
sg56
(lp4504
I00
asbasbasbag49
(g65
g51
NtRp4505
(dp4506
g54
(dp4507
sg63
g4476
sg56
(lp4508
g49
(g70
g51
NtRp4509
(dp4510
g54
(dp4511
sg63
g4505
sg56
(lp4512
g49
(g50
g51
NtRp4513
(dp4514
g54
(dp4515
g62
I1
ssg63
g4509
sg56
(lp4516
Nasbasbasbag49
(g65
g51
NtRp4517
(dp4518
g54
(dp4519
sg63
g4476
sg56
(lp4520
g49
(g70
g51
NtRp4521
(dp4522
g54
(dp4523
sg63
g4517
sg56
(lp4524
g49
(g50
g51
NtRp4525
(dp4526
g54
(dp4527
g62
I1
ssg63
g4521
sg56
(lp4528
(lp4529
(g3992
(S's\x06\x00\x00\x00Groups'
tRp4530
I00
S'http://www.web2py.com/examples/default/usergroups'
p4531
tp4532
a(g3992
(S's\x07\x00\x00\x00Twitter'
tRp4533
I00
S'http://twitter.com/web2py'
p4534
tp4535
a(g3992
(S's\t\x00\x00\x00Live Chat'
tRp4536
I00
S'http://webchat.freenode.net/?channels=web2py'
p4537
tp4538
aasbasbasbasbasbasbasbag49
(g65
g51
NtRp4539
(dp4540
g54
(dp4541
sg63
g4106
sg56
(lp4542
g49
(g70
g51
NtRp4543
(dp4544
g54
(dp4545
sg63
g4539
sg56
(lp4546
g49
(g50
g51
NtRp4547
(dp4548
g54
(dp4549
g62
I2
ssg63
g4543
sg56
(lp4550
g49
(g58
g51
NtRp4551
(dp4552
g54
(dp4553
g62
I1
ssg63
Nsg56
(lp4554
g49
(g65
g51
NtRp4555
(dp4556
g54
(dp4557
sg63
g4551
sg56
(lp4558
g49
(g70
g51
NtRp4559
(dp4560
g54
(dp4561
sg63
g4555
sg56
(lp4562
g49
(g50
g51
NtRp4563
(dp4564
g54
(dp4565
g62
I1
ssg63
g4559
sg56
(lp4566
g3992
(S's\x07\x00\x00\x00Plugins'
tRp4567
asbasbasbag49
(g65
g51
NtRp4568
(dp4569
g54
(dp4570
sg63
g4551
sg56
(lp4571
g49
(g70
g51
NtRp4572
(dp4573
g54
(dp4574
sg63
g4568
sg56
(lp4575
g49
(g50
g51
NtRp4576
(dp4577
g54
(dp4578
g62
I1
ssg63
g4572
sg56
(lp4579
I00
asbasbasbag49
(g65
g51
NtRp4580
(dp4581
g54
(dp4582
sg63
g4551
sg56
(lp4583
g49
(g70
g51
NtRp4584
(dp4585
g54
(dp4586
sg63
g4580
sg56
(lp4587
g49
(g50
g51
NtRp4588
(dp4589
g54
(dp4590
g62
I1
ssg63
g4584
sg56
(lp4591
Nasbasbasbag49
(g65
g51
NtRp4592
(dp4593
g54
(dp4594
sg63
g4551
sg56
(lp4595
g49
(g70
g51
NtRp4596
(dp4597
g54
(dp4598
sg63
g4592
sg56
(lp4599
g49
(g50
g51
NtRp4600
(dp4601
g54
(dp4602
g62
I1
ssg63
g4596
sg56
(lp4603
(lp4604
(S'plugin_wiki'
p4605
I00
S'http://web2py.com/examples/default/download'
p4606
tp4607
a(g3992
(S's\r\x00\x00\x00Other Plugins'
tRp4608
I00
g4338
tp4609
a(g3992
(S's\x0e\x00\x00\x00Layout Plugins'
tRp4610
I00
g4341
tp4611
aasbasbasbasbasbasbasbasbasbasbasbasbasbasbasbasbasbasbasbag49
(g65
g51
NtRp4612
(dp4613
g54
(dp4614
sg63
g3456
sg56
(lp4615
g49
(g70
g51
NtRp4616
(dp4617
g54
(dp4618
g74
g75
ssg63
g4612
sg56
(lp4619
S'meta'
p4620
asbag49
(g70
g51
NtRp4621
(dp4622
g54
(dp4623
g81
g82
ssg63
g4612
sg56
(lp4624
S':'
asbag49
(g70
g51
NtRp4625
(dp4626
g54
(dp4627
sg63
g4612
sg56
(lp4628
g49
(g50
g51
NtRp4629
(dp4630
g54
(dp4631
g62
I5
ssg63
g4625
sg56
(lp4632
g49
(g58
g51
NtRp4633
(dp4634
g54
(dp4635
g62
I4
ssg63
Nsg56
(lp4636
g49
(g65
g51
NtRp4637
(dp4638
g54
(dp4639
sg63
g4633
sg56
(lp4640
g49
(g70
g51
NtRp4641
(dp4642
g54
(dp4643
g74
g75
ssg63
g4637
sg56
(lp4644
S'author'
p4645
asbag49
(g70
g51
NtRp4646
(dp4647
g54
(dp4648
g81
g82
ssg63
g4637
sg56
(lp4649
S':'
asbag49
(g70
g51
NtRp4650
(dp4651
g54
(dp4652
sg63
g4637
sg56
(lp4653
g49
(g50
g51
NtRp4654
(dp4655
g54
(dp4656
g62
I4
ssg63
g4650
sg56
(lp4657
S'Your Name <you@example.com>'
p4658
asbasbasbag49
(g65
g51
NtRp4659
(dp4660
g54
(dp4661
sg63
g4633
sg56
(lp4662
g49
(g70
g51
NtRp4663
(dp4664
g54
(dp4665
g74
g75
ssg63
g4659
sg56
(lp4666
S'copyright'
p4667
asbag49
(g70
g51
NtRp4668
(dp4669
g54
(dp4670
g81
g82
ssg63
g4659
sg56
(lp4671
S':'
asbag49
(g70
g51
NtRp4672
(dp4673
g54
(dp4674
sg63
g4659
sg56
(lp4675
g49
(g50
g51
NtRp4676
(dp4677
g54
(dp4678
g62
I4
ssg63
g4672
sg56
(lp4679
S'Copyright 2011'
p4680
asbasbasbag49
(g65
g51
NtRp4681
(dp4682
g54
(dp4683
sg63
g4633
sg56
(lp4684
g49
(g70
g51
NtRp4685
(dp4686
g54
(dp4687
g74
g75
ssg63
g4681
sg56
(lp4688
S'description'
p4689
asbag49
(g70
g51
NtRp4690
(dp4691
g54
(dp4692
g81
g82
ssg63
g4681
sg56
(lp4693
S':'
asbag49
(g70
g51
NtRp4694
(dp4695
g54
(dp4696
sg63
g4681
sg56
(lp4697
g49
(g50
g51
NtRp4698
(dp4699
g54
(dp4700
g62
I4
ssg63
g4694
sg56
(lp4701
S'a cool new app'
p4702
asbasbasbag49
(g65
g51
NtRp4703
(dp4704
g54
(dp4705
sg63
g4633
sg56
(lp4706
g49
(g70
g51
NtRp4707
(dp4708
g54
(dp4709
g74
g75
ssg63
g4703
sg56
(lp4710
S'generator'
p4711
asbag49
(g70
g51
NtRp4712
(dp4713
g54
(dp4714
g81
g82
ssg63
g4703
sg56
(lp4715
S':'
asbag49
(g70
g51
NtRp4716
(dp4717
g54
(dp4718
sg63
g4703
sg56
(lp4719
g49
(g50
g51
NtRp4720
(dp4721
g54
(dp4722
g62
I4
ssg63
g4716
sg56
(lp4723
S'Web2py Web Framework'
p4724
asbasbasbag49
(g65
g51
NtRp4725
(dp4726
g54
(dp4727
sg63
g4633
sg56
(lp4728
g49
(g70
g51
NtRp4729
(dp4730
g54
(dp4731
g74
g75
ssg63
g4725
sg56
(lp4732
S'keywords'
p4733
asbag49
(g70
g51
NtRp4734
(dp4735
g54
(dp4736
g81
g82
ssg63
g4725
sg56
(lp4737
S':'
asbag49
(g70
g51
NtRp4738
(dp4739
g54
(dp4740
sg63
g4725
sg56
(lp4741
g49
(g50
g51
NtRp4742
(dp4743
g54
(dp4744
g62
I4
ssg63
g4738
sg56
(lp4745
S'web2py, python, framework'
p4746
asbasbasbasbasbasbasbag49
(g65
g51
NtRp4747
(dp4748
g54
(dp4749
sg63
g3456
sg56
(lp4750
g49
(g70
g51
NtRp4751
(dp4752
g54
(dp4753
g74
g75
ssg63
g4747
sg56
(lp4754
S'postprocessing'
p4755
asbag49
(g70
g51
NtRp4756
(dp4757
g54
(dp4758
g81
g82
ssg63
g4747
sg56
(lp4759
S':'
asbag49
(g70
g51
NtRp4760
(dp4761
g54
(dp4762
sg63
g4747
sg56
(lp4763
g49
(g50
g51
NtRp4764
(dp4765
g54
(dp4766
g62
I5
ssg63
g4760
sg56
(lp4767
g49
(g58
g51
NtRp4768
(dp4769
g54
(dp4770
g62
I4
ssg63
Nsg56
(lp4771
sbasbasbasbag49
(g65
g51
NtRp4772
(dp4773
g54
(dp4774
sg63
g3456
sg56
(lp4775
g49
(g70
g51
NtRp4776
(dp4777
g54
(dp4778
g74
g75
ssg63
g4772
sg56
(lp4779
S'session_file'
p4780
asbag49
(g70
g51
NtRp4781
(dp4782
g54
(dp4783
g81
g82
ssg63
g4772
sg56
(lp4784
S':'
asbag49
(g70
g51
NtRp4785
(dp4786
g54
(dp4787
sg63
g4772
sg56
(lp4788
g49
(g50
g51
NtRp4789
(dp4790
g54
(dp4791
g62
I5
ssg63
g4785
sg56
(lp4792
S"<open file 'C:\\Users\\Osku\\koodaus\\web2py\\applications\\sitsit\\sessions\\127.0.0.1-ec2284ba-32fe-4a19-9a6f-e97c370381b5', mode 'rb+' at 0x04E102A8>"
p4793
asbasbasbag49
(g65
g51
NtRp4794
(dp4795
g54
(dp4796
sg63
g3456
sg56
(lp4797
g49
(g70
g51
NtRp4798
(dp4799
g54
(dp4800
g74
g75
ssg63
g4794
sg56
(lp4801
S'session_filename'
p4802
asbag49
(g70
g51
NtRp4803
(dp4804
g54
(dp4805
g81
g82
ssg63
g4794
sg56
(lp4806
S':'
asbag49
(g70
g51
NtRp4807
(dp4808
g54
(dp4809
sg63
g4794
sg56
(lp4810
g49
(g50
g51
NtRp4811
(dp4812
g54
(dp4813
g62
I5
ssg63
g4807
sg56
(lp4814
S'C:\\Users\\Osku\\koodaus\\web2py\\applications\\sitsit\\sessions\\127.0.0.1-ec2284ba-32fe-4a19-9a6f-e97c370381b5'
p4815
asbasbasbag49
(g65
g51
NtRp4816
(dp4817
g54
(dp4818
sg63
g3456
sg56
(lp4819
g49
(g70
g51
NtRp4820
(dp4821
g54
(dp4822
g74
g75
ssg63
g4816
sg56
(lp4823
S'session_id'
p4824
asbag49
(g70
g51
NtRp4825
(dp4826
g54
(dp4827
g81
g82
ssg63
g4816
sg56
(lp4828
S':'
asbag49
(g70
g51
NtRp4829
(dp4830
g54
(dp4831
sg63
g4816
sg56
(lp4832
g49
(g50
g51
NtRp4833
(dp4834
g54
(dp4835
g62
I5
ssg63
g4829
sg56
(lp4836
S'127.0.0.1-ec2284ba-32fe-4a19-9a6f-e97c370381b5'
p4837
asbasbasbag49
(g65
g51
NtRp4838
(dp4839
g54
(dp4840
sg63
g3456
sg56
(lp4841
g49
(g70
g51
NtRp4842
(dp4843
g54
(dp4844
g74
g75
ssg63
g4838
sg56
(lp4845
S'session_id_name'
p4846
asbag49
(g70
g51
NtRp4847
(dp4848
g54
(dp4849
g81
g82
ssg63
g4838
sg56
(lp4850
S':'
asbag49
(g70
g51
NtRp4851
(dp4852
g54
(dp4853
sg63
g4838
sg56
(lp4854
g49
(g50
g51
NtRp4855
(dp4856
g54
(dp4857
g62
I5
ssg63
g4851
sg56
(lp4858
g3513
asbasbasbag49
(g65
g51
NtRp4859
(dp4860
g54
(dp4861
sg63
g3456
sg56
(lp4862
g49
(g70
g51
NtRp4863
(dp4864
g54
(dp4865
g74
g75
ssg63
g4859
sg56
(lp4866
S'session_locked'
p4867
asbag49
(g70
g51
NtRp4868
(dp4869
g54
(dp4870
g81
g82
ssg63
g4859
sg56
(lp4871
S':'
asbag49
(g70
g51
NtRp4872
(dp4873
g54
(dp4874
sg63
g4859
sg56
(lp4875
g49
(g50
g51
NtRp4876
(dp4877
g54
(dp4878
g62
I5
ssg63
g4872
sg56
(lp4879
g1643
asbasbasbag49
(g65
g51
NtRp4880
(dp4881
g54
(dp4882
sg63
g3456
sg56
(lp4883
g49
(g70
g51
NtRp4884
(dp4885
g54
(dp4886
g74
g75
ssg63
g4880
sg56
(lp4887
S'session_new'
p4888
asbag49
(g70
g51
NtRp4889
(dp4890
g54
(dp4891
g81
g82
ssg63
g4880
sg56
(lp4892
S':'
asbag49
(g70
g51
NtRp4893
(dp4894
g54
(dp4895
sg63
g4880
sg56
(lp4896
g49
(g50
g51
NtRp4897
(dp4898
g54
(dp4899
g62
I5
ssg63
g4893
sg56
(lp4900
g92
asbasbasbag49
(g65
g51
NtRp4901
(dp4902
g54
(dp4903
sg63
g3456
sg56
(lp4904
g49
(g70
g51
NtRp4905
(dp4906
g54
(dp4907
g74
g75
ssg63
g4901
sg56
(lp4908
S'status'
p4909
asbag49
(g70
g51
NtRp4910
(dp4911
g54
(dp4912
g81
g82
ssg63
g4901
sg56
(lp4913
S':'
asbag49
(g70
g51
NtRp4914
(dp4915
g54
(dp4916
sg63
g4901
sg56
(lp4917
g49
(g50
g51
NtRp4918
(dp4919
g54
(dp4920
g62
I5
ssg63
g4914
sg56
(lp4921
S'200'
p4922
asbasbasbag49
(g65
g51
NtRp4923
(dp4924
g54
(dp4925
sg63
g3456
sg56
(lp4926
g49
(g70
g51
NtRp4927
(dp4928
g54
(dp4929
g74
g75
ssg63
g4923
sg56
(lp4930
S'subtitle'
p4931
asbag49
(g70
g51
NtRp4932
(dp4933
g54
(dp4934
g81
g82
ssg63
g4923
sg56
(lp4935
S':'
asbag49
(g70
g51
NtRp4936
(dp4937
g54
(dp4938
sg63
g4923
sg56
(lp4939
g49
(g50
g51
NtRp4940
(dp4941
g54
(dp4942
g62
I5
ssg63
g4936
sg56
(lp4943
g3992
(S's\r\x00\x00\x00customize me!'
tRp4944
asbasbasbag49
(g65
g51
NtRp4945
(dp4946
g54
(dp4947
sg63
g3456
sg56
(lp4948
g49
(g70
g51
NtRp4949
(dp4950
g54
(dp4951
g74
g75
ssg63
g4945
sg56
(lp4952
S'title'
p4953
asbag49
(g70
g51
NtRp4954
(dp4955
g54
(dp4956
g81
g82
ssg63
g4945
sg56
(lp4957
S':'
asbag49
(g70
g51
NtRp4958
(dp4959
g54
(dp4960
sg63
g4945
sg56
(lp4961
g49
(g50
g51
NtRp4962
(dp4963
g54
(dp4964
g62
I5
ssg63
g4958
sg56
(lp4965
S'Sitsit'
p4966
asbasbasbag49
(g65
g51
NtRp4967
(dp4968
g54
(dp4969
sg63
g3456
sg56
(lp4970
g49
(g70
g51
NtRp4971
(dp4972
g54
(dp4973
g74
g75
ssg63
g4967
sg56
(lp4974
g2328
asbag49
(g70
g51
NtRp4975
(dp4976
g54
(dp4977
g81
g82
ssg63
g4967
sg56
(lp4978
S':'
asbag49
(g70
g51
NtRp4979
(dp4980
g54
(dp4981
sg63
g4967
sg56
(lp4982
g49
(g50
g51
NtRp4983
(dp4984
g54
(dp4985
g62
I5
ssg63
g4979
sg56
(lp4986
g2341
asbasbasbag49
(g65
g51
NtRp4987
(dp4988
g54
(dp4989
sg63
g3456
sg56
(lp4990
g49
(g70
g51
NtRp4991
(dp4992
g54
(dp4993
g74
g75
ssg63
g4987
sg56
(lp4994
S'view'
p4995
asbag49
(g70
g51
NtRp4996
(dp4997
g54
(dp4998
g81
g82
ssg63
g4987
sg56
(lp4999
S':'
asbag49
(g70
g51
NtRp5000
(dp5001
g54
(dp5002
sg63
g4987
sg56
(lp5003
g49
(g50
g51
NtRp5004
(dp5005
g54
(dp5006
g62
I5
ssg63
g5000
sg56
(lp5007
S'default/sitsit.html'
p5008
asbasbasbasbasbsS'locals'
p5009
(dp5010
S'sitsiID'
p5011
S"'1'"
p5012
sg3057
S"<Row {'name': 'asd', 'update_record': <function ...n <lambda> at 0x04E2BE30>, 'numofattending': 10}>"
p5013
sssS'traceback'
p5014
S'Traceback (most recent call last):\n  File "gluon/restricted.py", line 205, in restricted\n  File "C:\\Users\\Osku\\koodaus\\web2py\\applications\\sitsit\\controllers/default.py", line 89, in <module>\n  File "gluon/globals.py", line 173, in <lambda>\n  File "C:\\Users\\Osku\\koodaus\\web2py\\applications\\sitsit\\controllers/default.py", line 32, in sitsit\nTypeError: unsupported operand type(s) for +: \'dict\' and \'dict\'\n'
p5015
s.