(dp1
S'output'
p2
S"<type 'exceptions.SyntaxError'> invalid syntax (default/sitsit.html, line 2)"
p3
sS'layer'
p4
S'C:\\Users\\Osku\\koodaus\\web2py\\applications\\sitsit\\views\\default/sitsit.html'
p5
sS'code'
p6
S"response.write('<html>\\r\\n<head>\\r\\n\\t\\r\\n</head>\\r\\n<body>\\r\\n', escape=False)\nif len(request.vars)\nresponse.write('\\r\\nEi loytyny\\r\\n', escape=False)\nelse:\n    response.write('\\r\\n', escape=False)\n    response.write(BEAUTIFY(locals()))\n    response.write('\\r\\n', escape=False)\n    response.write(globals())\n    response.write('\\r\\n', escape=False)\n    response.write(request.vars)\n    response.write('\\r\\n', escape=False)\n    pass\nresponse.write('\\r\\n\\r\\n</body>\\r\\n\\r\\n</html>\\r\\n', escape=False)"
p7
sS'snapshot'
p8
(dp9
S'exception'
p10
(dp11
S'__getslice__'
p12
S"<method-wrapper '__getslice__' of exceptions.SyntaxError object at 0x04EAFC30>"
p13
sS'text'
p14
S"'if len(request.vars)\\n'"
p15
sS'__str__'
p16
S"<method-wrapper '__str__' of exceptions.SyntaxError object at 0x04EAFC30>"
p17
sS'__reduce__'
p18
S'<built-in method __reduce__ of exceptions.SyntaxError object at 0x04EAFC30>'
p19
sS'__dict__'
p20
S'{}'
p21
sS'__init__'
p22
S"<method-wrapper '__init__' of exceptions.SyntaxError object at 0x04EAFC30>"
p23
sS'__setattr__'
p24
S"<method-wrapper '__setattr__' of exceptions.SyntaxError object at 0x04EAFC30>"
p25
sS'__reduce_ex__'
p26
S'<built-in method __reduce_ex__ of exceptions.SyntaxError object at 0x04EAFC30>'
p27
sS'__new__'
p28
S'<built-in method __new__ of type object at 0x1E1CDBD0>'
p29
sS'__class__'
p30
S"<type 'exceptions.SyntaxError'>"
p31
sS'filename'
p32
S"r'C:\\Users\\Osku\\koodaus\\web2py\\applications\\sitsit\\views\\default/sitsit.html'"
p33
sS'lineno'
p34
S'2'
sS'msg'
p35
S"'invalid syntax'"
p36
sS'__doc__'
p37
S"'Invalid syntax.'"
p38
sS'__getitem__'
p39
S"<method-wrapper '__getitem__' of exceptions.SyntaxError object at 0x04EAFC30>"
p40
sS'__setstate__'
p41
S'<built-in method __setstate__ of exceptions.SyntaxError object at 0x04EAFC30>'
p42
sS'__getattribute__'
p43
S"<method-wrapper '__getattribute__' of exceptions.SyntaxError object at 0x04EAFC30>"
p44
sS'print_file_and_line'
p45
S'None'
p46
sS'args'
p47
S"('invalid syntax', (r'C:\\Users\\Osku\\koodaus\\web2py\\applications\\sitsit\\views\\default/sitsit.html', 2, 21, 'if len(request.vars)\\n'))"
p48
sS'offset'
p49
S'21'
p50
sS'__delattr__'
p51
S"<method-wrapper '__delattr__' of exceptions.SyntaxError object at 0x04EAFC30>"
p52
sS'__repr__'
p53
S"<method-wrapper '__repr__' of exceptions.SyntaxError object at 0x04EAFC30>"
p54
sS'__hash__'
p55
S"<method-wrapper '__hash__' of exceptions.SyntaxError object at 0x04EAFC30>"
p56
ssS'evalue'
p57
S'invalid syntax (default/sitsit.html, line 2)'
p58
sS'request'
p59
ccopy_reg
_reconstructor
p60
(cgluon.html
BEAUTIFY
p61
c__builtin__
object
p62
NtRp63
(dp64
S'attributes'
p65
(dp66
sS'components'
p67
(lp68
g60
(cgluon.html
TABLE
p69
g62
NtRp70
(dp71
g65
(dp72
S'level'
p73
I5
ssS'parent'
p74
Nsg67
(lp75
g60
(cgluon.html
TR
p76
g62
NtRp77
(dp78
g65
(dp79
sg74
g70
sg67
(lp80
g60
(cgluon.html
TD
p81
g62
NtRp82
(dp83
g65
(dp84
S'_style'
p85
S'font-weight:bold;vertical-align:top'
p86
ssg74
g77
sg67
(lp87
S'ajax'
p88
asbag60
(g81
g62
NtRp89
(dp90
g65
(dp91
S'_valign'
p92
S'top'
p93
ssg74
g77
sg67
(lp94
S':'
asbag60
(g81
g62
NtRp95
(dp96
g65
(dp97
sg74
g77
sg67
(lp98
g60
(g61
g62
NtRp99
(dp100
g65
(dp101
g73
I5
ssg74
g95
sg67
(lp102
S'False'
p103
asbasbasbag60
(g76
g62
NtRp104
(dp105
g65
(dp106
sg74
g70
sg67
(lp107
g60
(g81
g62
NtRp108
(dp109
g65
(dp110
g85
g86
ssg74
g104
sg67
(lp111
S'application'
p112
asbag60
(g81
g62
NtRp113
(dp114
g65
(dp115
g92
g93
ssg74
g104
sg67
(lp116
S':'
asbag60
(g81
g62
NtRp117
(dp118
g65
(dp119
sg74
g104
sg67
(lp120
g60
(g61
g62
NtRp121
(dp122
g65
(dp123
g73
I5
ssg74
g117
sg67
(lp124
S'sitsit'
p125
asbasbasbag60
(g76
g62
NtRp126
(dp127
g65
(dp128
sg74
g70
sg67
(lp129
g60
(g81
g62
NtRp130
(dp131
g65
(dp132
g85
g86
ssg74
g126
sg67
(lp133
g47
asbag60
(g81
g62
NtRp134
(dp135
g65
(dp136
g92
g93
ssg74
g126
sg67
(lp137
S':'
asbag60
(g81
g62
NtRp138
(dp139
g65
(dp140
sg74
g126
sg67
(lp141
g60
(g61
g62
NtRp142
(dp143
g65
(dp144
g73
I5
ssg74
g138
sg67
(lp145
g60
(g69
g62
NtRp146
(dp147
g65
(dp148
g73
I4
ssg74
Nsg67
(lp149
g60
(g76
g62
NtRp150
(dp151
g65
(dp152
sg74
g146
sg67
(lp153
g60
(g81
g62
NtRp154
(dp155
g65
(dp156
sg74
g150
sg67
(lp157
g60
(g61
g62
NtRp158
(dp159
g65
(dp160
g73
I4
ssg74
g154
sg67
(lp161
S'2'
asbasbasbasbasbasbasbag60
(g76
g62
NtRp162
(dp163
g65
(dp164
sg74
g70
sg67
(lp165
g60
(g81
g62
NtRp166
(dp167
g65
(dp168
g85
g86
ssg74
g162
sg67
(lp169
S'body'
p170
asbag60
(g81
g62
NtRp171
(dp172
g65
(dp173
g92
g93
ssg74
g162
sg67
(lp174
S':'
asbag60
(g81
g62
NtRp175
(dp176
g65
(dp177
sg74
g162
sg67
(lp178
g60
(g61
g62
NtRp179
(dp180
g65
(dp181
g73
I5
ssg74
g175
sg67
(lp182
S'<cStringIO.StringO object at 0x052099C0>'
p183
asbasbasbag60
(g76
g62
NtRp184
(dp185
g65
(dp186
sg74
g70
sg67
(lp187
g60
(g81
g62
NtRp188
(dp189
g65
(dp190
g85
g86
ssg74
g184
sg67
(lp191
S'client'
p192
asbag60
(g81
g62
NtRp193
(dp194
g65
(dp195
g92
g93
ssg74
g184
sg67
(lp196
S':'
asbag60
(g81
g62
NtRp197
(dp198
g65
(dp199
sg74
g184
sg67
(lp200
g60
(g61
g62
NtRp201
(dp202
g65
(dp203
g73
I5
ssg74
g197
sg67
(lp204
S'127.0.0.1'
p205
asbasbasbag60
(g76
g62
NtRp206
(dp207
g65
(dp208
sg74
g70
sg67
(lp209
g60
(g81
g62
NtRp210
(dp211
g65
(dp212
g85
g86
ssg74
g206
sg67
(lp213
S'controller'
p214
asbag60
(g81
g62
NtRp215
(dp216
g65
(dp217
g92
g93
ssg74
g206
sg67
(lp218
S':'
asbag60
(g81
g62
NtRp219
(dp220
g65
(dp221
sg74
g206
sg67
(lp222
g60
(g61
g62
NtRp223
(dp224
g65
(dp225
g73
I5
ssg74
g219
sg67
(lp226
S'default'
p227
asbasbasbag60
(g76
g62
NtRp228
(dp229
g65
(dp230
sg74
g70
sg67
(lp231
g60
(g81
g62
NtRp232
(dp233
g65
(dp234
g85
g86
ssg74
g228
sg67
(lp235
S'cookies'
p236
asbag60
(g81
g62
NtRp237
(dp238
g65
(dp239
g92
g93
ssg74
g228
sg67
(lp240
S':'
asbag60
(g81
g62
NtRp241
(dp242
g65
(dp243
sg74
g228
sg67
(lp244
g60
(g61
g62
NtRp245
(dp246
g65
(dp247
g73
I5
ssg74
g241
sg67
(lp248
g60
(g69
g62
NtRp249
(dp250
g65
(dp251
g73
I4
ssg74
Nsg67
(lp252
g60
(g76
g62
NtRp253
(dp254
g65
(dp255
sg74
g249
sg67
(lp256
g60
(g81
g62
NtRp257
(dp258
g65
(dp259
g85
g86
ssg74
g253
sg67
(lp260
S'session_id_admin'
p261
asbag60
(g81
g62
NtRp262
(dp263
g65
(dp264
g92
g93
ssg74
g253
sg67
(lp265
S':'
asbag60
(g81
g62
NtRp266
(dp267
g65
(dp268
sg74
g253
sg67
(lp269
g60
(g61
g62
NtRp270
(dp271
g65
(dp272
g73
I4
ssg74
g266
sg67
(lp273
g60
(g69
g62
NtRp274
(dp275
g65
(dp276
g73
I3
ssg74
Nsg67
(lp277
g60
(g76
g62
NtRp278
(dp279
g65
(dp280
sg74
g274
sg67
(lp281
g60
(g81
g62
NtRp282
(dp283
g65
(dp284
g85
g86
ssg74
g278
sg67
(lp285
S'comment'
p286
asbag60
(g81
g62
NtRp287
(dp288
g65
(dp289
g92
g93
ssg74
g278
sg67
(lp290
S':'
asbag60
(g81
g62
NtRp291
(dp292
g65
(dp293
sg74
g278
sg67
(lp294
g60
(g61
g62
NtRp295
(dp296
g65
(dp297
g73
I3
ssg74
g291
sg67
(lp298
S''
asbasbasbag60
(g76
g62
NtRp299
(dp300
g65
(dp301
sg74
g274
sg67
(lp302
g60
(g81
g62
NtRp303
(dp304
g65
(dp305
g85
g86
ssg74
g299
sg67
(lp306
S'domain'
p307
asbag60
(g81
g62
NtRp308
(dp309
g65
(dp310
g92
g93
ssg74
g299
sg67
(lp311
S':'
asbag60
(g81
g62
NtRp312
(dp313
g65
(dp314
sg74
g299
sg67
(lp315
g60
(g61
g62
NtRp316
(dp317
g65
(dp318
g73
I3
ssg74
g312
sg67
(lp319
S''
asbasbasbag60
(g76
g62
NtRp320
(dp321
g65
(dp322
sg74
g274
sg67
(lp323
g60
(g81
g62
NtRp324
(dp325
g65
(dp326
g85
g86
ssg74
g320
sg67
(lp327
S'expires'
p328
asbag60
(g81
g62
NtRp329
(dp330
g65
(dp331
g92
g93
ssg74
g320
sg67
(lp332
S':'
asbag60
(g81
g62
NtRp333
(dp334
g65
(dp335
sg74
g320
sg67
(lp336
g60
(g61
g62
NtRp337
(dp338
g65
(dp339
g73
I3
ssg74
g333
sg67
(lp340
S''
asbasbasbag60
(g76
g62
NtRp341
(dp342
g65
(dp343
sg74
g274
sg67
(lp344
g60
(g81
g62
NtRp345
(dp346
g65
(dp347
g85
g86
ssg74
g341
sg67
(lp348
S'max-age'
p349
asbag60
(g81
g62
NtRp350
(dp351
g65
(dp352
g92
g93
ssg74
g341
sg67
(lp353
S':'
asbag60
(g81
g62
NtRp354
(dp355
g65
(dp356
sg74
g341
sg67
(lp357
g60
(g61
g62
NtRp358
(dp359
g65
(dp360
g73
I3
ssg74
g354
sg67
(lp361
S''
asbasbasbag60
(g76
g62
NtRp362
(dp363
g65
(dp364
sg74
g274
sg67
(lp365
g60
(g81
g62
NtRp366
(dp367
g65
(dp368
g85
g86
ssg74
g362
sg67
(lp369
S'path'
p370
asbag60
(g81
g62
NtRp371
(dp372
g65
(dp373
g92
g93
ssg74
g362
sg67
(lp374
S':'
asbag60
(g81
g62
NtRp375
(dp376
g65
(dp377
sg74
g362
sg67
(lp378
g60
(g61
g62
NtRp379
(dp380
g65
(dp381
g73
I3
ssg74
g375
sg67
(lp382
S''
asbasbasbag60
(g76
g62
NtRp383
(dp384
g65
(dp385
sg74
g274
sg67
(lp386
g60
(g81
g62
NtRp387
(dp388
g65
(dp389
g85
g86
ssg74
g383
sg67
(lp390
S'secure'
p391
asbag60
(g81
g62
NtRp392
(dp393
g65
(dp394
g92
g93
ssg74
g383
sg67
(lp395
S':'
asbag60
(g81
g62
NtRp396
(dp397
g65
(dp398
sg74
g383
sg67
(lp399
g60
(g61
g62
NtRp400
(dp401
g65
(dp402
g73
I3
ssg74
g396
sg67
(lp403
S''
asbasbasbag60
(g76
g62
NtRp404
(dp405
g65
(dp406
sg74
g274
sg67
(lp407
g60
(g81
g62
NtRp408
(dp409
g65
(dp410
g85
g86
ssg74
g404
sg67
(lp411
S'version'
p412
asbag60
(g81
g62
NtRp413
(dp414
g65
(dp415
g92
g93
ssg74
g404
sg67
(lp416
S':'
asbag60
(g81
g62
NtRp417
(dp418
g65
(dp419
sg74
g404
sg67
(lp420
g60
(g61
g62
NtRp421
(dp422
g65
(dp423
g73
I3
ssg74
g417
sg67
(lp424
S''
asbasbasbasbasbasbasbag60
(g76
g62
NtRp425
(dp426
g65
(dp427
sg74
g249
sg67
(lp428
g60
(g81
g62
NtRp429
(dp430
g65
(dp431
g85
g86
ssg74
g425
sg67
(lp432
S'session_id_sitsit'
p433
asbag60
(g81
g62
NtRp434
(dp435
g65
(dp436
g92
g93
ssg74
g425
sg67
(lp437
S':'
asbag60
(g81
g62
NtRp438
(dp439
g65
(dp440
sg74
g425
sg67
(lp441
g60
(g61
g62
NtRp442
(dp443
g65
(dp444
g73
I4
ssg74
g438
sg67
(lp445
g60
(g69
g62
NtRp446
(dp447
g65
(dp448
g73
I3
ssg74
Nsg67
(lp449
g60
(g76
g62
NtRp450
(dp451
g65
(dp452
sg74
g446
sg67
(lp453
g60
(g81
g62
NtRp454
(dp455
g65
(dp456
g85
g86
ssg74
g450
sg67
(lp457
g286
asbag60
(g81
g62
NtRp458
(dp459
g65
(dp460
g92
g93
ssg74
g450
sg67
(lp461
S':'
asbag60
(g81
g62
NtRp462
(dp463
g65
(dp464
sg74
g450
sg67
(lp465
g60
(g61
g62
NtRp466
(dp467
g65
(dp468
g73
I3
ssg74
g462
sg67
(lp469
S''
asbasbasbag60
(g76
g62
NtRp470
(dp471
g65
(dp472
sg74
g446
sg67
(lp473
g60
(g81
g62
NtRp474
(dp475
g65
(dp476
g85
g86
ssg74
g470
sg67
(lp477
g307
asbag60
(g81
g62
NtRp478
(dp479
g65
(dp480
g92
g93
ssg74
g470
sg67
(lp481
S':'
asbag60
(g81
g62
NtRp482
(dp483
g65
(dp484
sg74
g470
sg67
(lp485
g60
(g61
g62
NtRp486
(dp487
g65
(dp488
g73
I3
ssg74
g482
sg67
(lp489
S''
asbasbasbag60
(g76
g62
NtRp490
(dp491
g65
(dp492
sg74
g446
sg67
(lp493
g60
(g81
g62
NtRp494
(dp495
g65
(dp496
g85
g86
ssg74
g490
sg67
(lp497
g328
asbag60
(g81
g62
NtRp498
(dp499
g65
(dp500
g92
g93
ssg74
g490
sg67
(lp501
S':'
asbag60
(g81
g62
NtRp502
(dp503
g65
(dp504
sg74
g490
sg67
(lp505
g60
(g61
g62
NtRp506
(dp507
g65
(dp508
g73
I3
ssg74
g502
sg67
(lp509
S''
asbasbasbag60
(g76
g62
NtRp510
(dp511
g65
(dp512
sg74
g446
sg67
(lp513
g60
(g81
g62
NtRp514
(dp515
g65
(dp516
g85
g86
ssg74
g510
sg67
(lp517
g349
asbag60
(g81
g62
NtRp518
(dp519
g65
(dp520
g92
g93
ssg74
g510
sg67
(lp521
S':'
asbag60
(g81
g62
NtRp522
(dp523
g65
(dp524
sg74
g510
sg67
(lp525
g60
(g61
g62
NtRp526
(dp527
g65
(dp528
g73
I3
ssg74
g522
sg67
(lp529
S''
asbasbasbag60
(g76
g62
NtRp530
(dp531
g65
(dp532
sg74
g446
sg67
(lp533
g60
(g81
g62
NtRp534
(dp535
g65
(dp536
g85
g86
ssg74
g530
sg67
(lp537
g370
asbag60
(g81
g62
NtRp538
(dp539
g65
(dp540
g92
g93
ssg74
g530
sg67
(lp541
S':'
asbag60
(g81
g62
NtRp542
(dp543
g65
(dp544
sg74
g530
sg67
(lp545
g60
(g61
g62
NtRp546
(dp547
g65
(dp548
g73
I3
ssg74
g542
sg67
(lp549
S''
asbasbasbag60
(g76
g62
NtRp550
(dp551
g65
(dp552
sg74
g446
sg67
(lp553
g60
(g81
g62
NtRp554
(dp555
g65
(dp556
g85
g86
ssg74
g550
sg67
(lp557
g391
asbag60
(g81
g62
NtRp558
(dp559
g65
(dp560
g92
g93
ssg74
g550
sg67
(lp561
S':'
asbag60
(g81
g62
NtRp562
(dp563
g65
(dp564
sg74
g550
sg67
(lp565
g60
(g61
g62
NtRp566
(dp567
g65
(dp568
g73
I3
ssg74
g562
sg67
(lp569
S''
asbasbasbag60
(g76
g62
NtRp570
(dp571
g65
(dp572
sg74
g446
sg67
(lp573
g60
(g81
g62
NtRp574
(dp575
g65
(dp576
g85
g86
ssg74
g570
sg67
(lp577
g412
asbag60
(g81
g62
NtRp578
(dp579
g65
(dp580
g92
g93
ssg74
g570
sg67
(lp581
S':'
asbag60
(g81
g62
NtRp582
(dp583
g65
(dp584
sg74
g570
sg67
(lp585
g60
(g61
g62
NtRp586
(dp587
g65
(dp588
g73
I3
ssg74
g582
sg67
(lp589
S''
asbasbasbasbasbasbasbag60
(g76
g62
NtRp590
(dp591
g65
(dp592
sg74
g249
sg67
(lp593
g60
(g81
g62
NtRp594
(dp595
g65
(dp596
g85
g86
ssg74
g590
sg67
(lp597
S'session_id_welcome'
p598
asbag60
(g81
g62
NtRp599
(dp600
g65
(dp601
g92
g93
ssg74
g590
sg67
(lp602
S':'
asbag60
(g81
g62
NtRp603
(dp604
g65
(dp605
sg74
g590
sg67
(lp606
g60
(g61
g62
NtRp607
(dp608
g65
(dp609
g73
I4
ssg74
g603
sg67
(lp610
g60
(g69
g62
NtRp611
(dp612
g65
(dp613
g73
I3
ssg74
Nsg67
(lp614
g60
(g76
g62
NtRp615
(dp616
g65
(dp617
sg74
g611
sg67
(lp618
g60
(g81
g62
NtRp619
(dp620
g65
(dp621
g85
g86
ssg74
g615
sg67
(lp622
g286
asbag60
(g81
g62
NtRp623
(dp624
g65
(dp625
g92
g93
ssg74
g615
sg67
(lp626
S':'
asbag60
(g81
g62
NtRp627
(dp628
g65
(dp629
sg74
g615
sg67
(lp630
g60
(g61
g62
NtRp631
(dp632
g65
(dp633
g73
I3
ssg74
g627
sg67
(lp634
S''
asbasbasbag60
(g76
g62
NtRp635
(dp636
g65
(dp637
sg74
g611
sg67
(lp638
g60
(g81
g62
NtRp639
(dp640
g65
(dp641
g85
g86
ssg74
g635
sg67
(lp642
g307
asbag60
(g81
g62
NtRp643
(dp644
g65
(dp645
g92
g93
ssg74
g635
sg67
(lp646
S':'
asbag60
(g81
g62
NtRp647
(dp648
g65
(dp649
sg74
g635
sg67
(lp650
g60
(g61
g62
NtRp651
(dp652
g65
(dp653
g73
I3
ssg74
g647
sg67
(lp654
S''
asbasbasbag60
(g76
g62
NtRp655
(dp656
g65
(dp657
sg74
g611
sg67
(lp658
g60
(g81
g62
NtRp659
(dp660
g65
(dp661
g85
g86
ssg74
g655
sg67
(lp662
g328
asbag60
(g81
g62
NtRp663
(dp664
g65
(dp665
g92
g93
ssg74
g655
sg67
(lp666
S':'
asbag60
(g81
g62
NtRp667
(dp668
g65
(dp669
sg74
g655
sg67
(lp670
g60
(g61
g62
NtRp671
(dp672
g65
(dp673
g73
I3
ssg74
g667
sg67
(lp674
S''
asbasbasbag60
(g76
g62
NtRp675
(dp676
g65
(dp677
sg74
g611
sg67
(lp678
g60
(g81
g62
NtRp679
(dp680
g65
(dp681
g85
g86
ssg74
g675
sg67
(lp682
g349
asbag60
(g81
g62
NtRp683
(dp684
g65
(dp685
g92
g93
ssg74
g675
sg67
(lp686
S':'
asbag60
(g81
g62
NtRp687
(dp688
g65
(dp689
sg74
g675
sg67
(lp690
g60
(g61
g62
NtRp691
(dp692
g65
(dp693
g73
I3
ssg74
g687
sg67
(lp694
S''
asbasbasbag60
(g76
g62
NtRp695
(dp696
g65
(dp697
sg74
g611
sg67
(lp698
g60
(g81
g62
NtRp699
(dp700
g65
(dp701
g85
g86
ssg74
g695
sg67
(lp702
g370
asbag60
(g81
g62
NtRp703
(dp704
g65
(dp705
g92
g93
ssg74
g695
sg67
(lp706
S':'
asbag60
(g81
g62
NtRp707
(dp708
g65
(dp709
sg74
g695
sg67
(lp710
g60
(g61
g62
NtRp711
(dp712
g65
(dp713
g73
I3
ssg74
g707
sg67
(lp714
S''
asbasbasbag60
(g76
g62
NtRp715
(dp716
g65
(dp717
sg74
g611
sg67
(lp718
g60
(g81
g62
NtRp719
(dp720
g65
(dp721
g85
g86
ssg74
g715
sg67
(lp722
g391
asbag60
(g81
g62
NtRp723
(dp724
g65
(dp725
g92
g93
ssg74
g715
sg67
(lp726
S':'
asbag60
(g81
g62
NtRp727
(dp728
g65
(dp729
sg74
g715
sg67
(lp730
g60
(g61
g62
NtRp731
(dp732
g65
(dp733
g73
I3
ssg74
g727
sg67
(lp734
S''
asbasbasbag60
(g76
g62
NtRp735
(dp736
g65
(dp737
sg74
g611
sg67
(lp738
g60
(g81
g62
NtRp739
(dp740
g65
(dp741
g85
g86
ssg74
g735
sg67
(lp742
g412
asbag60
(g81
g62
NtRp743
(dp744
g65
(dp745
g92
g93
ssg74
g735
sg67
(lp746
S':'
asbag60
(g81
g62
NtRp747
(dp748
g65
(dp749
sg74
g735
sg67
(lp750
g60
(g61
g62
NtRp751
(dp752
g65
(dp753
g73
I3
ssg74
g747
sg67
(lp754
S''
asbasbasbasbasbasbasbasbasbasbasbag60
(g76
g62
NtRp755
(dp756
g65
(dp757
sg74
g70
sg67
(lp758
g60
(g81
g62
NtRp759
(dp760
g65
(dp761
g85
g86
ssg74
g755
sg67
(lp762
S'env'
p763
asbag60
(g81
g62
NtRp764
(dp765
g65
(dp766
g92
g93
ssg74
g755
sg67
(lp767
S':'
asbag60
(g81
g62
NtRp768
(dp769
g65
(dp770
sg74
g755
sg67
(lp771
g60
(g61
g62
NtRp772
(dp773
g65
(dp774
g73
I5
ssg74
g768
sg67
(lp775
g60
(g69
g62
NtRp776
(dp777
g65
(dp778
g73
I4
ssg74
Nsg67
(lp779
g60
(g76
g62
NtRp780
(dp781
g65
(dp782
sg74
g776
sg67
(lp783
g60
(g81
g62
NtRp784
(dp785
g65
(dp786
g85
g86
ssg74
g780
sg67
(lp787
S'app_folders'
p788
asbag60
(g81
g62
NtRp789
(dp790
g65
(dp791
g92
g93
ssg74
g780
sg67
(lp792
S':'
asbag60
(g81
g62
NtRp793
(dp794
g65
(dp795
sg74
g780
sg67
(lp796
g60
(g61
g62
NtRp797
(dp798
g65
(dp799
g73
I4
ssg74
g793
sg67
(lp800
S"set(['C:\\\\Users\\\\Osku\\\\koodaus\\\\web2py\\\\applications\\\\sitsit\\\\', 'C:\\\\Users\\\\Osku\\\\koodaus\\\\web2py\\\\applications\\\\welcome\\\\', 'C:\\\\Users\\\\Osku\\\\koodaus\\\\web2py\\\\applications\\\\admin\\\\'])"
p801
asbasbasbag60
(g76
g62
NtRp802
(dp803
g65
(dp804
sg74
g776
sg67
(lp805
g60
(g81
g62
NtRp806
(dp807
g65
(dp808
g85
g86
ssg74
g802
sg67
(lp809
S'applications_parent'
p810
asbag60
(g81
g62
NtRp811
(dp812
g65
(dp813
g92
g93
ssg74
g802
sg67
(lp814
S':'
asbag60
(g81
g62
NtRp815
(dp816
g65
(dp817
sg74
g802
sg67
(lp818
g60
(g61
g62
NtRp819
(dp820
g65
(dp821
g73
I4
ssg74
g815
sg67
(lp822
S'C:\\Users\\Osku\\koodaus\\web2py'
p823
asbasbasbag60
(g76
g62
NtRp824
(dp825
g65
(dp826
sg74
g776
sg67
(lp827
g60
(g81
g62
NtRp828
(dp829
g65
(dp830
g85
g86
ssg74
g824
sg67
(lp831
S'cmd_args'
p832
asbag60
(g81
g62
NtRp833
(dp834
g65
(dp835
g92
g93
ssg74
g824
sg67
(lp836
S':'
asbag60
(g81
g62
NtRp837
(dp838
g65
(dp839
sg74
g824
sg67
(lp840
g60
(g61
g62
NtRp841
(dp842
g65
(dp843
g73
I4
ssg74
g837
sg67
(lp844
g60
(g69
g62
NtRp845
(dp846
g65
(dp847
g73
I3
ssg74
Nsg67
(lp848
sbasbasbasbag60
(g76
g62
NtRp849
(dp850
g65
(dp851
sg74
g776
sg67
(lp852
g60
(g81
g62
NtRp853
(dp854
g65
(dp855
g85
g86
ssg74
g849
sg67
(lp856
S'cmd_options'
p857
asbag60
(g81
g62
NtRp858
(dp859
g65
(dp860
g92
g93
ssg74
g849
sg67
(lp861
S':'
asbag60
(g81
g62
NtRp862
(dp863
g65
(dp864
sg74
g849
sg67
(lp865
g60
(g61
g62
NtRp866
(dp867
g65
(dp868
g73
I4
ssg74
g862
sg67
(lp869
S"<Values at 0x2270030: {'verbose': False, 'ip': '127.0.0.1', 'shutdown_timeout': 5, 'taskbar': False, 'nocron': False, 'pid_filename': 'httpserver.pid', 'maxthreads': None, 'softcron': False, 'server_name': 'Osku-Kannettava', 'bpython': False, 'nogui': False, 'port': 8000, 'extcron': False, 'debuglevel': 30, 'test': None, 'folder': 'C:\\\\Users\\\\Osku\\\\koodaus\\\\web2py', 'config': '', 'import_models': False, 'winservice': '', 'shell': None, 'run': '', 'log_filename': 'httpserver.log', 'args': [''], 'socket_timeout': 5, 'ssl_ca_certificate': None, 'scheduler': None, 'profiler_filename': None, 'ssl_private_key': '', 'password': '<ask>', 'request_queue_size': 5, 'ssl_certificate': '', 'cronjob': False, 'numthreads': None, 'quiet': False, 'interfaces': None, 'minthreads': None, 'timeout': 10, 'plain': False, 'nobanner': False}>"
p870
asbasbasbag60
(g76
g62
NtRp871
(dp872
g65
(dp873
sg74
g776
sg67
(lp874
g60
(g81
g62
NtRp875
(dp876
g65
(dp877
g85
g86
ssg74
g871
sg67
(lp878
S'db_sessions'
p879
asbag60
(g81
g62
NtRp880
(dp881
g65
(dp882
g92
g93
ssg74
g871
sg67
(lp883
S':'
asbag60
(g81
g62
NtRp884
(dp885
g65
(dp886
sg74
g871
sg67
(lp887
g60
(g61
g62
NtRp888
(dp889
g65
(dp890
g73
I4
ssg74
g884
sg67
(lp891
S'set([])'
p892
asbasbasbag60
(g76
g62
NtRp893
(dp894
g65
(dp895
sg74
g776
sg67
(lp896
g60
(g81
g62
NtRp897
(dp898
g65
(dp899
g85
g86
ssg74
g893
sg67
(lp900
S'debugging'
p901
asbag60
(g81
g62
NtRp902
(dp903
g65
(dp904
g92
g93
ssg74
g893
sg67
(lp905
S':'
asbag60
(g81
g62
NtRp906
(dp907
g65
(dp908
sg74
g893
sg67
(lp909
g60
(g61
g62
NtRp910
(dp911
g65
(dp912
g73
I4
ssg74
g906
sg67
(lp913
g103
asbasbasbag60
(g76
g62
NtRp914
(dp915
g65
(dp916
sg74
g776
sg67
(lp917
g60
(g81
g62
NtRp918
(dp919
g65
(dp920
g85
g86
ssg74
g914
sg67
(lp921
S'gluon_parent'
p922
asbag60
(g81
g62
NtRp923
(dp924
g65
(dp925
g92
g93
ssg74
g914
sg67
(lp926
S':'
asbag60
(g81
g62
NtRp927
(dp928
g65
(dp929
sg74
g914
sg67
(lp930
g60
(g61
g62
NtRp931
(dp932
g65
(dp933
g73
I4
ssg74
g927
sg67
(lp934
S'C:\\Users\\Osku\\koodaus\\web2py'
p935
asbasbasbag60
(g76
g62
NtRp936
(dp937
g65
(dp938
sg74
g776
sg67
(lp939
g60
(g81
g62
NtRp940
(dp941
g65
(dp942
g85
g86
ssg74
g936
sg67
(lp943
S'http_accept'
p944
asbag60
(g81
g62
NtRp945
(dp946
g65
(dp947
g92
g93
ssg74
g936
sg67
(lp948
S':'
asbag60
(g81
g62
NtRp949
(dp950
g65
(dp951
sg74
g936
sg67
(lp952
g60
(g61
g62
NtRp953
(dp954
g65
(dp955
g73
I4
ssg74
g949
sg67
(lp956
S'text/html,application/xhtml+xml,application/xml;q=0.9,*/*;q=0.8'
p957
asbasbasbag60
(g76
g62
NtRp958
(dp959
g65
(dp960
sg74
g776
sg67
(lp961
g60
(g81
g62
NtRp962
(dp963
g65
(dp964
g85
g86
ssg74
g958
sg67
(lp965
S'http_accept_charset'
p966
asbag60
(g81
g62
NtRp967
(dp968
g65
(dp969
g92
g93
ssg74
g958
sg67
(lp970
S':'
asbag60
(g81
g62
NtRp971
(dp972
g65
(dp973
sg74
g958
sg67
(lp974
g60
(g61
g62
NtRp975
(dp976
g65
(dp977
g73
I4
ssg74
g971
sg67
(lp978
S'ISO-8859-1,utf-8;q=0.7,*;q=0.3'
p979
asbasbasbag60
(g76
g62
NtRp980
(dp981
g65
(dp982
sg74
g776
sg67
(lp983
g60
(g81
g62
NtRp984
(dp985
g65
(dp986
g85
g86
ssg74
g980
sg67
(lp987
S'http_accept_encoding'
p988
asbag60
(g81
g62
NtRp989
(dp990
g65
(dp991
g92
g93
ssg74
g980
sg67
(lp992
S':'
asbag60
(g81
g62
NtRp993
(dp994
g65
(dp995
sg74
g980
sg67
(lp996
g60
(g61
g62
NtRp997
(dp998
g65
(dp999
g73
I4
ssg74
g993
sg67
(lp1000
S'gzip,deflate,sdch'
p1001
asbasbasbag60
(g76
g62
NtRp1002
(dp1003
g65
(dp1004
sg74
g776
sg67
(lp1005
g60
(g81
g62
NtRp1006
(dp1007
g65
(dp1008
g85
g86
ssg74
g1002
sg67
(lp1009
S'http_accept_language'
p1010
asbag60
(g81
g62
NtRp1011
(dp1012
g65
(dp1013
g92
g93
ssg74
g1002
sg67
(lp1014
S':'
asbag60
(g81
g62
NtRp1015
(dp1016
g65
(dp1017
sg74
g1002
sg67
(lp1018
g60
(g61
g62
NtRp1019
(dp1020
g65
(dp1021
g73
I4
ssg74
g1015
sg67
(lp1022
S'en-GB,en-US;q=0.8,en;q=0.6,fi;q=0.4'
p1023
asbasbasbag60
(g76
g62
NtRp1024
(dp1025
g65
(dp1026
sg74
g776
sg67
(lp1027
g60
(g81
g62
NtRp1028
(dp1029
g65
(dp1030
g85
g86
ssg74
g1024
sg67
(lp1031
S'http_connection'
p1032
asbag60
(g81
g62
NtRp1033
(dp1034
g65
(dp1035
g92
g93
ssg74
g1024
sg67
(lp1036
S':'
asbag60
(g81
g62
NtRp1037
(dp1038
g65
(dp1039
sg74
g1024
sg67
(lp1040
g60
(g61
g62
NtRp1041
(dp1042
g65
(dp1043
g73
I4
ssg74
g1037
sg67
(lp1044
S'keep-alive'
p1045
asbasbasbag60
(g76
g62
NtRp1046
(dp1047
g65
(dp1048
sg74
g776
sg67
(lp1049
g60
(g81
g62
NtRp1050
(dp1051
g65
(dp1052
g85
g86
ssg74
g1046
sg67
(lp1053
S'http_cookie'
p1054
asbag60
(g81
g62
NtRp1055
(dp1056
g65
(dp1057
g92
g93
ssg74
g1046
sg67
(lp1058
S':'
asbag60
(g81
g62
NtRp1059
(dp1060
g65
(dp1061
sg74
g1046
sg67
(lp1062
g60
(g61
g62
NtRp1063
(dp1064
g65
(dp1065
g73
I4
ssg74
g1059
sg67
(lp1066
S'session_id_welcome=127.0.0.1-731960a1-ea7c-4af8-ac49-7798aa234dcd; session_id_admin=127.0.0.1-941ea7a4-a42e-46de-bdfb-3dd29fbb7e62; session_id_sitsit=127.0.0.1-ec2284ba-32fe-4a19-9a6f-e97c370381b5'
p1067
asbasbasbag60
(g76
g62
NtRp1068
(dp1069
g65
(dp1070
sg74
g776
sg67
(lp1071
g60
(g81
g62
NtRp1072
(dp1073
g65
(dp1074
g85
g86
ssg74
g1068
sg67
(lp1075
S'http_host'
p1076
asbag60
(g81
g62
NtRp1077
(dp1078
g65
(dp1079
g92
g93
ssg74
g1068
sg67
(lp1080
S':'
asbag60
(g81
g62
NtRp1081
(dp1082
g65
(dp1083
sg74
g1068
sg67
(lp1084
g60
(g61
g62
NtRp1085
(dp1086
g65
(dp1087
g73
I4
ssg74
g1081
sg67
(lp1088
S'127.0.0.1:8000'
p1089
asbasbasbag60
(g76
g62
NtRp1090
(dp1091
g65
(dp1092
sg74
g776
sg67
(lp1093
g60
(g81
g62
NtRp1094
(dp1095
g65
(dp1096
g85
g86
ssg74
g1090
sg67
(lp1097
S'http_user_agent'
p1098
asbag60
(g81
g62
NtRp1099
(dp1100
g65
(dp1101
g92
g93
ssg74
g1090
sg67
(lp1102
S':'
asbag60
(g81
g62
NtRp1103
(dp1104
g65
(dp1105
sg74
g1090
sg67
(lp1106
g60
(g61
g62
NtRp1107
(dp1108
g65
(dp1109
g73
I4
ssg74
g1103
sg67
(lp1110
S'Mozilla/5.0 (Windows NT 6.1) AppleWebKit/536.11 (KHTML, like Gecko) Chrome/20.0.1132.47 Safari/536.11'
p1111
asbasbasbag60
(g76
g62
NtRp1112
(dp1113
g65
(dp1114
sg74
g776
sg67
(lp1115
g60
(g81
g62
NtRp1116
(dp1117
g65
(dp1118
g85
g86
ssg74
g1112
sg67
(lp1119
S'is_jython'
p1120
asbag60
(g81
g62
NtRp1121
(dp1122
g65
(dp1123
g92
g93
ssg74
g1112
sg67
(lp1124
S':'
asbag60
(g81
g62
NtRp1125
(dp1126
g65
(dp1127
sg74
g1112
sg67
(lp1128
g60
(g61
g62
NtRp1129
(dp1130
g65
(dp1131
g73
I4
ssg74
g1125
sg67
(lp1132
g103
asbasbasbag60
(g76
g62
NtRp1133
(dp1134
g65
(dp1135
sg74
g776
sg67
(lp1136
g60
(g81
g62
NtRp1137
(dp1138
g65
(dp1139
g85
g86
ssg74
g1133
sg67
(lp1140
S'is_pypy'
p1141
asbag60
(g81
g62
NtRp1142
(dp1143
g65
(dp1144
g92
g93
ssg74
g1133
sg67
(lp1145
S':'
asbag60
(g81
g62
NtRp1146
(dp1147
g65
(dp1148
sg74
g1133
sg67
(lp1149
g60
(g61
g62
NtRp1150
(dp1151
g65
(dp1152
g73
I4
ssg74
g1146
sg67
(lp1153
g103
asbasbasbag60
(g76
g62
NtRp1154
(dp1155
g65
(dp1156
sg74
g776
sg67
(lp1157
g60
(g81
g62
NtRp1158
(dp1159
g65
(dp1160
g85
g86
ssg74
g1154
sg67
(lp1161
S'path_info'
p1162
asbag60
(g81
g62
NtRp1163
(dp1164
g65
(dp1165
g92
g93
ssg74
g1154
sg67
(lp1166
S':'
asbag60
(g81
g62
NtRp1167
(dp1168
g65
(dp1169
sg74
g1154
sg67
(lp1170
g60
(g61
g62
NtRp1171
(dp1172
g65
(dp1173
g73
I4
ssg74
g1167
sg67
(lp1174
S'/sitsit/default/sitsit/2'
p1175
asbasbasbag60
(g76
g62
NtRp1176
(dp1177
g65
(dp1178
sg74
g776
sg67
(lp1179
g60
(g81
g62
NtRp1180
(dp1181
g65
(dp1182
g85
g86
ssg74
g1176
sg67
(lp1183
S'query_string'
p1184
asbag60
(g81
g62
NtRp1185
(dp1186
g65
(dp1187
g92
g93
ssg74
g1176
sg67
(lp1188
S':'
asbag60
(g81
g62
NtRp1189
(dp1190
g65
(dp1191
sg74
g1176
sg67
(lp1192
g60
(g61
g62
NtRp1193
(dp1194
g65
(dp1195
g73
I4
ssg74
g1189
sg67
(lp1196
S''
asbasbasbag60
(g76
g62
NtRp1197
(dp1198
g65
(dp1199
sg74
g776
sg67
(lp1200
g60
(g81
g62
NtRp1201
(dp1202
g65
(dp1203
g85
g86
ssg74
g1197
sg67
(lp1204
S'remote_addr'
p1205
asbag60
(g81
g62
NtRp1206
(dp1207
g65
(dp1208
g92
g93
ssg74
g1197
sg67
(lp1209
S':'
asbag60
(g81
g62
NtRp1210
(dp1211
g65
(dp1212
sg74
g1197
sg67
(lp1213
g60
(g61
g62
NtRp1214
(dp1215
g65
(dp1216
g73
I4
ssg74
g1210
sg67
(lp1217
g205
asbasbasbag60
(g76
g62
NtRp1218
(dp1219
g65
(dp1220
sg74
g776
sg67
(lp1221
g60
(g81
g62
NtRp1222
(dp1223
g65
(dp1224
g85
g86
ssg74
g1218
sg67
(lp1225
S'remote_port'
p1226
asbag60
(g81
g62
NtRp1227
(dp1228
g65
(dp1229
g92
g93
ssg74
g1218
sg67
(lp1230
S':'
asbag60
(g81
g62
NtRp1231
(dp1232
g65
(dp1233
sg74
g1218
sg67
(lp1234
g60
(g61
g62
NtRp1235
(dp1236
g65
(dp1237
g73
I4
ssg74
g1231
sg67
(lp1238
S'57872'
p1239
asbasbasbag60
(g76
g62
NtRp1240
(dp1241
g65
(dp1242
sg74
g776
sg67
(lp1243
g60
(g81
g62
NtRp1244
(dp1245
g65
(dp1246
g85
g86
ssg74
g1240
sg67
(lp1247
S'request_method'
p1248
asbag60
(g81
g62
NtRp1249
(dp1250
g65
(dp1251
g92
g93
ssg74
g1240
sg67
(lp1252
S':'
asbag60
(g81
g62
NtRp1253
(dp1254
g65
(dp1255
sg74
g1240
sg67
(lp1256
g60
(g61
g62
NtRp1257
(dp1258
g65
(dp1259
g73
I4
ssg74
g1253
sg67
(lp1260
S'GET'
p1261
asbasbasbag60
(g76
g62
NtRp1262
(dp1263
g65
(dp1264
sg74
g776
sg67
(lp1265
g60
(g81
g62
NtRp1266
(dp1267
g65
(dp1268
g85
g86
ssg74
g1262
sg67
(lp1269
S'script_name'
p1270
asbag60
(g81
g62
NtRp1271
(dp1272
g65
(dp1273
g92
g93
ssg74
g1262
sg67
(lp1274
S':'
asbag60
(g81
g62
NtRp1275
(dp1276
g65
(dp1277
sg74
g1262
sg67
(lp1278
g60
(g61
g62
NtRp1279
(dp1280
g65
(dp1281
g73
I4
ssg74
g1275
sg67
(lp1282
S''
asbasbasbag60
(g76
g62
NtRp1283
(dp1284
g65
(dp1285
sg74
g776
sg67
(lp1286
g60
(g81
g62
NtRp1287
(dp1288
g65
(dp1289
g85
g86
ssg74
g1283
sg67
(lp1290
S'server_name'
p1291
asbag60
(g81
g62
NtRp1292
(dp1293
g65
(dp1294
g92
g93
ssg74
g1283
sg67
(lp1295
S':'
asbag60
(g81
g62
NtRp1296
(dp1297
g65
(dp1298
sg74
g1283
sg67
(lp1299
g60
(g61
g62
NtRp1300
(dp1301
g65
(dp1302
g73
I4
ssg74
g1296
sg67
(lp1303
S'Osku-Kannettava'
p1304
asbasbasbag60
(g76
g62
NtRp1305
(dp1306
g65
(dp1307
sg74
g776
sg67
(lp1308
g60
(g81
g62
NtRp1309
(dp1310
g65
(dp1311
g85
g86
ssg74
g1305
sg67
(lp1312
S'server_port'
p1313
asbag60
(g81
g62
NtRp1314
(dp1315
g65
(dp1316
g92
g93
ssg74
g1305
sg67
(lp1317
S':'
asbag60
(g81
g62
NtRp1318
(dp1319
g65
(dp1320
sg74
g1305
sg67
(lp1321
g60
(g61
g62
NtRp1322
(dp1323
g65
(dp1324
g73
I4
ssg74
g1318
sg67
(lp1325
S'8000'
p1326
asbasbasbag60
(g76
g62
NtRp1327
(dp1328
g65
(dp1329
sg74
g776
sg67
(lp1330
g60
(g81
g62
NtRp1331
(dp1332
g65
(dp1333
g85
g86
ssg74
g1327
sg67
(lp1334
S'server_protocol'
p1335
asbag60
(g81
g62
NtRp1336
(dp1337
g65
(dp1338
g92
g93
ssg74
g1327
sg67
(lp1339
S':'
asbag60
(g81
g62
NtRp1340
(dp1341
g65
(dp1342
sg74
g1327
sg67
(lp1343
g60
(g61
g62
NtRp1344
(dp1345
g65
(dp1346
g73
I4
ssg74
g1340
sg67
(lp1347
S'HTTP/1.1'
p1348
asbasbasbag60
(g76
g62
NtRp1349
(dp1350
g65
(dp1351
sg74
g776
sg67
(lp1352
g60
(g81
g62
NtRp1353
(dp1354
g65
(dp1355
g85
g86
ssg74
g1349
sg67
(lp1356
S'server_software'
p1357
asbag60
(g81
g62
NtRp1358
(dp1359
g65
(dp1360
g92
g93
ssg74
g1349
sg67
(lp1361
S':'
asbag60
(g81
g62
NtRp1362
(dp1363
g65
(dp1364
sg74
g1349
sg67
(lp1365
g60
(g61
g62
NtRp1366
(dp1367
g65
(dp1368
g73
I4
ssg74
g1362
sg67
(lp1369
S'Rocket 1.2.4'
p1370
asbasbasbag60
(g76
g62
NtRp1371
(dp1372
g65
(dp1373
sg74
g776
sg67
(lp1374
g60
(g81
g62
NtRp1375
(dp1376
g65
(dp1377
g85
g86
ssg74
g1371
sg67
(lp1378
S'web2py_crontype'
p1379
asbag60
(g81
g62
NtRp1380
(dp1381
g65
(dp1382
g92
g93
ssg74
g1371
sg67
(lp1383
S':'
asbag60
(g81
g62
NtRp1384
(dp1385
g65
(dp1386
sg74
g1371
sg67
(lp1387
g60
(g61
g62
NtRp1388
(dp1389
g65
(dp1390
g73
I4
ssg74
g1384
sg67
(lp1391
S'hard'
p1392
asbasbasbag60
(g76
g62
NtRp1393
(dp1394
g65
(dp1395
sg74
g776
sg67
(lp1396
g60
(g81
g62
NtRp1397
(dp1398
g65
(dp1399
g85
g86
ssg74
g1393
sg67
(lp1400
S'web2py_path'
p1401
asbag60
(g81
g62
NtRp1402
(dp1403
g65
(dp1404
g92
g93
ssg74
g1393
sg67
(lp1405
S':'
asbag60
(g81
g62
NtRp1406
(dp1407
g65
(dp1408
sg74
g1393
sg67
(lp1409
g60
(g61
g62
NtRp1410
(dp1411
g65
(dp1412
g73
I4
ssg74
g1406
sg67
(lp1413
g823
asbasbasbag60
(g76
g62
NtRp1414
(dp1415
g65
(dp1416
sg74
g776
sg67
(lp1417
g60
(g81
g62
NtRp1418
(dp1419
g65
(dp1420
g85
g86
ssg74
g1414
sg67
(lp1421
S'web2py_version'
p1422
asbag60
(g81
g62
NtRp1423
(dp1424
g65
(dp1425
g92
g93
ssg74
g1414
sg67
(lp1426
S':'
asbag60
(g81
g62
NtRp1427
(dp1428
g65
(dp1429
sg74
g1414
sg67
(lp1430
g60
(g61
g62
NtRp1431
(dp1432
g65
(dp1433
g73
I4
ssg74
g1427
sg67
(lp1434
g60
(g69
g62
NtRp1435
(dp1436
g65
(dp1437
g73
I3
ssg74
Nsg67
(lp1438
g60
(g76
g62
NtRp1439
(dp1440
g65
(dp1441
sg74
g1435
sg67
(lp1442
g60
(g81
g62
NtRp1443
(dp1444
g65
(dp1445
sg74
g1439
sg67
(lp1446
g60
(g61
g62
NtRp1447
(dp1448
g65
(dp1449
g73
I3
ssg74
g1443
sg67
(lp1450
S'1'
asbasbasbag60
(g76
g62
NtRp1451
(dp1452
g65
(dp1453
sg74
g1435
sg67
(lp1454
g60
(g81
g62
NtRp1455
(dp1456
g65
(dp1457
sg74
g1451
sg67
(lp1458
g60
(g61
g62
NtRp1459
(dp1460
g65
(dp1461
g73
I3
ssg74
g1455
sg67
(lp1462
S'99'
p1463
asbasbasbag60
(g76
g62
NtRp1464
(dp1465
g65
(dp1466
sg74
g1435
sg67
(lp1467
g60
(g81
g62
NtRp1468
(dp1469
g65
(dp1470
sg74
g1464
sg67
(lp1471
g60
(g61
g62
NtRp1472
(dp1473
g65
(dp1474
g73
I3
ssg74
g1468
sg67
(lp1475
S'7'
asbasbasbag60
(g76
g62
NtRp1476
(dp1477
g65
(dp1478
sg74
g1435
sg67
(lp1479
g60
(g81
g62
NtRp1480
(dp1481
g65
(dp1482
sg74
g1476
sg67
(lp1483
g60
(g61
g62
NtRp1484
(dp1485
g65
(dp1486
g73
I3
ssg74
g1480
sg67
(lp1487
S'datetime.datetime(2012, 3, 4, 22, 12, 8)'
p1488
asbasbasbag60
(g76
g62
NtRp1489
(dp1490
g65
(dp1491
sg74
g1435
sg67
(lp1492
g60
(g81
g62
NtRp1493
(dp1494
g65
(dp1495
sg74
g1489
sg67
(lp1496
g60
(g61
g62
NtRp1497
(dp1498
g65
(dp1499
g73
I3
ssg74
g1493
sg67
(lp1500
S'stable'
p1501
asbasbasbasbasbasbasbag60
(g76
g62
NtRp1502
(dp1503
g65
(dp1504
sg74
g776
sg67
(lp1505
g60
(g81
g62
NtRp1506
(dp1507
g65
(dp1508
g85
g86
ssg74
g1502
sg67
(lp1509
S'wsgi_errors'
p1510
asbag60
(g81
g62
NtRp1511
(dp1512
g65
(dp1513
g92
g93
ssg74
g1502
sg67
(lp1514
S':'
asbag60
(g81
g62
NtRp1515
(dp1516
g65
(dp1517
sg74
g1502
sg67
(lp1518
g60
(g61
g62
NtRp1519
(dp1520
g65
(dp1521
g73
I4
ssg74
g1515
sg67
(lp1522
S"<open file '<stderr>', mode 'w' at 0x014F00B0>"
p1523
asbasbasbag60
(g76
g62
NtRp1524
(dp1525
g65
(dp1526
sg74
g776
sg67
(lp1527
g60
(g81
g62
NtRp1528
(dp1529
g65
(dp1530
g85
g86
ssg74
g1524
sg67
(lp1531
S'wsgi_file_wrapper'
p1532
asbag60
(g81
g62
NtRp1533
(dp1534
g65
(dp1535
g92
g93
ssg74
g1524
sg67
(lp1536
S':'
asbag60
(g81
g62
NtRp1537
(dp1538
g65
(dp1539
sg74
g1524
sg67
(lp1540
g60
(g61
g62
NtRp1541
(dp1542
g65
(dp1543
g73
I4
ssg74
g1537
sg67
(lp1544
S'<class wsgiref.util.FileWrapper at 0x020041E0>'
p1545
asbasbasbag60
(g76
g62
NtRp1546
(dp1547
g65
(dp1548
sg74
g776
sg67
(lp1549
g60
(g81
g62
NtRp1550
(dp1551
g65
(dp1552
g85
g86
ssg74
g1546
sg67
(lp1553
S'wsgi_input'
p1554
asbag60
(g81
g62
NtRp1555
(dp1556
g65
(dp1557
g92
g93
ssg74
g1546
sg67
(lp1558
S':'
asbag60
(g81
g62
NtRp1559
(dp1560
g65
(dp1561
sg74
g1546
sg67
(lp1562
g60
(g61
g62
NtRp1563
(dp1564
g65
(dp1565
g73
I4
ssg74
g1559
sg67
(lp1566
S'<socket._fileobject object at 0x04E2B970>'
p1567
asbasbasbag60
(g76
g62
NtRp1568
(dp1569
g65
(dp1570
sg74
g776
sg67
(lp1571
g60
(g81
g62
NtRp1572
(dp1573
g65
(dp1574
g85
g86
ssg74
g1568
sg67
(lp1575
S'wsgi_multiprocess'
p1576
asbag60
(g81
g62
NtRp1577
(dp1578
g65
(dp1579
g92
g93
ssg74
g1568
sg67
(lp1580
S':'
asbag60
(g81
g62
NtRp1581
(dp1582
g65
(dp1583
sg74
g1568
sg67
(lp1584
g60
(g61
g62
NtRp1585
(dp1586
g65
(dp1587
g73
I4
ssg74
g1581
sg67
(lp1588
g103
asbasbasbag60
(g76
g62
NtRp1589
(dp1590
g65
(dp1591
sg74
g776
sg67
(lp1592
g60
(g81
g62
NtRp1593
(dp1594
g65
(dp1595
g85
g86
ssg74
g1589
sg67
(lp1596
S'wsgi_multithread'
p1597
asbag60
(g81
g62
NtRp1598
(dp1599
g65
(dp1600
g92
g93
ssg74
g1589
sg67
(lp1601
S':'
asbag60
(g81
g62
NtRp1602
(dp1603
g65
(dp1604
sg74
g1589
sg67
(lp1605
g60
(g61
g62
NtRp1606
(dp1607
g65
(dp1608
g73
I4
ssg74
g1602
sg67
(lp1609
S'True'
p1610
asbasbasbag60
(g76
g62
NtRp1611
(dp1612
g65
(dp1613
sg74
g776
sg67
(lp1614
g60
(g81
g62
NtRp1615
(dp1616
g65
(dp1617
g85
g86
ssg74
g1611
sg67
(lp1618
S'wsgi_run_once'
p1619
asbag60
(g81
g62
NtRp1620
(dp1621
g65
(dp1622
g92
g93
ssg74
g1611
sg67
(lp1623
S':'
asbag60
(g81
g62
NtRp1624
(dp1625
g65
(dp1626
sg74
g1611
sg67
(lp1627
g60
(g61
g62
NtRp1628
(dp1629
g65
(dp1630
g73
I4
ssg74
g1624
sg67
(lp1631
g103
asbasbasbag60
(g76
g62
NtRp1632
(dp1633
g65
(dp1634
sg74
g776
sg67
(lp1635
g60
(g81
g62
NtRp1636
(dp1637
g65
(dp1638
g85
g86
ssg74
g1632
sg67
(lp1639
S'wsgi_url_scheme'
p1640
asbag60
(g81
g62
NtRp1641
(dp1642
g65
(dp1643
g92
g93
ssg74
g1632
sg67
(lp1644
S':'
asbag60
(g81
g62
NtRp1645
(dp1646
g65
(dp1647
sg74
g1632
sg67
(lp1648
g60
(g61
g62
NtRp1649
(dp1650
g65
(dp1651
g73
I4
ssg74
g1645
sg67
(lp1652
S'http'
p1653
asbasbasbag60
(g76
g62
NtRp1654
(dp1655
g65
(dp1656
sg74
g776
sg67
(lp1657
g60
(g81
g62
NtRp1658
(dp1659
g65
(dp1660
g85
g86
ssg74
g1654
sg67
(lp1661
S'wsgi_version'
p1662
asbag60
(g81
g62
NtRp1663
(dp1664
g65
(dp1665
g92
g93
ssg74
g1654
sg67
(lp1666
S':'
asbag60
(g81
g62
NtRp1667
(dp1668
g65
(dp1669
sg74
g1654
sg67
(lp1670
g60
(g61
g62
NtRp1671
(dp1672
g65
(dp1673
g73
I4
ssg74
g1667
sg67
(lp1674
g60
(g69
g62
NtRp1675
(dp1676
g65
(dp1677
g73
I3
ssg74
Nsg67
(lp1678
g60
(g76
g62
NtRp1679
(dp1680
g65
(dp1681
sg74
g1675
sg67
(lp1682
g60
(g81
g62
NtRp1683
(dp1684
g65
(dp1685
sg74
g1679
sg67
(lp1686
g60
(g61
g62
NtRp1687
(dp1688
g65
(dp1689
g73
I3
ssg74
g1683
sg67
(lp1690
S'1'
asbasbasbag60
(g76
g62
NtRp1691
(dp1692
g65
(dp1693
sg74
g1675
sg67
(lp1694
g60
(g81
g62
NtRp1695
(dp1696
g65
(dp1697
sg74
g1691
sg67
(lp1698
g60
(g61
g62
NtRp1699
(dp1700
g65
(dp1701
g73
I3
ssg74
g1695
sg67
(lp1702
S'0'
asbasbasbasbasbasbasbasbasbasbasbag60
(g76
g62
NtRp1703
(dp1704
g65
(dp1705
sg74
g70
sg67
(lp1706
g60
(g81
g62
NtRp1707
(dp1708
g65
(dp1709
g85
g86
ssg74
g1703
sg67
(lp1710
S'extension'
p1711
asbag60
(g81
g62
NtRp1712
(dp1713
g65
(dp1714
g92
g93
ssg74
g1703
sg67
(lp1715
S':'
asbag60
(g81
g62
NtRp1716
(dp1717
g65
(dp1718
sg74
g1703
sg67
(lp1719
g60
(g61
g62
NtRp1720
(dp1721
g65
(dp1722
g73
I5
ssg74
g1716
sg67
(lp1723
S'html'
p1724
asbasbasbag60
(g76
g62
NtRp1725
(dp1726
g65
(dp1727
sg74
g70
sg67
(lp1728
g60
(g81
g62
NtRp1729
(dp1730
g65
(dp1731
g85
g86
ssg74
g1725
sg67
(lp1732
S'folder'
p1733
asbag60
(g81
g62
NtRp1734
(dp1735
g65
(dp1736
g92
g93
ssg74
g1725
sg67
(lp1737
S':'
asbag60
(g81
g62
NtRp1738
(dp1739
g65
(dp1740
sg74
g1725
sg67
(lp1741
g60
(g61
g62
NtRp1742
(dp1743
g65
(dp1744
g73
I5
ssg74
g1738
sg67
(lp1745
S'C:\\Users\\Osku\\koodaus\\web2py\\applications\\sitsit\\'
p1746
asbasbasbag60
(g76
g62
NtRp1747
(dp1748
g65
(dp1749
sg74
g70
sg67
(lp1750
g60
(g81
g62
NtRp1751
(dp1752
g65
(dp1753
g85
g86
ssg74
g1747
sg67
(lp1754
S'function'
p1755
asbag60
(g81
g62
NtRp1756
(dp1757
g65
(dp1758
g92
g93
ssg74
g1747
sg67
(lp1759
S':'
asbag60
(g81
g62
NtRp1760
(dp1761
g65
(dp1762
sg74
g1747
sg67
(lp1763
g60
(g61
g62
NtRp1764
(dp1765
g65
(dp1766
g73
I5
ssg74
g1760
sg67
(lp1767
S'sitsit'
p1768
asbasbasbag60
(g76
g62
NtRp1769
(dp1770
g65
(dp1771
sg74
g70
sg67
(lp1772
g60
(g81
g62
NtRp1773
(dp1774
g65
(dp1775
g85
g86
ssg74
g1769
sg67
(lp1776
S'get_vars'
p1777
asbag60
(g81
g62
NtRp1778
(dp1779
g65
(dp1780
g92
g93
ssg74
g1769
sg67
(lp1781
S':'
asbag60
(g81
g62
NtRp1782
(dp1783
g65
(dp1784
sg74
g1769
sg67
(lp1785
g60
(g61
g62
NtRp1786
(dp1787
g65
(dp1788
g73
I5
ssg74
g1782
sg67
(lp1789
g60
(g69
g62
NtRp1790
(dp1791
g65
(dp1792
g73
I4
ssg74
Nsg67
(lp1793
sbasbasbasbag60
(g76
g62
NtRp1794
(dp1795
g65
(dp1796
sg74
g70
sg67
(lp1797
g60
(g81
g62
NtRp1798
(dp1799
g65
(dp1800
g85
g86
ssg74
g1794
sg67
(lp1801
S'global_settings'
p1802
asbag60
(g81
g62
NtRp1803
(dp1804
g65
(dp1805
g92
g93
ssg74
g1794
sg67
(lp1806
S':'
asbag60
(g81
g62
NtRp1807
(dp1808
g65
(dp1809
sg74
g1794
sg67
(lp1810
g60
(g61
g62
NtRp1811
(dp1812
g65
(dp1813
g73
I5
ssg74
g1807
sg67
(lp1814
g60
(g69
g62
NtRp1815
(dp1816
g65
(dp1817
g73
I4
ssg74
Nsg67
(lp1818
g60
(g76
g62
NtRp1819
(dp1820
g65
(dp1821
sg74
g1815
sg67
(lp1822
g60
(g81
g62
NtRp1823
(dp1824
g65
(dp1825
g85
g86
ssg74
g1819
sg67
(lp1826
g788
asbag60
(g81
g62
NtRp1827
(dp1828
g65
(dp1829
g92
g93
ssg74
g1819
sg67
(lp1830
S':'
asbag60
(g81
g62
NtRp1831
(dp1832
g65
(dp1833
sg74
g1819
sg67
(lp1834
g60
(g61
g62
NtRp1835
(dp1836
g65
(dp1837
g73
I4
ssg74
g1831
sg67
(lp1838
S"set(['C:\\\\Users\\\\Osku\\\\koodaus\\\\web2py\\\\applications\\\\sitsit\\\\', 'C:\\\\Users\\\\Osku\\\\koodaus\\\\web2py\\\\applications\\\\welcome\\\\', 'C:\\\\Users\\\\Osku\\\\koodaus\\\\web2py\\\\applications\\\\admin\\\\'])"
p1839
asbasbasbag60
(g76
g62
NtRp1840
(dp1841
g65
(dp1842
sg74
g1815
sg67
(lp1843
g60
(g81
g62
NtRp1844
(dp1845
g65
(dp1846
g85
g86
ssg74
g1840
sg67
(lp1847
g810
asbag60
(g81
g62
NtRp1848
(dp1849
g65
(dp1850
g92
g93
ssg74
g1840
sg67
(lp1851
S':'
asbag60
(g81
g62
NtRp1852
(dp1853
g65
(dp1854
sg74
g1840
sg67
(lp1855
g60
(g61
g62
NtRp1856
(dp1857
g65
(dp1858
g73
I4
ssg74
g1852
sg67
(lp1859
g823
asbasbasbag60
(g76
g62
NtRp1860
(dp1861
g65
(dp1862
sg74
g1815
sg67
(lp1863
g60
(g81
g62
NtRp1864
(dp1865
g65
(dp1866
g85
g86
ssg74
g1860
sg67
(lp1867
g832
asbag60
(g81
g62
NtRp1868
(dp1869
g65
(dp1870
g92
g93
ssg74
g1860
sg67
(lp1871
S':'
asbag60
(g81
g62
NtRp1872
(dp1873
g65
(dp1874
sg74
g1860
sg67
(lp1875
g60
(g61
g62
NtRp1876
(dp1877
g65
(dp1878
g73
I4
ssg74
g1872
sg67
(lp1879
g60
(g69
g62
NtRp1880
(dp1881
g65
(dp1882
g73
I3
ssg74
Nsg67
(lp1883
sbasbasbasbag60
(g76
g62
NtRp1884
(dp1885
g65
(dp1886
sg74
g1815
sg67
(lp1887
g60
(g81
g62
NtRp1888
(dp1889
g65
(dp1890
g85
g86
ssg74
g1884
sg67
(lp1891
g857
asbag60
(g81
g62
NtRp1892
(dp1893
g65
(dp1894
g92
g93
ssg74
g1884
sg67
(lp1895
S':'
asbag60
(g81
g62
NtRp1896
(dp1897
g65
(dp1898
sg74
g1884
sg67
(lp1899
g60
(g61
g62
NtRp1900
(dp1901
g65
(dp1902
g73
I4
ssg74
g1896
sg67
(lp1903
S"<Values at 0x2270030: {'verbose': False, 'ip': '127.0.0.1', 'shutdown_timeout': 5, 'taskbar': False, 'nocron': False, 'pid_filename': 'httpserver.pid', 'maxthreads': None, 'softcron': False, 'server_name': 'Osku-Kannettava', 'bpython': False, 'nogui': False, 'port': 8000, 'extcron': False, 'debuglevel': 30, 'test': None, 'folder': 'C:\\\\Users\\\\Osku\\\\koodaus\\\\web2py', 'config': '', 'import_models': False, 'winservice': '', 'shell': None, 'run': '', 'log_filename': 'httpserver.log', 'args': [''], 'socket_timeout': 5, 'ssl_ca_certificate': None, 'scheduler': None, 'profiler_filename': None, 'ssl_private_key': '', 'password': '<ask>', 'request_queue_size': 5, 'ssl_certificate': '', 'cronjob': False, 'numthreads': None, 'quiet': False, 'interfaces': None, 'minthreads': None, 'timeout': 10, 'plain': False, 'nobanner': False}>"
p1904
asbasbasbag60
(g76
g62
NtRp1905
(dp1906
g65
(dp1907
sg74
g1815
sg67
(lp1908
g60
(g81
g62
NtRp1909
(dp1910
g65
(dp1911
g85
g86
ssg74
g1905
sg67
(lp1912
g879
asbag60
(g81
g62
NtRp1913
(dp1914
g65
(dp1915
g92
g93
ssg74
g1905
sg67
(lp1916
S':'
asbag60
(g81
g62
NtRp1917
(dp1918
g65
(dp1919
sg74
g1905
sg67
(lp1920
g60
(g61
g62
NtRp1921
(dp1922
g65
(dp1923
g73
I4
ssg74
g1917
sg67
(lp1924
S'set([])'
p1925
asbasbasbag60
(g76
g62
NtRp1926
(dp1927
g65
(dp1928
sg74
g1815
sg67
(lp1929
g60
(g81
g62
NtRp1930
(dp1931
g65
(dp1932
g85
g86
ssg74
g1926
sg67
(lp1933
g901
asbag60
(g81
g62
NtRp1934
(dp1935
g65
(dp1936
g92
g93
ssg74
g1926
sg67
(lp1937
S':'
asbag60
(g81
g62
NtRp1938
(dp1939
g65
(dp1940
sg74
g1926
sg67
(lp1941
g60
(g61
g62
NtRp1942
(dp1943
g65
(dp1944
g73
I4
ssg74
g1938
sg67
(lp1945
g103
asbasbasbag60
(g76
g62
NtRp1946
(dp1947
g65
(dp1948
sg74
g1815
sg67
(lp1949
g60
(g81
g62
NtRp1950
(dp1951
g65
(dp1952
g85
g86
ssg74
g1946
sg67
(lp1953
g922
asbag60
(g81
g62
NtRp1954
(dp1955
g65
(dp1956
g92
g93
ssg74
g1946
sg67
(lp1957
S':'
asbag60
(g81
g62
NtRp1958
(dp1959
g65
(dp1960
sg74
g1946
sg67
(lp1961
g60
(g61
g62
NtRp1962
(dp1963
g65
(dp1964
g73
I4
ssg74
g1958
sg67
(lp1965
g935
asbasbasbag60
(g76
g62
NtRp1966
(dp1967
g65
(dp1968
sg74
g1815
sg67
(lp1969
g60
(g81
g62
NtRp1970
(dp1971
g65
(dp1972
g85
g86
ssg74
g1966
sg67
(lp1973
g1120
asbag60
(g81
g62
NtRp1974
(dp1975
g65
(dp1976
g92
g93
ssg74
g1966
sg67
(lp1977
S':'
asbag60
(g81
g62
NtRp1978
(dp1979
g65
(dp1980
sg74
g1966
sg67
(lp1981
g60
(g61
g62
NtRp1982
(dp1983
g65
(dp1984
g73
I4
ssg74
g1978
sg67
(lp1985
g103
asbasbasbag60
(g76
g62
NtRp1986
(dp1987
g65
(dp1988
sg74
g1815
sg67
(lp1989
g60
(g81
g62
NtRp1990
(dp1991
g65
(dp1992
g85
g86
ssg74
g1986
sg67
(lp1993
g1141
asbag60
(g81
g62
NtRp1994
(dp1995
g65
(dp1996
g92
g93
ssg74
g1986
sg67
(lp1997
S':'
asbag60
(g81
g62
NtRp1998
(dp1999
g65
(dp2000
sg74
g1986
sg67
(lp2001
g60
(g61
g62
NtRp2002
(dp2003
g65
(dp2004
g73
I4
ssg74
g1998
sg67
(lp2005
g103
asbasbasbag60
(g76
g62
NtRp2006
(dp2007
g65
(dp2008
sg74
g1815
sg67
(lp2009
g60
(g81
g62
NtRp2010
(dp2011
g65
(dp2012
g85
g86
ssg74
g2006
sg67
(lp2013
g1379
asbag60
(g81
g62
NtRp2014
(dp2015
g65
(dp2016
g92
g93
ssg74
g2006
sg67
(lp2017
S':'
asbag60
(g81
g62
NtRp2018
(dp2019
g65
(dp2020
sg74
g2006
sg67
(lp2021
g60
(g61
g62
NtRp2022
(dp2023
g65
(dp2024
g73
I4
ssg74
g2018
sg67
(lp2025
g1392
asbasbasbag60
(g76
g62
NtRp2026
(dp2027
g65
(dp2028
sg74
g1815
sg67
(lp2029
g60
(g81
g62
NtRp2030
(dp2031
g65
(dp2032
g85
g86
ssg74
g2026
sg67
(lp2033
g1422
asbag60
(g81
g62
NtRp2034
(dp2035
g65
(dp2036
g92
g93
ssg74
g2026
sg67
(lp2037
S':'
asbag60
(g81
g62
NtRp2038
(dp2039
g65
(dp2040
sg74
g2026
sg67
(lp2041
g60
(g61
g62
NtRp2042
(dp2043
g65
(dp2044
g73
I4
ssg74
g2038
sg67
(lp2045
g60
(g69
g62
NtRp2046
(dp2047
g65
(dp2048
g73
I3
ssg74
Nsg67
(lp2049
g60
(g76
g62
NtRp2050
(dp2051
g65
(dp2052
sg74
g2046
sg67
(lp2053
g60
(g81
g62
NtRp2054
(dp2055
g65
(dp2056
sg74
g2050
sg67
(lp2057
g60
(g61
g62
NtRp2058
(dp2059
g65
(dp2060
g73
I3
ssg74
g2054
sg67
(lp2061
S'1'
asbasbasbag60
(g76
g62
NtRp2062
(dp2063
g65
(dp2064
sg74
g2046
sg67
(lp2065
g60
(g81
g62
NtRp2066
(dp2067
g65
(dp2068
sg74
g2062
sg67
(lp2069
g60
(g61
g62
NtRp2070
(dp2071
g65
(dp2072
g73
I3
ssg74
g2066
sg67
(lp2073
S'99'
p2074
asbasbasbag60
(g76
g62
NtRp2075
(dp2076
g65
(dp2077
sg74
g2046
sg67
(lp2078
g60
(g81
g62
NtRp2079
(dp2080
g65
(dp2081
sg74
g2075
sg67
(lp2082
g60
(g61
g62
NtRp2083
(dp2084
g65
(dp2085
g73
I3
ssg74
g2079
sg67
(lp2086
S'7'
asbasbasbag60
(g76
g62
NtRp2087
(dp2088
g65
(dp2089
sg74
g2046
sg67
(lp2090
g60
(g81
g62
NtRp2091
(dp2092
g65
(dp2093
sg74
g2087
sg67
(lp2094
g60
(g61
g62
NtRp2095
(dp2096
g65
(dp2097
g73
I3
ssg74
g2091
sg67
(lp2098
S'datetime.datetime(2012, 3, 4, 22, 12, 8)'
p2099
asbasbasbag60
(g76
g62
NtRp2100
(dp2101
g65
(dp2102
sg74
g2046
sg67
(lp2103
g60
(g81
g62
NtRp2104
(dp2105
g65
(dp2106
sg74
g2100
sg67
(lp2107
g60
(g61
g62
NtRp2108
(dp2109
g65
(dp2110
g73
I3
ssg74
g2104
sg67
(lp2111
g1501
asbasbasbasbasbasbasbasbasbasbasbag60
(g76
g62
NtRp2112
(dp2113
g65
(dp2114
sg74
g70
sg67
(lp2115
g60
(g81
g62
NtRp2116
(dp2117
g65
(dp2118
g85
g86
ssg74
g2112
sg67
(lp2119
S'is_https'
p2120
asbag60
(g81
g62
NtRp2121
(dp2122
g65
(dp2123
g92
g93
ssg74
g2112
sg67
(lp2124
S':'
asbag60
(g81
g62
NtRp2125
(dp2126
g65
(dp2127
sg74
g2112
sg67
(lp2128
g60
(g61
g62
NtRp2129
(dp2130
g65
(dp2131
g73
I5
ssg74
g2125
sg67
(lp2132
g103
asbasbasbag60
(g76
g62
NtRp2133
(dp2134
g65
(dp2135
sg74
g70
sg67
(lp2136
g60
(g81
g62
NtRp2137
(dp2138
g65
(dp2139
g85
g86
ssg74
g2133
sg67
(lp2140
S'is_local'
p2141
asbag60
(g81
g62
NtRp2142
(dp2143
g65
(dp2144
g92
g93
ssg74
g2133
sg67
(lp2145
S':'
asbag60
(g81
g62
NtRp2146
(dp2147
g65
(dp2148
sg74
g2133
sg67
(lp2149
g60
(g61
g62
NtRp2150
(dp2151
g65
(dp2152
g73
I5
ssg74
g2146
sg67
(lp2153
g1610
asbasbasbag60
(g76
g62
NtRp2154
(dp2155
g65
(dp2156
sg74
g70
sg67
(lp2157
g60
(g81
g62
NtRp2158
(dp2159
g65
(dp2160
g85
g86
ssg74
g2154
sg67
(lp2161
S'is_restful'
p2162
asbag60
(g81
g62
NtRp2163
(dp2164
g65
(dp2165
g92
g93
ssg74
g2154
sg67
(lp2166
S':'
asbag60
(g81
g62
NtRp2167
(dp2168
g65
(dp2169
sg74
g2154
sg67
(lp2170
g60
(g61
g62
NtRp2171
(dp2172
g65
(dp2173
g73
I5
ssg74
g2167
sg67
(lp2174
g103
asbasbasbag60
(g76
g62
NtRp2175
(dp2176
g65
(dp2177
sg74
g70
sg67
(lp2178
g60
(g81
g62
NtRp2179
(dp2180
g65
(dp2181
g85
g86
ssg74
g2175
sg67
(lp2182
S'now'
p2183
asbag60
(g81
g62
NtRp2184
(dp2185
g65
(dp2186
g92
g93
ssg74
g2175
sg67
(lp2187
S':'
asbag60
(g81
g62
NtRp2188
(dp2189
g65
(dp2190
sg74
g2175
sg67
(lp2191
g60
(g61
g62
NtRp2192
(dp2193
g65
(dp2194
g73
I5
ssg74
g2188
sg67
(lp2195
S'datetime.datetime(2012, 7, 6, 23, 16, 27, 667000)'
p2196
asbasbasbag60
(g76
g62
NtRp2197
(dp2198
g65
(dp2199
sg74
g70
sg67
(lp2200
g60
(g81
g62
NtRp2201
(dp2202
g65
(dp2203
g85
g86
ssg74
g2197
sg67
(lp2204
S'post_vars'
p2205
asbag60
(g81
g62
NtRp2206
(dp2207
g65
(dp2208
g92
g93
ssg74
g2197
sg67
(lp2209
S':'
asbag60
(g81
g62
NtRp2210
(dp2211
g65
(dp2212
sg74
g2197
sg67
(lp2213
g60
(g61
g62
NtRp2214
(dp2215
g65
(dp2216
g73
I5
ssg74
g2210
sg67
(lp2217
g60
(g69
g62
NtRp2218
(dp2219
g65
(dp2220
g73
I4
ssg74
Nsg67
(lp2221
sbasbasbasbag60
(g76
g62
NtRp2222
(dp2223
g65
(dp2224
sg74
g70
sg67
(lp2225
g60
(g81
g62
NtRp2226
(dp2227
g65
(dp2228
g85
g86
ssg74
g2222
sg67
(lp2229
S'raw_args'
p2230
asbag60
(g81
g62
NtRp2231
(dp2232
g65
(dp2233
g92
g93
ssg74
g2222
sg67
(lp2234
S':'
asbag60
(g81
g62
NtRp2235
(dp2236
g65
(dp2237
sg74
g2222
sg67
(lp2238
g60
(g61
g62
NtRp2239
(dp2240
g65
(dp2241
g73
I5
ssg74
g2235
sg67
(lp2242
S'2'
asbasbasbag60
(g76
g62
NtRp2243
(dp2244
g65
(dp2245
sg74
g70
sg67
(lp2246
g60
(g81
g62
NtRp2247
(dp2248
g65
(dp2249
g85
g86
ssg74
g2243
sg67
(lp2250
S'url'
p2251
asbag60
(g81
g62
NtRp2252
(dp2253
g65
(dp2254
g92
g93
ssg74
g2243
sg67
(lp2255
S':'
asbag60
(g81
g62
NtRp2256
(dp2257
g65
(dp2258
sg74
g2243
sg67
(lp2259
g60
(g61
g62
NtRp2260
(dp2261
g65
(dp2262
g73
I5
ssg74
g2256
sg67
(lp2263
S'/sitsit/default/sitsit/2'
p2264
asbasbasbag60
(g76
g62
NtRp2265
(dp2266
g65
(dp2267
sg74
g70
sg67
(lp2268
g60
(g81
g62
NtRp2269
(dp2270
g65
(dp2271
g85
g86
ssg74
g2265
sg67
(lp2272
S'utcnow'
p2273
asbag60
(g81
g62
NtRp2274
(dp2275
g65
(dp2276
g92
g93
ssg74
g2265
sg67
(lp2277
S':'
asbag60
(g81
g62
NtRp2278
(dp2279
g65
(dp2280
sg74
g2265
sg67
(lp2281
g60
(g61
g62
NtRp2282
(dp2283
g65
(dp2284
g73
I5
ssg74
g2278
sg67
(lp2285
S'datetime.datetime(2012, 7, 6, 21, 16, 27, 667000)'
p2286
asbasbasbag60
(g76
g62
NtRp2287
(dp2288
g65
(dp2289
sg74
g70
sg67
(lp2290
g60
(g81
g62
NtRp2291
(dp2292
g65
(dp2293
g85
g86
ssg74
g2287
sg67
(lp2294
S'uuid'
p2295
asbag60
(g81
g62
NtRp2296
(dp2297
g65
(dp2298
g92
g93
ssg74
g2287
sg67
(lp2299
S':'
asbag60
(g81
g62
NtRp2300
(dp2301
g65
(dp2302
sg74
g2287
sg67
(lp2303
g60
(g61
g62
NtRp2304
(dp2305
g65
(dp2306
g73
I5
ssg74
g2300
sg67
(lp2307
S'sitsit/127.0.0.1.2012-07-06.23-16-27.9656bc99-17d5-4da0-875d-d87bbb53d141'
p2308
asbasbasbag60
(g76
g62
NtRp2309
(dp2310
g65
(dp2311
sg74
g70
sg67
(lp2312
g60
(g81
g62
NtRp2313
(dp2314
g65
(dp2315
g85
g86
ssg74
g2309
sg67
(lp2316
S'vars'
p2317
asbag60
(g81
g62
NtRp2318
(dp2319
g65
(dp2320
g92
g93
ssg74
g2309
sg67
(lp2321
S':'
asbag60
(g81
g62
NtRp2322
(dp2323
g65
(dp2324
sg74
g2309
sg67
(lp2325
g60
(g61
g62
NtRp2326
(dp2327
g65
(dp2328
g73
I5
ssg74
g2322
sg67
(lp2329
g60
(g69
g62
NtRp2330
(dp2331
g65
(dp2332
g73
I4
ssg74
Nsg67
(lp2333
sbasbasbasbag60
(g76
g62
NtRp2334
(dp2335
g65
(dp2336
sg74
g70
sg67
(lp2337
g60
(g81
g62
NtRp2338
(dp2339
g65
(dp2340
g85
g86
ssg74
g2334
sg67
(lp2341
S'wsgi'
p2342
asbag60
(g81
g62
NtRp2343
(dp2344
g65
(dp2345
g92
g93
ssg74
g2334
sg67
(lp2346
S':'
asbag60
(g81
g62
NtRp2347
(dp2348
g65
(dp2349
sg74
g2334
sg67
(lp2350
g60
(g61
g62
NtRp2351
(dp2352
g65
(dp2353
g73
I5
ssg74
g2347
sg67
(lp2354
g60
(g69
g62
NtRp2355
(dp2356
g65
(dp2357
g73
I4
ssg74
Nsg67
(lp2358
g60
(g76
g62
NtRp2359
(dp2360
g65
(dp2361
sg74
g2355
sg67
(lp2362
g60
(g81
g62
NtRp2363
(dp2364
g65
(dp2365
g85
g86
ssg74
g2359
sg67
(lp2366
S'environ'
p2367
asbag60
(g81
g62
NtRp2368
(dp2369
g65
(dp2370
g92
g93
ssg74
g2359
sg67
(lp2371
S':'
asbag60
(g81
g62
NtRp2372
(dp2373
g65
(dp2374
sg74
g2359
sg67
(lp2375
g60
(g61
g62
NtRp2376
(dp2377
g65
(dp2378
g73
I4
ssg74
g2372
sg67
(lp2379
g60
(g69
g62
NtRp2380
(dp2381
g65
(dp2382
g73
I3
ssg74
Nsg67
(lp2383
g60
(g76
g62
NtRp2384
(dp2385
g65
(dp2386
sg74
g2380
sg67
(lp2387
g60
(g81
g62
NtRp2388
(dp2389
g65
(dp2390
g85
g86
ssg74
g2384
sg67
(lp2391
S'HTTP_ACCEPT'
p2392
asbag60
(g81
g62
NtRp2393
(dp2394
g65
(dp2395
g92
g93
ssg74
g2384
sg67
(lp2396
S':'
asbag60
(g81
g62
NtRp2397
(dp2398
g65
(dp2399
sg74
g2384
sg67
(lp2400
g60
(g61
g62
NtRp2401
(dp2402
g65
(dp2403
g73
I3
ssg74
g2397
sg67
(lp2404
g957
asbasbasbag60
(g76
g62
NtRp2405
(dp2406
g65
(dp2407
sg74
g2380
sg67
(lp2408
g60
(g81
g62
NtRp2409
(dp2410
g65
(dp2411
g85
g86
ssg74
g2405
sg67
(lp2412
S'HTTP_ACCEPT_CHARSET'
p2413
asbag60
(g81
g62
NtRp2414
(dp2415
g65
(dp2416
g92
g93
ssg74
g2405
sg67
(lp2417
S':'
asbag60
(g81
g62
NtRp2418
(dp2419
g65
(dp2420
sg74
g2405
sg67
(lp2421
g60
(g61
g62
NtRp2422
(dp2423
g65
(dp2424
g73
I3
ssg74
g2418
sg67
(lp2425
g979
asbasbasbag60
(g76
g62
NtRp2426
(dp2427
g65
(dp2428
sg74
g2380
sg67
(lp2429
g60
(g81
g62
NtRp2430
(dp2431
g65
(dp2432
g85
g86
ssg74
g2426
sg67
(lp2433
S'HTTP_ACCEPT_ENCODING'
p2434
asbag60
(g81
g62
NtRp2435
(dp2436
g65
(dp2437
g92
g93
ssg74
g2426
sg67
(lp2438
S':'
asbag60
(g81
g62
NtRp2439
(dp2440
g65
(dp2441
sg74
g2426
sg67
(lp2442
g60
(g61
g62
NtRp2443
(dp2444
g65
(dp2445
g73
I3
ssg74
g2439
sg67
(lp2446
g1001
asbasbasbag60
(g76
g62
NtRp2447
(dp2448
g65
(dp2449
sg74
g2380
sg67
(lp2450
g60
(g81
g62
NtRp2451
(dp2452
g65
(dp2453
g85
g86
ssg74
g2447
sg67
(lp2454
S'HTTP_ACCEPT_LANGUAGE'
p2455
asbag60
(g81
g62
NtRp2456
(dp2457
g65
(dp2458
g92
g93
ssg74
g2447
sg67
(lp2459
S':'
asbag60
(g81
g62
NtRp2460
(dp2461
g65
(dp2462
sg74
g2447
sg67
(lp2463
g60
(g61
g62
NtRp2464
(dp2465
g65
(dp2466
g73
I3
ssg74
g2460
sg67
(lp2467
g1023
asbasbasbag60
(g76
g62
NtRp2468
(dp2469
g65
(dp2470
sg74
g2380
sg67
(lp2471
g60
(g81
g62
NtRp2472
(dp2473
g65
(dp2474
g85
g86
ssg74
g2468
sg67
(lp2475
S'HTTP_CONNECTION'
p2476
asbag60
(g81
g62
NtRp2477
(dp2478
g65
(dp2479
g92
g93
ssg74
g2468
sg67
(lp2480
S':'
asbag60
(g81
g62
NtRp2481
(dp2482
g65
(dp2483
sg74
g2468
sg67
(lp2484
g60
(g61
g62
NtRp2485
(dp2486
g65
(dp2487
g73
I3
ssg74
g2481
sg67
(lp2488
g1045
asbasbasbag60
(g76
g62
NtRp2489
(dp2490
g65
(dp2491
sg74
g2380
sg67
(lp2492
g60
(g81
g62
NtRp2493
(dp2494
g65
(dp2495
g85
g86
ssg74
g2489
sg67
(lp2496
S'HTTP_COOKIE'
p2497
asbag60
(g81
g62
NtRp2498
(dp2499
g65
(dp2500
g92
g93
ssg74
g2489
sg67
(lp2501
S':'
asbag60
(g81
g62
NtRp2502
(dp2503
g65
(dp2504
sg74
g2489
sg67
(lp2505
g60
(g61
g62
NtRp2506
(dp2507
g65
(dp2508
g73
I3
ssg74
g2502
sg67
(lp2509
g1067
asbasbasbag60
(g76
g62
NtRp2510
(dp2511
g65
(dp2512
sg74
g2380
sg67
(lp2513
g60
(g81
g62
NtRp2514
(dp2515
g65
(dp2516
g85
g86
ssg74
g2510
sg67
(lp2517
S'HTTP_HOST'
p2518
asbag60
(g81
g62
NtRp2519
(dp2520
g65
(dp2521
g92
g93
ssg74
g2510
sg67
(lp2522
S':'
asbag60
(g81
g62
NtRp2523
(dp2524
g65
(dp2525
sg74
g2510
sg67
(lp2526
g60
(g61
g62
NtRp2527
(dp2528
g65
(dp2529
g73
I3
ssg74
g2523
sg67
(lp2530
g1089
asbasbasbag60
(g76
g62
NtRp2531
(dp2532
g65
(dp2533
sg74
g2380
sg67
(lp2534
g60
(g81
g62
NtRp2535
(dp2536
g65
(dp2537
g85
g86
ssg74
g2531
sg67
(lp2538
S'HTTP_USER_AGENT'
p2539
asbag60
(g81
g62
NtRp2540
(dp2541
g65
(dp2542
g92
g93
ssg74
g2531
sg67
(lp2543
S':'
asbag60
(g81
g62
NtRp2544
(dp2545
g65
(dp2546
sg74
g2531
sg67
(lp2547
g60
(g61
g62
NtRp2548
(dp2549
g65
(dp2550
g73
I3
ssg74
g2544
sg67
(lp2551
g1111
asbasbasbag60
(g76
g62
NtRp2552
(dp2553
g65
(dp2554
sg74
g2380
sg67
(lp2555
g60
(g81
g62
NtRp2556
(dp2557
g65
(dp2558
g85
g86
ssg74
g2552
sg67
(lp2559
S'PATH_INFO'
p2560
asbag60
(g81
g62
NtRp2561
(dp2562
g65
(dp2563
g92
g93
ssg74
g2552
sg67
(lp2564
S':'
asbag60
(g81
g62
NtRp2565
(dp2566
g65
(dp2567
sg74
g2552
sg67
(lp2568
g60
(g61
g62
NtRp2569
(dp2570
g65
(dp2571
g73
I3
ssg74
g2565
sg67
(lp2572
g1175
asbasbasbag60
(g76
g62
NtRp2573
(dp2574
g65
(dp2575
sg74
g2380
sg67
(lp2576
g60
(g81
g62
NtRp2577
(dp2578
g65
(dp2579
g85
g86
ssg74
g2573
sg67
(lp2580
S'QUERY_STRING'
p2581
asbag60
(g81
g62
NtRp2582
(dp2583
g65
(dp2584
g92
g93
ssg74
g2573
sg67
(lp2585
S':'
asbag60
(g81
g62
NtRp2586
(dp2587
g65
(dp2588
sg74
g2573
sg67
(lp2589
g60
(g61
g62
NtRp2590
(dp2591
g65
(dp2592
g73
I3
ssg74
g2586
sg67
(lp2593
S''
asbasbasbag60
(g76
g62
NtRp2594
(dp2595
g65
(dp2596
sg74
g2380
sg67
(lp2597
g60
(g81
g62
NtRp2598
(dp2599
g65
(dp2600
g85
g86
ssg74
g2594
sg67
(lp2601
S'REMOTE_ADDR'
p2602
asbag60
(g81
g62
NtRp2603
(dp2604
g65
(dp2605
g92
g93
ssg74
g2594
sg67
(lp2606
S':'
asbag60
(g81
g62
NtRp2607
(dp2608
g65
(dp2609
sg74
g2594
sg67
(lp2610
g60
(g61
g62
NtRp2611
(dp2612
g65
(dp2613
g73
I3
ssg74
g2607
sg67
(lp2614
g205
asbasbasbag60
(g76
g62
NtRp2615
(dp2616
g65
(dp2617
sg74
g2380
sg67
(lp2618
g60
(g81
g62
NtRp2619
(dp2620
g65
(dp2621
g85
g86
ssg74
g2615
sg67
(lp2622
S'REMOTE_PORT'
p2623
asbag60
(g81
g62
NtRp2624
(dp2625
g65
(dp2626
g92
g93
ssg74
g2615
sg67
(lp2627
S':'
asbag60
(g81
g62
NtRp2628
(dp2629
g65
(dp2630
sg74
g2615
sg67
(lp2631
g60
(g61
g62
NtRp2632
(dp2633
g65
(dp2634
g73
I3
ssg74
g2628
sg67
(lp2635
g1239
asbasbasbag60
(g76
g62
NtRp2636
(dp2637
g65
(dp2638
sg74
g2380
sg67
(lp2639
g60
(g81
g62
NtRp2640
(dp2641
g65
(dp2642
g85
g86
ssg74
g2636
sg67
(lp2643
S'REQUEST_METHOD'
p2644
asbag60
(g81
g62
NtRp2645
(dp2646
g65
(dp2647
g92
g93
ssg74
g2636
sg67
(lp2648
S':'
asbag60
(g81
g62
NtRp2649
(dp2650
g65
(dp2651
sg74
g2636
sg67
(lp2652
g60
(g61
g62
NtRp2653
(dp2654
g65
(dp2655
g73
I3
ssg74
g2649
sg67
(lp2656
g1261
asbasbasbag60
(g76
g62
NtRp2657
(dp2658
g65
(dp2659
sg74
g2380
sg67
(lp2660
g60
(g81
g62
NtRp2661
(dp2662
g65
(dp2663
g85
g86
ssg74
g2657
sg67
(lp2664
S'SCRIPT_NAME'
p2665
asbag60
(g81
g62
NtRp2666
(dp2667
g65
(dp2668
g92
g93
ssg74
g2657
sg67
(lp2669
S':'
asbag60
(g81
g62
NtRp2670
(dp2671
g65
(dp2672
sg74
g2657
sg67
(lp2673
g60
(g61
g62
NtRp2674
(dp2675
g65
(dp2676
g73
I3
ssg74
g2670
sg67
(lp2677
S''
asbasbasbag60
(g76
g62
NtRp2678
(dp2679
g65
(dp2680
sg74
g2380
sg67
(lp2681
g60
(g81
g62
NtRp2682
(dp2683
g65
(dp2684
g85
g86
ssg74
g2678
sg67
(lp2685
S'SERVER_NAME'
p2686
asbag60
(g81
g62
NtRp2687
(dp2688
g65
(dp2689
g92
g93
ssg74
g2678
sg67
(lp2690
S':'
asbag60
(g81
g62
NtRp2691
(dp2692
g65
(dp2693
sg74
g2678
sg67
(lp2694
g60
(g61
g62
NtRp2695
(dp2696
g65
(dp2697
g73
I3
ssg74
g2691
sg67
(lp2698
g1304
asbasbasbag60
(g76
g62
NtRp2699
(dp2700
g65
(dp2701
sg74
g2380
sg67
(lp2702
g60
(g81
g62
NtRp2703
(dp2704
g65
(dp2705
g85
g86
ssg74
g2699
sg67
(lp2706
S'SERVER_PORT'
p2707
asbag60
(g81
g62
NtRp2708
(dp2709
g65
(dp2710
g92
g93
ssg74
g2699
sg67
(lp2711
S':'
asbag60
(g81
g62
NtRp2712
(dp2713
g65
(dp2714
sg74
g2699
sg67
(lp2715
g60
(g61
g62
NtRp2716
(dp2717
g65
(dp2718
g73
I3
ssg74
g2712
sg67
(lp2719
g1326
asbasbasbag60
(g76
g62
NtRp2720
(dp2721
g65
(dp2722
sg74
g2380
sg67
(lp2723
g60
(g81
g62
NtRp2724
(dp2725
g65
(dp2726
g85
g86
ssg74
g2720
sg67
(lp2727
S'SERVER_PROTOCOL'
p2728
asbag60
(g81
g62
NtRp2729
(dp2730
g65
(dp2731
g92
g93
ssg74
g2720
sg67
(lp2732
S':'
asbag60
(g81
g62
NtRp2733
(dp2734
g65
(dp2735
sg74
g2720
sg67
(lp2736
g60
(g61
g62
NtRp2737
(dp2738
g65
(dp2739
g73
I3
ssg74
g2733
sg67
(lp2740
g1348
asbasbasbag60
(g76
g62
NtRp2741
(dp2742
g65
(dp2743
sg74
g2380
sg67
(lp2744
g60
(g81
g62
NtRp2745
(dp2746
g65
(dp2747
g85
g86
ssg74
g2741
sg67
(lp2748
S'SERVER_SOFTWARE'
p2749
asbag60
(g81
g62
NtRp2750
(dp2751
g65
(dp2752
g92
g93
ssg74
g2741
sg67
(lp2753
S':'
asbag60
(g81
g62
NtRp2754
(dp2755
g65
(dp2756
sg74
g2741
sg67
(lp2757
g60
(g61
g62
NtRp2758
(dp2759
g65
(dp2760
g73
I3
ssg74
g2754
sg67
(lp2761
g1370
asbasbasbag60
(g76
g62
NtRp2762
(dp2763
g65
(dp2764
sg74
g2380
sg67
(lp2765
g60
(g81
g62
NtRp2766
(dp2767
g65
(dp2768
g85
g86
ssg74
g2762
sg67
(lp2769
S'wsgi.errors'
p2770
asbag60
(g81
g62
NtRp2771
(dp2772
g65
(dp2773
g92
g93
ssg74
g2762
sg67
(lp2774
S':'
asbag60
(g81
g62
NtRp2775
(dp2776
g65
(dp2777
sg74
g2762
sg67
(lp2778
g60
(g61
g62
NtRp2779
(dp2780
g65
(dp2781
g73
I3
ssg74
g2775
sg67
(lp2782
S"<open file '<stderr>', mode 'w' at 0x014F00B0>"
p2783
asbasbasbag60
(g76
g62
NtRp2784
(dp2785
g65
(dp2786
sg74
g2380
sg67
(lp2787
g60
(g81
g62
NtRp2788
(dp2789
g65
(dp2790
g85
g86
ssg74
g2784
sg67
(lp2791
S'wsgi.file_wrapper'
p2792
asbag60
(g81
g62
NtRp2793
(dp2794
g65
(dp2795
g92
g93
ssg74
g2784
sg67
(lp2796
S':'
asbag60
(g81
g62
NtRp2797
(dp2798
g65
(dp2799
sg74
g2784
sg67
(lp2800
g60
(g61
g62
NtRp2801
(dp2802
g65
(dp2803
g73
I3
ssg74
g2797
sg67
(lp2804
S'<class wsgiref.util.FileWrapper at 0x020041E0>'
p2805
asbasbasbag60
(g76
g62
NtRp2806
(dp2807
g65
(dp2808
sg74
g2380
sg67
(lp2809
g60
(g81
g62
NtRp2810
(dp2811
g65
(dp2812
g85
g86
ssg74
g2806
sg67
(lp2813
S'wsgi.input'
p2814
asbag60
(g81
g62
NtRp2815
(dp2816
g65
(dp2817
g92
g93
ssg74
g2806
sg67
(lp2818
S':'
asbag60
(g81
g62
NtRp2819
(dp2820
g65
(dp2821
sg74
g2806
sg67
(lp2822
g60
(g61
g62
NtRp2823
(dp2824
g65
(dp2825
g73
I3
ssg74
g2819
sg67
(lp2826
S'<cStringIO.StringO object at 0x052099C0>'
p2827
asbasbasbag60
(g76
g62
NtRp2828
(dp2829
g65
(dp2830
sg74
g2380
sg67
(lp2831
g60
(g81
g62
NtRp2832
(dp2833
g65
(dp2834
g85
g86
ssg74
g2828
sg67
(lp2835
S'wsgi.multiprocess'
p2836
asbag60
(g81
g62
NtRp2837
(dp2838
g65
(dp2839
g92
g93
ssg74
g2828
sg67
(lp2840
S':'
asbag60
(g81
g62
NtRp2841
(dp2842
g65
(dp2843
sg74
g2828
sg67
(lp2844
g60
(g61
g62
NtRp2845
(dp2846
g65
(dp2847
g73
I3
ssg74
g2841
sg67
(lp2848
g103
asbasbasbag60
(g76
g62
NtRp2849
(dp2850
g65
(dp2851
sg74
g2380
sg67
(lp2852
g60
(g81
g62
NtRp2853
(dp2854
g65
(dp2855
g85
g86
ssg74
g2849
sg67
(lp2856
S'wsgi.multithread'
p2857
asbag60
(g81
g62
NtRp2858
(dp2859
g65
(dp2860
g92
g93
ssg74
g2849
sg67
(lp2861
S':'
asbag60
(g81
g62
NtRp2862
(dp2863
g65
(dp2864
sg74
g2849
sg67
(lp2865
g60
(g61
g62
NtRp2866
(dp2867
g65
(dp2868
g73
I3
ssg74
g2862
sg67
(lp2869
g1610
asbasbasbag60
(g76
g62
NtRp2870
(dp2871
g65
(dp2872
sg74
g2380
sg67
(lp2873
g60
(g81
g62
NtRp2874
(dp2875
g65
(dp2876
g85
g86
ssg74
g2870
sg67
(lp2877
S'wsgi.run_once'
p2878
asbag60
(g81
g62
NtRp2879
(dp2880
g65
(dp2881
g92
g93
ssg74
g2870
sg67
(lp2882
S':'
asbag60
(g81
g62
NtRp2883
(dp2884
g65
(dp2885
sg74
g2870
sg67
(lp2886
g60
(g61
g62
NtRp2887
(dp2888
g65
(dp2889
g73
I3
ssg74
g2883
sg67
(lp2890
g103
asbasbasbag60
(g76
g62
NtRp2891
(dp2892
g65
(dp2893
sg74
g2380
sg67
(lp2894
g60
(g81
g62
NtRp2895
(dp2896
g65
(dp2897
g85
g86
ssg74
g2891
sg67
(lp2898
S'wsgi.url_scheme'
p2899
asbag60
(g81
g62
NtRp2900
(dp2901
g65
(dp2902
g92
g93
ssg74
g2891
sg67
(lp2903
S':'
asbag60
(g81
g62
NtRp2904
(dp2905
g65
(dp2906
sg74
g2891
sg67
(lp2907
g60
(g61
g62
NtRp2908
(dp2909
g65
(dp2910
g73
I3
ssg74
g2904
sg67
(lp2911
g1653
asbasbasbag60
(g76
g62
NtRp2912
(dp2913
g65
(dp2914
sg74
g2380
sg67
(lp2915
g60
(g81
g62
NtRp2916
(dp2917
g65
(dp2918
g85
g86
ssg74
g2912
sg67
(lp2919
S'wsgi.version'
p2920
asbag60
(g81
g62
NtRp2921
(dp2922
g65
(dp2923
g92
g93
ssg74
g2912
sg67
(lp2924
S':'
asbag60
(g81
g62
NtRp2925
(dp2926
g65
(dp2927
sg74
g2912
sg67
(lp2928
g60
(g61
g62
NtRp2929
(dp2930
g65
(dp2931
g73
I3
ssg74
g2925
sg67
(lp2932
S'1'
asbasbasbasbasbasbasbasbasbasbasbasbasbsS'frames'
p2933
(lp2934
(dp2935
S'file'
p2936
S'C:\\Users\\Osku\\koodaus\\web2py\\gluon\\restricted.py'
p2937
sS'dump'
p2938
(dp2939
sS'lnum'
p2940
I204
sS'lines'
p2941
(dp2942
sS'call'
p2943
S'(code=r"response.write(\'<html>\\r\\n<head>\\r\\n\\t\\r\\n</head...r\\n\\r\\n</body>\\r\\n\\r\\n</html>\\r\\n\', escape=False)", environment={\'A\': <class \'gluon.html.A\'>, \'Auth\': <class \'gluon.tools.Auth\'>, \'B\': <class \'gluon.html.B\'>, \'BEAUTIFY\': <class \'gluon.html.BEAUTIFY\'>, \'BODY\': <class \'gluon.html.BODY\'>, \'BR\': <class \'gluon.html.BR\'>, \'BUTTON\': <class \'gluon.html.BUTTON\'>, \'CAT\': <class \'gluon.html.CAT\'>, \'CENTER\': <class \'gluon.html.CENTER\'>, \'CLEANUP\': <class \'gluon.validators.CLEANUP\'>, ...}, layer=r\'C:\\Users\\Osku\\koodaus\\web2py\\applications\\sitsit\\views\\default/sitsit.html\')'
p2944
sS'func'
p2945
S'restricted'
p2946
sa(dp2947
g2936
S'C:\\Users\\Osku\\koodaus\\web2py\\gluon\\restricted.py'
p2948
sg2938
(dp2949
sg2940
I189
sg2941
(dp2950
sg2943
S'(code=r"response.write(\'<html>\\r\\n<head>\\r\\n\\t\\r\\n</head...r\\n\\r\\n</body>\\r\\n\\r\\n</html>\\r\\n\', escape=False)", layer=r\'C:\\Users\\Osku\\koodaus\\web2py\\applications\\sitsit\\views\\default/sitsit.html\')'
p2951
sg2945
S'compile2'
p2952
sasS'pyver'
p2953
S'Python 2.5.4: C:\\Users\\Osku\\koodaus\\web2py\\web2py.exe'
p2954
sS'session'
p2955
g60
(g61
g62
NtRp2956
(dp2957
g65
(dp2958
sg67
(lp2959
g60
(g69
g62
NtRp2960
(dp2961
g65
(dp2962
g73
I5
ssg74
Nsg67
(lp2963
g60
(g76
g62
NtRp2964
(dp2965
g65
(dp2966
sg74
g2960
sg67
(lp2967
g60
(g81
g62
NtRp2968
(dp2969
g65
(dp2970
g85
g86
ssg74
g2964
sg67
(lp2971
S'auth'
p2972
asbag60
(g81
g62
NtRp2973
(dp2974
g65
(dp2975
g92
g93
ssg74
g2964
sg67
(lp2976
S':'
asbag60
(g81
g62
NtRp2977
(dp2978
g65
(dp2979
sg74
g2964
sg67
(lp2980
g60
(g61
g62
NtRp2981
(dp2982
g65
(dp2983
g73
I5
ssg74
g2977
sg67
(lp2984
g60
(g69
g62
NtRp2985
(dp2986
g65
(dp2987
g73
I4
ssg74
Nsg67
(lp2988
g60
(g76
g62
NtRp2989
(dp2990
g65
(dp2991
sg74
g2985
sg67
(lp2992
g60
(g81
g62
NtRp2993
(dp2994
g65
(dp2995
g85
g86
ssg74
g2989
sg67
(lp2996
S'expiration'
p2997
asbag60
(g81
g62
NtRp2998
(dp2999
g65
(dp3000
g92
g93
ssg74
g2989
sg67
(lp3001
S':'
asbag60
(g81
g62
NtRp3002
(dp3003
g65
(dp3004
sg74
g2989
sg67
(lp3005
g60
(g61
g62
NtRp3006
(dp3007
g65
(dp3008
g73
I4
ssg74
g3002
sg67
(lp3009
S'3600'
p3010
asbasbasbag60
(g76
g62
NtRp3011
(dp3012
g65
(dp3013
sg74
g2985
sg67
(lp3014
g60
(g81
g62
NtRp3015
(dp3016
g65
(dp3017
g85
g86
ssg74
g3011
sg67
(lp3018
S'hmac_key'
p3019
asbag60
(g81
g62
NtRp3020
(dp3021
g65
(dp3022
g92
g93
ssg74
g3011
sg67
(lp3023
S':'
asbag60
(g81
g62
NtRp3024
(dp3025
g65
(dp3026
sg74
g3011
sg67
(lp3027
g60
(g61
g62
NtRp3028
(dp3029
g65
(dp3030
g73
I4
ssg74
g3024
sg67
(lp3031
S'871ae63d-f3e0-499f-bd79-a2b724d0a3d4'
p3032
asbasbasbag60
(g76
g62
NtRp3033
(dp3034
g65
(dp3035
sg74
g2985
sg67
(lp3036
g60
(g81
g62
NtRp3037
(dp3038
g65
(dp3039
g85
g86
ssg74
g3033
sg67
(lp3040
S'last_visit'
p3041
asbag60
(g81
g62
NtRp3042
(dp3043
g65
(dp3044
g92
g93
ssg74
g3033
sg67
(lp3045
S':'
asbag60
(g81
g62
NtRp3046
(dp3047
g65
(dp3048
sg74
g3033
sg67
(lp3049
g60
(g61
g62
NtRp3050
(dp3051
g65
(dp3052
g73
I4
ssg74
g3046
sg67
(lp3053
S'datetime.datetime(2012, 7, 6, 23, 14, 34, 314000)'
p3054
asbasbasbag60
(g76
g62
NtRp3055
(dp3056
g65
(dp3057
sg74
g2985
sg67
(lp3058
g60
(g81
g62
NtRp3059
(dp3060
g65
(dp3061
g85
g86
ssg74
g3055
sg67
(lp3062
S'user'
p3063
asbag60
(g81
g62
NtRp3064
(dp3065
g65
(dp3066
g92
g93
ssg74
g3055
sg67
(lp3067
S':'
asbag60
(g81
g62
NtRp3068
(dp3069
g65
(dp3070
sg74
g3055
sg67
(lp3071
g60
(g61
g62
NtRp3072
(dp3073
g65
(dp3074
g73
I4
ssg74
g3068
sg67
(lp3075
g60
(g69
g62
NtRp3076
(dp3077
g65
(dp3078
g73
I3
ssg74
Nsg67
(lp3079
g60
(g76
g62
NtRp3080
(dp3081
g65
(dp3082
sg74
g3076
sg67
(lp3083
g60
(g81
g62
NtRp3084
(dp3085
g65
(dp3086
g85
g86
ssg74
g3080
sg67
(lp3087
S'birthdate'
p3088
asbag60
(g81
g62
NtRp3089
(dp3090
g65
(dp3091
g92
g93
ssg74
g3080
sg67
(lp3092
S':'
asbag60
(g81
g62
NtRp3093
(dp3094
g65
(dp3095
sg74
g3080
sg67
(lp3096
g60
(g61
g62
NtRp3097
(dp3098
g65
(dp3099
g73
I3
ssg74
g3093
sg67
(lp3100
S'None'
p3101
asbasbasbag60
(g76
g62
NtRp3102
(dp3103
g65
(dp3104
sg74
g3076
sg67
(lp3105
g60
(g81
g62
NtRp3106
(dp3107
g65
(dp3108
g85
g86
ssg74
g3102
sg67
(lp3109
S'email'
p3110
asbag60
(g81
g62
NtRp3111
(dp3112
g65
(dp3113
g92
g93
ssg74
g3102
sg67
(lp3114
S':'
asbag60
(g81
g62
NtRp3115
(dp3116
g65
(dp3117
sg74
g3102
sg67
(lp3118
g60
(g61
g62
NtRp3119
(dp3120
g65
(dp3121
g73
I3
ssg74
g3115
sg67
(lp3122
S'oskari.petas@gmail.com'
p3123
asbasbasbag60
(g76
g62
NtRp3124
(dp3125
g65
(dp3126
sg74
g3076
sg67
(lp3127
g60
(g81
g62
NtRp3128
(dp3129
g65
(dp3130
g85
g86
ssg74
g3124
sg67
(lp3131
S'first_name'
p3132
asbag60
(g81
g62
NtRp3133
(dp3134
g65
(dp3135
g92
g93
ssg74
g3124
sg67
(lp3136
S':'
asbag60
(g81
g62
NtRp3137
(dp3138
g65
(dp3139
sg74
g3124
sg67
(lp3140
g60
(g61
g62
NtRp3141
(dp3142
g65
(dp3143
g73
I3
ssg74
g3137
sg67
(lp3144
S'Oskari'
p3145
asbasbasbag60
(g76
g62
NtRp3146
(dp3147
g65
(dp3148
sg74
g3076
sg67
(lp3149
g60
(g81
g62
NtRp3150
(dp3151
g65
(dp3152
g85
g86
ssg74
g3146
sg67
(lp3153
S'id'
p3154
asbag60
(g81
g62
NtRp3155
(dp3156
g65
(dp3157
g92
g93
ssg74
g3146
sg67
(lp3158
S':'
asbag60
(g81
g62
NtRp3159
(dp3160
g65
(dp3161
sg74
g3146
sg67
(lp3162
g60
(g61
g62
NtRp3163
(dp3164
g65
(dp3165
g73
I3
ssg74
g3159
sg67
(lp3166
S'1'
asbasbasbag60
(g76
g62
NtRp3167
(dp3168
g65
(dp3169
sg74
g3076
sg67
(lp3170
g60
(g81
g62
NtRp3171
(dp3172
g65
(dp3173
g85
g86
ssg74
g3167
sg67
(lp3174
S'last_name'
p3175
asbag60
(g81
g62
NtRp3176
(dp3177
g65
(dp3178
g92
g93
ssg74
g3167
sg67
(lp3179
S':'
asbag60
(g81
g62
NtRp3180
(dp3181
g65
(dp3182
sg74
g3167
sg67
(lp3183
g60
(g61
g62
NtRp3184
(dp3185
g65
(dp3186
g73
I3
ssg74
g3180
sg67
(lp3187
S'Petas'
p3188
asbasbasbag60
(g76
g62
NtRp3189
(dp3190
g65
(dp3191
sg74
g3076
sg67
(lp3192
g60
(g81
g62
NtRp3193
(dp3194
g65
(dp3195
g85
g86
ssg74
g3189
sg67
(lp3196
S'password'
p3197
asbag60
(g81
g62
NtRp3198
(dp3199
g65
(dp3200
g92
g93
ssg74
g3189
sg67
(lp3201
S':'
asbag60
(g81
g62
NtRp3202
(dp3203
g65
(dp3204
sg74
g3189
sg67
(lp3205
g60
(g61
g62
NtRp3206
(dp3207
g65
(dp3208
g73
I3
ssg74
g3202
sg67
(lp3209
S'b11d7fe42f4ed95554a3bb1f580d7880'
p3210
asbasbasbag60
(g76
g62
NtRp3211
(dp3212
g65
(dp3213
sg74
g3076
sg67
(lp3214
g60
(g81
g62
NtRp3215
(dp3216
g65
(dp3217
g85
g86
ssg74
g3211
sg67
(lp3218
S'registration_id'
p3219
asbag60
(g81
g62
NtRp3220
(dp3221
g65
(dp3222
g92
g93
ssg74
g3211
sg67
(lp3223
S':'
asbag60
(g81
g62
NtRp3224
(dp3225
g65
(dp3226
sg74
g3211
sg67
(lp3227
g60
(g61
g62
NtRp3228
(dp3229
g65
(dp3230
g73
I3
ssg74
g3224
sg67
(lp3231
S''
asbasbasbag60
(g76
g62
NtRp3232
(dp3233
g65
(dp3234
sg74
g3076
sg67
(lp3235
g60
(g81
g62
NtRp3236
(dp3237
g65
(dp3238
g85
g86
ssg74
g3232
sg67
(lp3239
S'registration_key'
p3240
asbag60
(g81
g62
NtRp3241
(dp3242
g65
(dp3243
g92
g93
ssg74
g3232
sg67
(lp3244
S':'
asbag60
(g81
g62
NtRp3245
(dp3246
g65
(dp3247
sg74
g3232
sg67
(lp3248
g60
(g61
g62
NtRp3249
(dp3250
g65
(dp3251
g73
I3
ssg74
g3245
sg67
(lp3252
S''
asbasbasbag60
(g76
g62
NtRp3253
(dp3254
g65
(dp3255
sg74
g3076
sg67
(lp3256
g60
(g81
g62
NtRp3257
(dp3258
g65
(dp3259
g85
g86
ssg74
g3253
sg67
(lp3260
S'representation'
p3261
asbag60
(g81
g62
NtRp3262
(dp3263
g65
(dp3264
g92
g93
ssg74
g3253
sg67
(lp3265
S':'
asbag60
(g81
g62
NtRp3266
(dp3267
g65
(dp3268
sg74
g3253
sg67
(lp3269
g60
(g61
g62
NtRp3270
(dp3271
g65
(dp3272
g73
I3
ssg74
g3266
sg67
(lp3273
S'AS'
p3274
asbasbasbag60
(g76
g62
NtRp3275
(dp3276
g65
(dp3277
sg74
g3076
sg67
(lp3278
g60
(g81
g62
NtRp3279
(dp3280
g65
(dp3281
g85
g86
ssg74
g3275
sg67
(lp3282
S'reset_password_key'
p3283
asbag60
(g81
g62
NtRp3284
(dp3285
g65
(dp3286
g92
g93
ssg74
g3275
sg67
(lp3287
S':'
asbag60
(g81
g62
NtRp3288
(dp3289
g65
(dp3290
sg74
g3275
sg67
(lp3291
g60
(g61
g62
NtRp3292
(dp3293
g65
(dp3294
g73
I3
ssg74
g3288
sg67
(lp3295
S''
asbasbasbasbasbasbasbag60
(g76
g62
NtRp3296
(dp3297
g65
(dp3298
sg74
g2985
sg67
(lp3299
g60
(g81
g62
NtRp3300
(dp3301
g65
(dp3302
g85
g86
ssg74
g3296
sg67
(lp3303
S'user_groups'
p3304
asbag60
(g81
g62
NtRp3305
(dp3306
g65
(dp3307
g92
g93
ssg74
g3296
sg67
(lp3308
S':'
asbag60
(g81
g62
NtRp3309
(dp3310
g65
(dp3311
sg74
g3296
sg67
(lp3312
g60
(g61
g62
NtRp3313
(dp3314
g65
(dp3315
g73
I4
ssg74
g3309
sg67
(lp3316
g60
(g69
g62
NtRp3317
(dp3318
g65
(dp3319
g73
I3
ssg74
Nsg67
(lp3320
g60
(g76
g62
NtRp3321
(dp3322
g65
(dp3323
sg74
g3317
sg67
(lp3324
g60
(g81
g62
NtRp3325
(dp3326
g65
(dp3327
g85
g86
ssg74
g3321
sg67
(lp3328
S'1'
asbag60
(g81
g62
NtRp3329
(dp3330
g65
(dp3331
g92
g93
ssg74
g3321
sg67
(lp3332
S':'
asbag60
(g81
g62
NtRp3333
(dp3334
g65
(dp3335
sg74
g3321
sg67
(lp3336
g60
(g61
g62
NtRp3337
(dp3338
g65
(dp3339
g73
I3
ssg74
g3333
sg67
(lp3340
S'user_1'
p3341
asbasbasbasbasbasbasbasbasbasbasbasbasbsS'etype'
p3342
S"<type 'exceptions.SyntaxError'>"
p3343
sS'date'
p3344
S'Fri Jul 06 23:16:27 2012'
p3345
sS'response'
p3346
g60
(g61
g62
NtRp3347
(dp3348
g65
(dp3349
sg67
(lp3350
g60
(g69
g62
NtRp3351
(dp3352
g65
(dp3353
g73
I5
ssg74
Nsg67
(lp3354
g60
(g76
g62
NtRp3355
(dp3356
g65
(dp3357
sg74
g3351
sg67
(lp3358
g60
(g81
g62
NtRp3359
(dp3360
g65
(dp3361
g85
g86
ssg74
g3355
sg67
(lp3362
g170
asbag60
(g81
g62
NtRp3363
(dp3364
g65
(dp3365
g92
g93
ssg74
g3355
sg67
(lp3366
S':'
asbag60
(g81
g62
NtRp3367
(dp3368
g65
(dp3369
sg74
g3355
sg67
(lp3370
g60
(g61
g62
NtRp3371
(dp3372
g65
(dp3373
g73
I5
ssg74
g3367
sg67
(lp3374
S'<cStringIO.StringO object at 0x05383600>'
p3375
asbasbasbag60
(g76
g62
NtRp3376
(dp3377
g65
(dp3378
sg74
g3351
sg67
(lp3379
g60
(g81
g62
NtRp3380
(dp3381
g65
(dp3382
g85
g86
ssg74
g3376
sg67
(lp3383
g236
asbag60
(g81
g62
NtRp3384
(dp3385
g65
(dp3386
g92
g93
ssg74
g3376
sg67
(lp3387
S':'
asbag60
(g81
g62
NtRp3388
(dp3389
g65
(dp3390
sg74
g3376
sg67
(lp3391
g60
(g61
g62
NtRp3392
(dp3393
g65
(dp3394
g73
I5
ssg74
g3388
sg67
(lp3395
g60
(g69
g62
NtRp3396
(dp3397
g65
(dp3398
g73
I4
ssg74
Nsg67
(lp3399
g60
(g76
g62
NtRp3400
(dp3401
g65
(dp3402
sg74
g3396
sg67
(lp3403
g60
(g81
g62
NtRp3404
(dp3405
g65
(dp3406
g85
g86
ssg74
g3400
sg67
(lp3407
S'session_id_sitsit'
p3408
asbag60
(g81
g62
NtRp3409
(dp3410
g65
(dp3411
g92
g93
ssg74
g3400
sg67
(lp3412
S':'
asbag60
(g81
g62
NtRp3413
(dp3414
g65
(dp3415
sg74
g3400
sg67
(lp3416
g60
(g61
g62
NtRp3417
(dp3418
g65
(dp3419
g73
I4
ssg74
g3413
sg67
(lp3420
g60
(g69
g62
NtRp3421
(dp3422
g65
(dp3423
g73
I3
ssg74
Nsg67
(lp3424
g60
(g76
g62
NtRp3425
(dp3426
g65
(dp3427
sg74
g3421
sg67
(lp3428
g60
(g81
g62
NtRp3429
(dp3430
g65
(dp3431
g85
g86
ssg74
g3425
sg67
(lp3432
g286
asbag60
(g81
g62
NtRp3433
(dp3434
g65
(dp3435
g92
g93
ssg74
g3425
sg67
(lp3436
S':'
asbag60
(g81
g62
NtRp3437
(dp3438
g65
(dp3439
sg74
g3425
sg67
(lp3440
g60
(g61
g62
NtRp3441
(dp3442
g65
(dp3443
g73
I3
ssg74
g3437
sg67
(lp3444
S''
asbasbasbag60
(g76
g62
NtRp3445
(dp3446
g65
(dp3447
sg74
g3421
sg67
(lp3448
g60
(g81
g62
NtRp3449
(dp3450
g65
(dp3451
g85
g86
ssg74
g3445
sg67
(lp3452
g307
asbag60
(g81
g62
NtRp3453
(dp3454
g65
(dp3455
g92
g93
ssg74
g3445
sg67
(lp3456
S':'
asbag60
(g81
g62
NtRp3457
(dp3458
g65
(dp3459
sg74
g3445
sg67
(lp3460
g60
(g61
g62
NtRp3461
(dp3462
g65
(dp3463
g73
I3
ssg74
g3457
sg67
(lp3464
S''
asbasbasbag60
(g76
g62
NtRp3465
(dp3466
g65
(dp3467
sg74
g3421
sg67
(lp3468
g60
(g81
g62
NtRp3469
(dp3470
g65
(dp3471
g85
g86
ssg74
g3465
sg67
(lp3472
g328
asbag60
(g81
g62
NtRp3473
(dp3474
g65
(dp3475
g92
g93
ssg74
g3465
sg67
(lp3476
S':'
asbag60
(g81
g62
NtRp3477
(dp3478
g65
(dp3479
sg74
g3465
sg67
(lp3480
g60
(g61
g62
NtRp3481
(dp3482
g65
(dp3483
g73
I3
ssg74
g3477
sg67
(lp3484
S''
asbasbasbag60
(g76
g62
NtRp3485
(dp3486
g65
(dp3487
sg74
g3421
sg67
(lp3488
g60
(g81
g62
NtRp3489
(dp3490
g65
(dp3491
g85
g86
ssg74
g3485
sg67
(lp3492
g349
asbag60
(g81
g62
NtRp3493
(dp3494
g65
(dp3495
g92
g93
ssg74
g3485
sg67
(lp3496
S':'
asbag60
(g81
g62
NtRp3497
(dp3498
g65
(dp3499
sg74
g3485
sg67
(lp3500
g60
(g61
g62
NtRp3501
(dp3502
g65
(dp3503
g73
I3
ssg74
g3497
sg67
(lp3504
S''
asbasbasbag60
(g76
g62
NtRp3505
(dp3506
g65
(dp3507
sg74
g3421
sg67
(lp3508
g60
(g81
g62
NtRp3509
(dp3510
g65
(dp3511
g85
g86
ssg74
g3505
sg67
(lp3512
g370
asbag60
(g81
g62
NtRp3513
(dp3514
g65
(dp3515
g92
g93
ssg74
g3505
sg67
(lp3516
S':'
asbag60
(g81
g62
NtRp3517
(dp3518
g65
(dp3519
sg74
g3505
sg67
(lp3520
g60
(g61
g62
NtRp3521
(dp3522
g65
(dp3523
g73
I3
ssg74
g3517
sg67
(lp3524
S'/'
asbasbasbag60
(g76
g62
NtRp3525
(dp3526
g65
(dp3527
sg74
g3421
sg67
(lp3528
g60
(g81
g62
NtRp3529
(dp3530
g65
(dp3531
g85
g86
ssg74
g3525
sg67
(lp3532
g391
asbag60
(g81
g62
NtRp3533
(dp3534
g65
(dp3535
g92
g93
ssg74
g3525
sg67
(lp3536
S':'
asbag60
(g81
g62
NtRp3537
(dp3538
g65
(dp3539
sg74
g3525
sg67
(lp3540
g60
(g61
g62
NtRp3541
(dp3542
g65
(dp3543
g73
I3
ssg74
g3537
sg67
(lp3544
S''
asbasbasbag60
(g76
g62
NtRp3545
(dp3546
g65
(dp3547
sg74
g3421
sg67
(lp3548
g60
(g81
g62
NtRp3549
(dp3550
g65
(dp3551
g85
g86
ssg74
g3545
sg67
(lp3552
g412
asbag60
(g81
g62
NtRp3553
(dp3554
g65
(dp3555
g92
g93
ssg74
g3545
sg67
(lp3556
S':'
asbag60
(g81
g62
NtRp3557
(dp3558
g65
(dp3559
sg74
g3545
sg67
(lp3560
g60
(g61
g62
NtRp3561
(dp3562
g65
(dp3563
g73
I3
ssg74
g3557
sg67
(lp3564
S''
asbasbasbasbasbasbasbasbasbasbasbag60
(g76
g62
NtRp3565
(dp3566
g65
(dp3567
sg74
g3351
sg67
(lp3568
g60
(g81
g62
NtRp3569
(dp3570
g65
(dp3571
g85
g86
ssg74
g3565
sg67
(lp3572
S'delimiters'
p3573
asbag60
(g81
g62
NtRp3574
(dp3575
g65
(dp3576
g92
g93
ssg74
g3565
sg67
(lp3577
S':'
asbag60
(g81
g62
NtRp3578
(dp3579
g65
(dp3580
sg74
g3565
sg67
(lp3581
g60
(g61
g62
NtRp3582
(dp3583
g65
(dp3584
g73
I5
ssg74
g3578
sg67
(lp3585
g60
(g69
g62
NtRp3586
(dp3587
g65
(dp3588
g73
I4
ssg74
Nsg67
(lp3589
g60
(g76
g62
NtRp3590
(dp3591
g65
(dp3592
sg74
g3586
sg67
(lp3593
g60
(g81
g62
NtRp3594
(dp3595
g65
(dp3596
sg74
g3590
sg67
(lp3597
g60
(g61
g62
NtRp3598
(dp3599
g65
(dp3600
g73
I4
ssg74
g3594
sg67
(lp3601
S'{{'
p3602
asbasbasbag60
(g76
g62
NtRp3603
(dp3604
g65
(dp3605
sg74
g3586
sg67
(lp3606
g60
(g81
g62
NtRp3607
(dp3608
g65
(dp3609
sg74
g3603
sg67
(lp3610
g60
(g61
g62
NtRp3611
(dp3612
g65
(dp3613
g73
I4
ssg74
g3607
sg67
(lp3614
S'}}'
p3615
asbasbasbasbasbasbasbag60
(g76
g62
NtRp3616
(dp3617
g65
(dp3618
sg74
g3351
sg67
(lp3619
g60
(g81
g62
NtRp3620
(dp3621
g65
(dp3622
g85
g86
ssg74
g3616
sg67
(lp3623
S'files'
p3624
asbag60
(g81
g62
NtRp3625
(dp3626
g65
(dp3627
g92
g93
ssg74
g3616
sg67
(lp3628
S':'
asbag60
(g81
g62
NtRp3629
(dp3630
g65
(dp3631
sg74
g3616
sg67
(lp3632
g60
(g61
g62
NtRp3633
(dp3634
g65
(dp3635
g73
I5
ssg74
g3629
sg67
(lp3636
g60
(g69
g62
NtRp3637
(dp3638
g65
(dp3639
g73
I4
ssg74
Nsg67
(lp3640
sbasbasbasbag60
(g76
g62
NtRp3641
(dp3642
g65
(dp3643
sg74
g3351
sg67
(lp3644
g60
(g81
g62
NtRp3645
(dp3646
g65
(dp3647
g85
g86
ssg74
g3641
sg67
(lp3648
S'flash'
p3649
asbag60
(g81
g62
NtRp3650
(dp3651
g65
(dp3652
g92
g93
ssg74
g3641
sg67
(lp3653
S':'
asbag60
(g81
g62
NtRp3654
(dp3655
g65
(dp3656
sg74
g3641
sg67
(lp3657
g60
(g61
g62
NtRp3658
(dp3659
g65
(dp3660
g73
I5
ssg74
g3654
sg67
(lp3661
S''
asbasbasbag60
(g76
g62
NtRp3662
(dp3663
g65
(dp3664
sg74
g3351
sg67
(lp3665
g60
(g81
g62
NtRp3666
(dp3667
g65
(dp3668
g85
g86
ssg74
g3662
sg67
(lp3669
S'generic_patterns'
p3670
asbag60
(g81
g62
NtRp3671
(dp3672
g65
(dp3673
g92
g93
ssg74
g3662
sg67
(lp3674
S':'
asbag60
(g81
g62
NtRp3675
(dp3676
g65
(dp3677
sg74
g3662
sg67
(lp3678
g60
(g61
g62
NtRp3679
(dp3680
g65
(dp3681
g73
I5
ssg74
g3675
sg67
(lp3682
g60
(g69
g62
NtRp3683
(dp3684
g65
(dp3685
g73
I4
ssg74
Nsg67
(lp3686
g60
(g76
g62
NtRp3687
(dp3688
g65
(dp3689
sg74
g3683
sg67
(lp3690
g60
(g81
g62
NtRp3691
(dp3692
g65
(dp3693
sg74
g3687
sg67
(lp3694
g60
(g61
g62
NtRp3695
(dp3696
g65
(dp3697
g73
I4
ssg74
g3691
sg67
(lp3698
S'*'
asbasbasbasbasbasbasbag60
(g76
g62
NtRp3699
(dp3700
g65
(dp3701
sg74
g3351
sg67
(lp3702
g60
(g81
g62
NtRp3703
(dp3704
g65
(dp3705
g85
g86
ssg74
g3699
sg67
(lp3706
S'headers'
p3707
asbag60
(g81
g62
NtRp3708
(dp3709
g65
(dp3710
g92
g93
ssg74
g3699
sg67
(lp3711
S':'
asbag60
(g81
g62
NtRp3712
(dp3713
g65
(dp3714
sg74
g3699
sg67
(lp3715
g60
(g61
g62
NtRp3716
(dp3717
g65
(dp3718
g73
I5
ssg74
g3712
sg67
(lp3719
g60
(g69
g62
NtRp3720
(dp3721
g65
(dp3722
g73
I4
ssg74
Nsg67
(lp3723
g60
(g76
g62
NtRp3724
(dp3725
g65
(dp3726
sg74
g3720
sg67
(lp3727
g60
(g81
g62
NtRp3728
(dp3729
g65
(dp3730
g85
g86
ssg74
g3724
sg67
(lp3731
S'Cache-Control'
p3732
asbag60
(g81
g62
NtRp3733
(dp3734
g65
(dp3735
g92
g93
ssg74
g3724
sg67
(lp3736
S':'
asbag60
(g81
g62
NtRp3737
(dp3738
g65
(dp3739
sg74
g3724
sg67
(lp3740
g60
(g61
g62
NtRp3741
(dp3742
g65
(dp3743
g73
I4
ssg74
g3737
sg67
(lp3744
S'no-store, no-cache, must-revalidate, post-check=0, pre-check=0'
p3745
asbasbasbag60
(g76
g62
NtRp3746
(dp3747
g65
(dp3748
sg74
g3720
sg67
(lp3749
g60
(g81
g62
NtRp3750
(dp3751
g65
(dp3752
g85
g86
ssg74
g3746
sg67
(lp3753
S'Content-Type'
p3754
asbag60
(g81
g62
NtRp3755
(dp3756
g65
(dp3757
g92
g93
ssg74
g3746
sg67
(lp3758
S':'
asbag60
(g81
g62
NtRp3759
(dp3760
g65
(dp3761
sg74
g3746
sg67
(lp3762
g60
(g61
g62
NtRp3763
(dp3764
g65
(dp3765
g73
I4
ssg74
g3759
sg67
(lp3766
S'text/html; charset=utf-8'
p3767
asbasbasbag60
(g76
g62
NtRp3768
(dp3769
g65
(dp3770
sg74
g3720
sg67
(lp3771
g60
(g81
g62
NtRp3772
(dp3773
g65
(dp3774
g85
g86
ssg74
g3768
sg67
(lp3775
S'Expires'
p3776
asbag60
(g81
g62
NtRp3777
(dp3778
g65
(dp3779
g92
g93
ssg74
g3768
sg67
(lp3780
S':'
asbag60
(g81
g62
NtRp3781
(dp3782
g65
(dp3783
sg74
g3768
sg67
(lp3784
g60
(g61
g62
NtRp3785
(dp3786
g65
(dp3787
g73
I4
ssg74
g3781
sg67
(lp3788
S'Fri, 06 Jul 2012 21:16:27 GMT'
p3789
asbasbasbag60
(g76
g62
NtRp3790
(dp3791
g65
(dp3792
sg74
g3720
sg67
(lp3793
g60
(g81
g62
NtRp3794
(dp3795
g65
(dp3796
g85
g86
ssg74
g3790
sg67
(lp3797
S'Pragma'
p3798
asbag60
(g81
g62
NtRp3799
(dp3800
g65
(dp3801
g92
g93
ssg74
g3790
sg67
(lp3802
S':'
asbag60
(g81
g62
NtRp3803
(dp3804
g65
(dp3805
sg74
g3790
sg67
(lp3806
g60
(g61
g62
NtRp3807
(dp3808
g65
(dp3809
g73
I4
ssg74
g3803
sg67
(lp3810
S'no-cache'
p3811
asbasbasbag60
(g76
g62
NtRp3812
(dp3813
g65
(dp3814
sg74
g3720
sg67
(lp3815
g60
(g81
g62
NtRp3816
(dp3817
g65
(dp3818
g85
g86
ssg74
g3812
sg67
(lp3819
S'X-Powered-By'
p3820
asbag60
(g81
g62
NtRp3821
(dp3822
g65
(dp3823
g92
g93
ssg74
g3812
sg67
(lp3824
S':'
asbag60
(g81
g62
NtRp3825
(dp3826
g65
(dp3827
sg74
g3812
sg67
(lp3828
g60
(g61
g62
NtRp3829
(dp3830
g65
(dp3831
g73
I4
ssg74
g3825
sg67
(lp3832
S'web2py'
p3833
asbasbasbasbasbasbasbag60
(g76
g62
NtRp3834
(dp3835
g65
(dp3836
sg74
g3351
sg67
(lp3837
g60
(g81
g62
NtRp3838
(dp3839
g65
(dp3840
g85
g86
ssg74
g3834
sg67
(lp3841
S'menu'
p3842
asbag60
(g81
g62
NtRp3843
(dp3844
g65
(dp3845
g92
g93
ssg74
g3834
sg67
(lp3846
S':'
asbag60
(g81
g62
NtRp3847
(dp3848
g65
(dp3849
sg74
g3834
sg67
(lp3850
g60
(g61
g62
NtRp3851
(dp3852
g65
(dp3853
g73
I5
ssg74
g3847
sg67
(lp3854
g60
(g69
g62
NtRp3855
(dp3856
g65
(dp3857
g73
I4
ssg74
Nsg67
(lp3858
g60
(g76
g62
NtRp3859
(dp3860
g65
(dp3861
sg74
g3855
sg67
(lp3862
g60
(g81
g62
NtRp3863
(dp3864
g65
(dp3865
sg74
g3859
sg67
(lp3866
g60
(g61
g62
NtRp3867
(dp3868
g65
(dp3869
g73
I4
ssg74
g3863
sg67
(lp3870
g60
(g69
g62
NtRp3871
(dp3872
g65
(dp3873
g73
I3
ssg74
Nsg67
(lp3874
g60
(g76
g62
NtRp3875
(dp3876
g65
(dp3877
sg74
g3871
sg67
(lp3878
g60
(g81
g62
NtRp3879
(dp3880
g65
(dp3881
sg74
g3875
sg67
(lp3882
g60
(g61
g62
NtRp3883
(dp3884
g65
(dp3885
g73
I3
ssg74
g3879
sg67
(lp3886
cgluon.languages
lazyT_unpickle
p3887
(S's\x04\x00\x00\x00Home'
tRp3888
asbasbasbag60
(g76
g62
NtRp3889
(dp3890
g65
(dp3891
sg74
g3871
sg67
(lp3892
g60
(g81
g62
NtRp3893
(dp3894
g65
(dp3895
sg74
g3889
sg67
(lp3896
g60
(g61
g62
NtRp3897
(dp3898
g65
(dp3899
g73
I3
ssg74
g3893
sg67
(lp3900
g103
asbasbasbag60
(g76
g62
NtRp3901
(dp3902
g65
(dp3903
sg74
g3871
sg67
(lp3904
g60
(g81
g62
NtRp3905
(dp3906
g65
(dp3907
sg74
g3901
sg67
(lp3908
g60
(g61
g62
NtRp3909
(dp3910
g65
(dp3911
g73
I3
ssg74
g3905
sg67
(lp3912
S'/sitsit/default/index'
p3913
asbasbasbag60
(g76
g62
NtRp3914
(dp3915
g65
(dp3916
sg74
g3871
sg67
(lp3917
g60
(g81
g62
NtRp3918
(dp3919
g65
(dp3920
sg74
g3914
sg67
(lp3921
g60
(g61
g62
NtRp3922
(dp3923
g65
(dp3924
g73
I3
ssg74
g3918
sg67
(lp3925
g60
(g69
g62
NtRp3926
(dp3927
g65
(dp3928
g73
I2
ssg74
Nsg67
(lp3929
sbasbasbasbasbasbasbasbag60
(g76
g62
NtRp3930
(dp3931
g65
(dp3932
sg74
g3855
sg67
(lp3933
g60
(g81
g62
NtRp3934
(dp3935
g65
(dp3936
sg74
g3930
sg67
(lp3937
g60
(g61
g62
NtRp3938
(dp3939
g65
(dp3940
g73
I4
ssg74
g3934
sg67
(lp3941
g60
(g69
g62
NtRp3942
(dp3943
g65
(dp3944
g73
I3
ssg74
Nsg67
(lp3945
g60
(g76
g62
NtRp3946
(dp3947
g65
(dp3948
sg74
g3942
sg67
(lp3949
g60
(g81
g62
NtRp3950
(dp3951
g65
(dp3952
sg74
g3946
sg67
(lp3953
g60
(g61
g62
NtRp3954
(dp3955
g65
(dp3956
g73
I3
ssg74
g3950
sg67
(lp3957
g60
(cgluon.html
SPAN
p3958
g62
NtRp3959
(dp3960
g65
(dp3961
g85
S'color:yellow'
p3962
ssg74
Nsg67
(lp3963
g3833
asbasbasbasbag60
(g76
g62
NtRp3964
(dp3965
g65
(dp3966
sg74
g3942
sg67
(lp3967
g60
(g81
g62
NtRp3968
(dp3969
g65
(dp3970
sg74
g3964
sg67
(lp3971
g60
(g61
g62
NtRp3972
(dp3973
g65
(dp3974
g73
I3
ssg74
g3968
sg67
(lp3975
g103
asbasbasbag60
(g76
g62
NtRp3976
(dp3977
g65
(dp3978
sg74
g3942
sg67
(lp3979
g60
(g81
g62
NtRp3980
(dp3981
g65
(dp3982
sg74
g3976
sg67
(lp3983
g60
(g61
g62
NtRp3984
(dp3985
g65
(dp3986
g73
I3
ssg74
g3980
sg67
(lp3987
S'None'
p3988
asbasbasbag60
(g76
g62
NtRp3989
(dp3990
g65
(dp3991
sg74
g3942
sg67
(lp3992
g60
(g81
g62
NtRp3993
(dp3994
g65
(dp3995
sg74
g3989
sg67
(lp3996
g60
(g61
g62
NtRp3997
(dp3998
g65
(dp3999
g73
I3
ssg74
g3993
sg67
(lp4000
g60
(g69
g62
NtRp4001
(dp4002
g65
(dp4003
g73
I2
ssg74
Nsg67
(lp4004
g60
(g76
g62
NtRp4005
(dp4006
g65
(dp4007
sg74
g4001
sg67
(lp4008
g60
(g81
g62
NtRp4009
(dp4010
g65
(dp4011
sg74
g4005
sg67
(lp4012
g60
(g61
g62
NtRp4013
(dp4014
g65
(dp4015
g73
I2
ssg74
g4009
sg67
(lp4016
g60
(g69
g62
NtRp4017
(dp4018
g65
(dp4019
g73
I1
ssg74
Nsg67
(lp4020
g60
(g76
g62
NtRp4021
(dp4022
g65
(dp4023
sg74
g4017
sg67
(lp4024
g60
(g81
g62
NtRp4025
(dp4026
g65
(dp4027
sg74
g4021
sg67
(lp4028
g60
(g61
g62
NtRp4029
(dp4030
g65
(dp4031
g73
I1
ssg74
g4025
sg67
(lp4032
g3887
(S's\x08\x00\x00\x00My Sites'
tRp4033
asbasbasbag60
(g76
g62
NtRp4034
(dp4035
g65
(dp4036
sg74
g4017
sg67
(lp4037
g60
(g81
g62
NtRp4038
(dp4039
g65
(dp4040
sg74
g4034
sg67
(lp4041
g60
(g61
g62
NtRp4042
(dp4043
g65
(dp4044
g73
I1
ssg74
g4038
sg67
(lp4045
I00
asbasbasbag60
(g76
g62
NtRp4046
(dp4047
g65
(dp4048
sg74
g4017
sg67
(lp4049
g60
(g81
g62
NtRp4050
(dp4051
g65
(dp4052
sg74
g4046
sg67
(lp4053
g60
(g61
g62
NtRp4054
(dp4055
g65
(dp4056
g73
I1
ssg74
g4050
sg67
(lp4057
S'/admin/default/site'
p4058
asbasbasbasbasbasbasbag60
(g76
g62
NtRp4059
(dp4060
g65
(dp4061
sg74
g4001
sg67
(lp4062
g60
(g81
g62
NtRp4063
(dp4064
g65
(dp4065
sg74
g4059
sg67
(lp4066
g60
(g61
g62
NtRp4067
(dp4068
g65
(dp4069
g73
I2
ssg74
g4063
sg67
(lp4070
g60
(g69
g62
NtRp4071
(dp4072
g65
(dp4073
g73
I1
ssg74
Nsg67
(lp4074
g60
(g76
g62
NtRp4075
(dp4076
g65
(dp4077
sg74
g4071
sg67
(lp4078
g60
(g81
g62
NtRp4079
(dp4080
g65
(dp4081
sg74
g4075
sg67
(lp4082
g60
(g61
g62
NtRp4083
(dp4084
g65
(dp4085
g73
I1
ssg74
g4079
sg67
(lp4086
g3887
(S's\x08\x00\x00\x00This App'
tRp4087
asbasbasbag60
(g76
g62
NtRp4088
(dp4089
g65
(dp4090
sg74
g4071
sg67
(lp4091
g60
(g81
g62
NtRp4092
(dp4093
g65
(dp4094
sg74
g4088
sg67
(lp4095
g60
(g61
g62
NtRp4096
(dp4097
g65
(dp4098
g73
I1
ssg74
g4092
sg67
(lp4099
I00
asbasbasbag60
(g76
g62
NtRp4100
(dp4101
g65
(dp4102
sg74
g4071
sg67
(lp4103
g60
(g81
g62
NtRp4104
(dp4105
g65
(dp4106
sg74
g4100
sg67
(lp4107
g60
(g61
g62
NtRp4108
(dp4109
g65
(dp4110
g73
I1
ssg74
g4104
sg67
(lp4111
S'/admin/default/design/sitsit'
p4112
asbasbasbag60
(g76
g62
NtRp4113
(dp4114
g65
(dp4115
sg74
g4071
sg67
(lp4116
g60
(g81
g62
NtRp4117
(dp4118
g65
(dp4119
sg74
g4113
sg67
(lp4120
g60
(g61
g62
NtRp4121
(dp4122
g65
(dp4123
g73
I1
ssg74
g4117
sg67
(lp4124
(lp4125
(g3887
(S's\n\x00\x00\x00Controller'
tRp4126
I00
S'/admin/default/edit/sitsit/controllers/default.py'
tp4127
a(g3887
(S's\x04\x00\x00\x00View'
tRp4128
I00
S'/admin/default/edit/sitsit/views/default/sitsit.html'
tp4129
a(g3887
(S's\x06\x00\x00\x00Layout'
tRp4130
I00
S'/admin/default/edit/sitsit/views/layout.html'
tp4131
a(g3887
(S's\n\x00\x00\x00Stylesheet'
tRp4132
I00
S'/admin/default/edit/sitsit/static/css/web2py.css'
tp4133
a(g3887
(S's\x08\x00\x00\x00DB Model'
tRp4134
I00
S'/admin/default/edit/sitsit/models/db.py'
tp4135
a(g3887
(S's\n\x00\x00\x00Menu Model'
tRp4136
I00
S'/admin/default/edit/sitsit/models/menu.py'
tp4137
a(g3887
(S's\x08\x00\x00\x00Database'
tRp4138
I00
S'/sitsit/appadmin/index'
tp4139
a(g3887
(S's\x06\x00\x00\x00Errors'
tRp4140
I00
S'/admin/default/errors/sitsit'
tp4141
a(g3887
(S's\x05\x00\x00\x00About'
tRp4142
I00
S'/admin/default/about/sitsit'
tp4143
aasbasbasbasbasbasbasbag60
(g76
g62
NtRp4144
(dp4145
g65
(dp4146
sg74
g4001
sg67
(lp4147
g60
(g81
g62
NtRp4148
(dp4149
g65
(dp4150
sg74
g4144
sg67
(lp4151
g60
(g61
g62
NtRp4152
(dp4153
g65
(dp4154
g73
I2
ssg74
g4148
sg67
(lp4155
g60
(g69
g62
NtRp4156
(dp4157
g65
(dp4158
g73
I1
ssg74
Nsg67
(lp4159
g60
(g76
g62
NtRp4160
(dp4161
g65
(dp4162
sg74
g4156
sg67
(lp4163
g60
(g81
g62
NtRp4164
(dp4165
g65
(dp4166
sg74
g4160
sg67
(lp4167
g60
(g61
g62
NtRp4168
(dp4169
g65
(dp4170
g73
I1
ssg74
g4164
sg67
(lp4171
S'web2py.com'
p4172
asbasbasbag60
(g76
g62
NtRp4173
(dp4174
g65
(dp4175
sg74
g4156
sg67
(lp4176
g60
(g81
g62
NtRp4177
(dp4178
g65
(dp4179
sg74
g4173
sg67
(lp4180
g60
(g61
g62
NtRp4181
(dp4182
g65
(dp4183
g73
I1
ssg74
g4177
sg67
(lp4184
I00
asbasbasbag60
(g76
g62
NtRp4185
(dp4186
g65
(dp4187
sg74
g4156
sg67
(lp4188
g60
(g81
g62
NtRp4189
(dp4190
g65
(dp4191
sg74
g4185
sg67
(lp4192
g60
(g61
g62
NtRp4193
(dp4194
g65
(dp4195
g73
I1
ssg74
g4189
sg67
(lp4196
S'http://www.web2py.com'
p4197
asbasbasbag60
(g76
g62
NtRp4198
(dp4199
g65
(dp4200
sg74
g4156
sg67
(lp4201
g60
(g81
g62
NtRp4202
(dp4203
g65
(dp4204
sg74
g4198
sg67
(lp4205
g60
(g61
g62
NtRp4206
(dp4207
g65
(dp4208
g73
I1
ssg74
g4202
sg67
(lp4209
(lp4210
(g3887
(S's\x08\x00\x00\x00Download'
tRp4211
I00
S'http://www.web2py.com/examples/default/download'
p4212
tp4213
a(g3887
(S's\x07\x00\x00\x00Support'
tRp4214
I00
S'http://www.web2py.com/examples/default/support'
p4215
tp4216
a(g3887
(S's\x04\x00\x00\x00Demo'
tRp4217
I00
S'http://web2py.com/demo_admin'
p4218
tp4219
a(g3887
(S's\x0e\x00\x00\x00Quick Examples'
tRp4220
I00
S'http://web2py.com/examples/default/examples'
p4221
tp4222
a(g3887
(S's\x03\x00\x00\x00FAQ'
tRp4223
I00
S'http://web2py.com/AlterEgo'
p4224
tp4225
a(g3887
(S's\x06\x00\x00\x00Videos'
tRp4226
I00
S'http://www.web2py.com/examples/default/videos/'
p4227
tp4228
a(g3887
(S's\x11\x00\x00\x00Free Applications'
tRp4229
I00
S'http://web2py.com/appliances'
p4230
tp4231
a(g3887
(S's\x07\x00\x00\x00Plugins'
tRp4232
I00
S'http://web2py.com/plugins'
p4233
tp4234
a(g3887
(S's\x07\x00\x00\x00Layouts'
tRp4235
I00
S'http://web2py.com/layouts'
p4236
tp4237
a(g3887
(S's\x07\x00\x00\x00Recipes'
tRp4238
I00
S'http://web2pyslices.com/'
p4239
tp4240
a(g3887
(S's\x08\x00\x00\x00Semantic'
tRp4241
I00
S'http://web2py.com/semantic'
p4242
tp4243
aasbasbasbasbasbasbasbag60
(g76
g62
NtRp4244
(dp4245
g65
(dp4246
sg74
g4001
sg67
(lp4247
g60
(g81
g62
NtRp4248
(dp4249
g65
(dp4250
sg74
g4244
sg67
(lp4251
g60
(g61
g62
NtRp4252
(dp4253
g65
(dp4254
g73
I2
ssg74
g4248
sg67
(lp4255
g60
(g69
g62
NtRp4256
(dp4257
g65
(dp4258
g73
I1
ssg74
Nsg67
(lp4259
g60
(g76
g62
NtRp4260
(dp4261
g65
(dp4262
sg74
g4256
sg67
(lp4263
g60
(g81
g62
NtRp4264
(dp4265
g65
(dp4266
sg74
g4260
sg67
(lp4267
g60
(g61
g62
NtRp4268
(dp4269
g65
(dp4270
g73
I1
ssg74
g4264
sg67
(lp4271
g3887
(S's\r\x00\x00\x00Documentation'
tRp4272
asbasbasbag60
(g76
g62
NtRp4273
(dp4274
g65
(dp4275
sg74
g4256
sg67
(lp4276
g60
(g81
g62
NtRp4277
(dp4278
g65
(dp4279
sg74
g4273
sg67
(lp4280
g60
(g61
g62
NtRp4281
(dp4282
g65
(dp4283
g73
I1
ssg74
g4277
sg67
(lp4284
I00
asbasbasbag60
(g76
g62
NtRp4285
(dp4286
g65
(dp4287
sg74
g4256
sg67
(lp4288
g60
(g81
g62
NtRp4289
(dp4290
g65
(dp4291
sg74
g4285
sg67
(lp4292
g60
(g61
g62
NtRp4293
(dp4294
g65
(dp4295
g73
I1
ssg74
g4289
sg67
(lp4296
S'http://www.web2py.com/book'
p4297
asbasbasbag60
(g76
g62
NtRp4298
(dp4299
g65
(dp4300
sg74
g4256
sg67
(lp4301
g60
(g81
g62
NtRp4302
(dp4303
g65
(dp4304
sg74
g4298
sg67
(lp4305
g60
(g61
g62
NtRp4306
(dp4307
g65
(dp4308
g73
I1
ssg74
g4302
sg67
(lp4309
(lp4310
(g3887
(S's\x07\x00\x00\x00Preface'
tRp4311
I00
S'http://www.web2py.com/book/default/chapter/00'
p4312
tp4313
a(g3887
(S's\x0c\x00\x00\x00Introduction'
tRp4314
I00
S'http://www.web2py.com/book/default/chapter/01'
p4315
tp4316
a(g3887
(S's\x06\x00\x00\x00Python'
tRp4317
I00
S'http://www.web2py.com/book/default/chapter/02'
p4318
tp4319
a(g3887
(S's\x08\x00\x00\x00Overview'
tRp4320
I00
S'http://www.web2py.com/book/default/chapter/03'
p4321
tp4322
a(g3887
(S's\x08\x00\x00\x00The Core'
tRp4323
I00
S'http://www.web2py.com/book/default/chapter/04'
p4324
tp4325
a(g3887
(S's\t\x00\x00\x00The Views'
tRp4326
I00
S'http://www.web2py.com/book/default/chapter/05'
p4327
tp4328
a(g3887
(S's\x08\x00\x00\x00Database'
tRp4329
I00
S'http://www.web2py.com/book/default/chapter/06'
p4330
tp4331
a(g3887
(S's\x14\x00\x00\x00Forms and Validators'
tRp4332
I00
S'http://www.web2py.com/book/default/chapter/07'
p4333
tp4334
a(g3887
(S's\r\x00\x00\x00Email and SMS'
tRp4335
I00
S'http://www.web2py.com/book/default/chapter/08'
p4336
tp4337
a(g3887
(S's\x0e\x00\x00\x00Access Control'
tRp4338
I00
S'http://www.web2py.com/book/default/chapter/09'
p4339
tp4340
a(g3887
(S's\x08\x00\x00\x00Services'
tRp4341
I00
S'http://www.web2py.com/book/default/chapter/10'
p4342
tp4343
a(g3887
(S's\x0c\x00\x00\x00Ajax Recipes'
tRp4344
I00
S'http://www.web2py.com/book/default/chapter/11'
p4345
tp4346
a(g3887
(S's\x16\x00\x00\x00Components and Plugins'
tRp4347
I00
S'http://www.web2py.com/book/default/chapter/12'
p4348
tp4349
a(g3887
(S's\x12\x00\x00\x00Deployment Recipes'
tRp4350
I00
S'http://www.web2py.com/book/default/chapter/13'
p4351
tp4352
a(g3887
(S's\r\x00\x00\x00Other Recipes'
tRp4353
I00
S'http://www.web2py.com/book/default/chapter/14'
p4354
tp4355
a(g3887
(S's\r\x00\x00\x00Buy this book'
tRp4356
I00
S'http://stores.lulu.com/web2py'
p4357
tp4358
aasbasbasbasbasbasbasbag60
(g76
g62
NtRp4359
(dp4360
g65
(dp4361
sg74
g4001
sg67
(lp4362
g60
(g81
g62
NtRp4363
(dp4364
g65
(dp4365
sg74
g4359
sg67
(lp4366
g60
(g61
g62
NtRp4367
(dp4368
g65
(dp4369
g73
I2
ssg74
g4363
sg67
(lp4370
g60
(g69
g62
NtRp4371
(dp4372
g65
(dp4373
g73
I1
ssg74
Nsg67
(lp4374
g60
(g76
g62
NtRp4375
(dp4376
g65
(dp4377
sg74
g4371
sg67
(lp4378
g60
(g81
g62
NtRp4379
(dp4380
g65
(dp4381
sg74
g4375
sg67
(lp4382
g60
(g61
g62
NtRp4383
(dp4384
g65
(dp4385
g73
I1
ssg74
g4379
sg67
(lp4386
g3887
(S's\t\x00\x00\x00Community'
tRp4387
asbasbasbag60
(g76
g62
NtRp4388
(dp4389
g65
(dp4390
sg74
g4371
sg67
(lp4391
g60
(g81
g62
NtRp4392
(dp4393
g65
(dp4394
sg74
g4388
sg67
(lp4395
g60
(g61
g62
NtRp4396
(dp4397
g65
(dp4398
g73
I1
ssg74
g4392
sg67
(lp4399
I00
asbasbasbag60
(g76
g62
NtRp4400
(dp4401
g65
(dp4402
sg74
g4371
sg67
(lp4403
g60
(g81
g62
NtRp4404
(dp4405
g65
(dp4406
sg74
g4400
sg67
(lp4407
g60
(g61
g62
NtRp4408
(dp4409
g65
(dp4410
g73
I1
ssg74
g4404
sg67
(lp4411
Nasbasbasbag60
(g76
g62
NtRp4412
(dp4413
g65
(dp4414
sg74
g4371
sg67
(lp4415
g60
(g81
g62
NtRp4416
(dp4417
g65
(dp4418
sg74
g4412
sg67
(lp4419
g60
(g61
g62
NtRp4420
(dp4421
g65
(dp4422
g73
I1
ssg74
g4416
sg67
(lp4423
(lp4424
(g3887
(S's\x06\x00\x00\x00Groups'
tRp4425
I00
S'http://www.web2py.com/examples/default/usergroups'
p4426
tp4427
a(g3887
(S's\x07\x00\x00\x00Twitter'
tRp4428
I00
S'http://twitter.com/web2py'
p4429
tp4430
a(g3887
(S's\t\x00\x00\x00Live Chat'
tRp4431
I00
S'http://webchat.freenode.net/?channels=web2py'
p4432
tp4433
aasbasbasbasbasbasbasbag60
(g76
g62
NtRp4434
(dp4435
g65
(dp4436
sg74
g4001
sg67
(lp4437
g60
(g81
g62
NtRp4438
(dp4439
g65
(dp4440
sg74
g4434
sg67
(lp4441
g60
(g61
g62
NtRp4442
(dp4443
g65
(dp4444
g73
I2
ssg74
g4438
sg67
(lp4445
g60
(g69
g62
NtRp4446
(dp4447
g65
(dp4448
g73
I1
ssg74
Nsg67
(lp4449
g60
(g76
g62
NtRp4450
(dp4451
g65
(dp4452
sg74
g4446
sg67
(lp4453
g60
(g81
g62
NtRp4454
(dp4455
g65
(dp4456
sg74
g4450
sg67
(lp4457
g60
(g61
g62
NtRp4458
(dp4459
g65
(dp4460
g73
I1
ssg74
g4454
sg67
(lp4461
g3887
(S's\x07\x00\x00\x00Plugins'
tRp4462
asbasbasbag60
(g76
g62
NtRp4463
(dp4464
g65
(dp4465
sg74
g4446
sg67
(lp4466
g60
(g81
g62
NtRp4467
(dp4468
g65
(dp4469
sg74
g4463
sg67
(lp4470
g60
(g61
g62
NtRp4471
(dp4472
g65
(dp4473
g73
I1
ssg74
g4467
sg67
(lp4474
I00
asbasbasbag60
(g76
g62
NtRp4475
(dp4476
g65
(dp4477
sg74
g4446
sg67
(lp4478
g60
(g81
g62
NtRp4479
(dp4480
g65
(dp4481
sg74
g4475
sg67
(lp4482
g60
(g61
g62
NtRp4483
(dp4484
g65
(dp4485
g73
I1
ssg74
g4479
sg67
(lp4486
Nasbasbasbag60
(g76
g62
NtRp4487
(dp4488
g65
(dp4489
sg74
g4446
sg67
(lp4490
g60
(g81
g62
NtRp4491
(dp4492
g65
(dp4493
sg74
g4487
sg67
(lp4494
g60
(g61
g62
NtRp4495
(dp4496
g65
(dp4497
g73
I1
ssg74
g4491
sg67
(lp4498
(lp4499
(S'plugin_wiki'
p4500
I00
S'http://web2py.com/examples/default/download'
p4501
tp4502
a(g3887
(S's\r\x00\x00\x00Other Plugins'
tRp4503
I00
g4233
tp4504
a(g3887
(S's\x0e\x00\x00\x00Layout Plugins'
tRp4505
I00
g4236
tp4506
aasbasbasbasbasbasbasbasbasbasbasbasbasbasbasbasbasbasbasbag60
(g76
g62
NtRp4507
(dp4508
g65
(dp4509
sg74
g3351
sg67
(lp4510
g60
(g81
g62
NtRp4511
(dp4512
g65
(dp4513
g85
g86
ssg74
g4507
sg67
(lp4514
S'meta'
p4515
asbag60
(g81
g62
NtRp4516
(dp4517
g65
(dp4518
g92
g93
ssg74
g4507
sg67
(lp4519
S':'
asbag60
(g81
g62
NtRp4520
(dp4521
g65
(dp4522
sg74
g4507
sg67
(lp4523
g60
(g61
g62
NtRp4524
(dp4525
g65
(dp4526
g73
I5
ssg74
g4520
sg67
(lp4527
g60
(g69
g62
NtRp4528
(dp4529
g65
(dp4530
g73
I4
ssg74
Nsg67
(lp4531
g60
(g76
g62
NtRp4532
(dp4533
g65
(dp4534
sg74
g4528
sg67
(lp4535
g60
(g81
g62
NtRp4536
(dp4537
g65
(dp4538
g85
g86
ssg74
g4532
sg67
(lp4539
S'author'
p4540
asbag60
(g81
g62
NtRp4541
(dp4542
g65
(dp4543
g92
g93
ssg74
g4532
sg67
(lp4544
S':'
asbag60
(g81
g62
NtRp4545
(dp4546
g65
(dp4547
sg74
g4532
sg67
(lp4548
g60
(g61
g62
NtRp4549
(dp4550
g65
(dp4551
g73
I4
ssg74
g4545
sg67
(lp4552
S'Your Name <you@example.com>'
p4553
asbasbasbag60
(g76
g62
NtRp4554
(dp4555
g65
(dp4556
sg74
g4528
sg67
(lp4557
g60
(g81
g62
NtRp4558
(dp4559
g65
(dp4560
g85
g86
ssg74
g4554
sg67
(lp4561
S'copyright'
p4562
asbag60
(g81
g62
NtRp4563
(dp4564
g65
(dp4565
g92
g93
ssg74
g4554
sg67
(lp4566
S':'
asbag60
(g81
g62
NtRp4567
(dp4568
g65
(dp4569
sg74
g4554
sg67
(lp4570
g60
(g61
g62
NtRp4571
(dp4572
g65
(dp4573
g73
I4
ssg74
g4567
sg67
(lp4574
S'Copyright 2011'
p4575
asbasbasbag60
(g76
g62
NtRp4576
(dp4577
g65
(dp4578
sg74
g4528
sg67
(lp4579
g60
(g81
g62
NtRp4580
(dp4581
g65
(dp4582
g85
g86
ssg74
g4576
sg67
(lp4583
S'description'
p4584
asbag60
(g81
g62
NtRp4585
(dp4586
g65
(dp4587
g92
g93
ssg74
g4576
sg67
(lp4588
S':'
asbag60
(g81
g62
NtRp4589
(dp4590
g65
(dp4591
sg74
g4576
sg67
(lp4592
g60
(g61
g62
NtRp4593
(dp4594
g65
(dp4595
g73
I4
ssg74
g4589
sg67
(lp4596
S'a cool new app'
p4597
asbasbasbag60
(g76
g62
NtRp4598
(dp4599
g65
(dp4600
sg74
g4528
sg67
(lp4601
g60
(g81
g62
NtRp4602
(dp4603
g65
(dp4604
g85
g86
ssg74
g4598
sg67
(lp4605
S'generator'
p4606
asbag60
(g81
g62
NtRp4607
(dp4608
g65
(dp4609
g92
g93
ssg74
g4598
sg67
(lp4610
S':'
asbag60
(g81
g62
NtRp4611
(dp4612
g65
(dp4613
sg74
g4598
sg67
(lp4614
g60
(g61
g62
NtRp4615
(dp4616
g65
(dp4617
g73
I4
ssg74
g4611
sg67
(lp4618
S'Web2py Web Framework'
p4619
asbasbasbag60
(g76
g62
NtRp4620
(dp4621
g65
(dp4622
sg74
g4528
sg67
(lp4623
g60
(g81
g62
NtRp4624
(dp4625
g65
(dp4626
g85
g86
ssg74
g4620
sg67
(lp4627
S'keywords'
p4628
asbag60
(g81
g62
NtRp4629
(dp4630
g65
(dp4631
g92
g93
ssg74
g4620
sg67
(lp4632
S':'
asbag60
(g81
g62
NtRp4633
(dp4634
g65
(dp4635
sg74
g4620
sg67
(lp4636
g60
(g61
g62
NtRp4637
(dp4638
g65
(dp4639
g73
I4
ssg74
g4633
sg67
(lp4640
S'web2py, python, framework'
p4641
asbasbasbasbasbasbasbag60
(g76
g62
NtRp4642
(dp4643
g65
(dp4644
sg74
g3351
sg67
(lp4645
g60
(g81
g62
NtRp4646
(dp4647
g65
(dp4648
g85
g86
ssg74
g4642
sg67
(lp4649
S'postprocessing'
p4650
asbag60
(g81
g62
NtRp4651
(dp4652
g65
(dp4653
g92
g93
ssg74
g4642
sg67
(lp4654
S':'
asbag60
(g81
g62
NtRp4655
(dp4656
g65
(dp4657
sg74
g4642
sg67
(lp4658
g60
(g61
g62
NtRp4659
(dp4660
g65
(dp4661
g73
I5
ssg74
g4655
sg67
(lp4662
g60
(g69
g62
NtRp4663
(dp4664
g65
(dp4665
g73
I4
ssg74
Nsg67
(lp4666
sbasbasbasbag60
(g76
g62
NtRp4667
(dp4668
g65
(dp4669
sg74
g3351
sg67
(lp4670
g60
(g81
g62
NtRp4671
(dp4672
g65
(dp4673
g85
g86
ssg74
g4667
sg67
(lp4674
S'session_file'
p4675
asbag60
(g81
g62
NtRp4676
(dp4677
g65
(dp4678
g92
g93
ssg74
g4667
sg67
(lp4679
S':'
asbag60
(g81
g62
NtRp4680
(dp4681
g65
(dp4682
sg74
g4667
sg67
(lp4683
g60
(g61
g62
NtRp4684
(dp4685
g65
(dp4686
g73
I5
ssg74
g4680
sg67
(lp4687
S"<open file 'C:\\Users\\Osku\\koodaus\\web2py\\applications\\sitsit\\sessions\\127.0.0.1-ec2284ba-32fe-4a19-9a6f-e97c370381b5', mode 'rb+' at 0x04E22E78>"
p4688
asbasbasbag60
(g76
g62
NtRp4689
(dp4690
g65
(dp4691
sg74
g3351
sg67
(lp4692
g60
(g81
g62
NtRp4693
(dp4694
g65
(dp4695
g85
g86
ssg74
g4689
sg67
(lp4696
S'session_filename'
p4697
asbag60
(g81
g62
NtRp4698
(dp4699
g65
(dp4700
g92
g93
ssg74
g4689
sg67
(lp4701
S':'
asbag60
(g81
g62
NtRp4702
(dp4703
g65
(dp4704
sg74
g4689
sg67
(lp4705
g60
(g61
g62
NtRp4706
(dp4707
g65
(dp4708
g73
I5
ssg74
g4702
sg67
(lp4709
S'C:\\Users\\Osku\\koodaus\\web2py\\applications\\sitsit\\sessions\\127.0.0.1-ec2284ba-32fe-4a19-9a6f-e97c370381b5'
p4710
asbasbasbag60
(g76
g62
NtRp4711
(dp4712
g65
(dp4713
sg74
g3351
sg67
(lp4714
g60
(g81
g62
NtRp4715
(dp4716
g65
(dp4717
g85
g86
ssg74
g4711
sg67
(lp4718
S'session_id'
p4719
asbag60
(g81
g62
NtRp4720
(dp4721
g65
(dp4722
g92
g93
ssg74
g4711
sg67
(lp4723
S':'
asbag60
(g81
g62
NtRp4724
(dp4725
g65
(dp4726
sg74
g4711
sg67
(lp4727
g60
(g61
g62
NtRp4728
(dp4729
g65
(dp4730
g73
I5
ssg74
g4724
sg67
(lp4731
S'127.0.0.1-ec2284ba-32fe-4a19-9a6f-e97c370381b5'
p4732
asbasbasbag60
(g76
g62
NtRp4733
(dp4734
g65
(dp4735
sg74
g3351
sg67
(lp4736
g60
(g81
g62
NtRp4737
(dp4738
g65
(dp4739
g85
g86
ssg74
g4733
sg67
(lp4740
S'session_id_name'
p4741
asbag60
(g81
g62
NtRp4742
(dp4743
g65
(dp4744
g92
g93
ssg74
g4733
sg67
(lp4745
S':'
asbag60
(g81
g62
NtRp4746
(dp4747
g65
(dp4748
sg74
g4733
sg67
(lp4749
g60
(g61
g62
NtRp4750
(dp4751
g65
(dp4752
g73
I5
ssg74
g4746
sg67
(lp4753
g3408
asbasbasbag60
(g76
g62
NtRp4754
(dp4755
g65
(dp4756
sg74
g3351
sg67
(lp4757
g60
(g81
g62
NtRp4758
(dp4759
g65
(dp4760
g85
g86
ssg74
g4754
sg67
(lp4761
S'session_locked'
p4762
asbag60
(g81
g62
NtRp4763
(dp4764
g65
(dp4765
g92
g93
ssg74
g4754
sg67
(lp4766
S':'
asbag60
(g81
g62
NtRp4767
(dp4768
g65
(dp4769
sg74
g4754
sg67
(lp4770
g60
(g61
g62
NtRp4771
(dp4772
g65
(dp4773
g73
I5
ssg74
g4767
sg67
(lp4774
g1610
asbasbasbag60
(g76
g62
NtRp4775
(dp4776
g65
(dp4777
sg74
g3351
sg67
(lp4778
g60
(g81
g62
NtRp4779
(dp4780
g65
(dp4781
g85
g86
ssg74
g4775
sg67
(lp4782
S'session_new'
p4783
asbag60
(g81
g62
NtRp4784
(dp4785
g65
(dp4786
g92
g93
ssg74
g4775
sg67
(lp4787
S':'
asbag60
(g81
g62
NtRp4788
(dp4789
g65
(dp4790
sg74
g4775
sg67
(lp4791
g60
(g61
g62
NtRp4792
(dp4793
g65
(dp4794
g73
I5
ssg74
g4788
sg67
(lp4795
g103
asbasbasbag60
(g76
g62
NtRp4796
(dp4797
g65
(dp4798
sg74
g3351
sg67
(lp4799
g60
(g81
g62
NtRp4800
(dp4801
g65
(dp4802
g85
g86
ssg74
g4796
sg67
(lp4803
S'status'
p4804
asbag60
(g81
g62
NtRp4805
(dp4806
g65
(dp4807
g92
g93
ssg74
g4796
sg67
(lp4808
S':'
asbag60
(g81
g62
NtRp4809
(dp4810
g65
(dp4811
sg74
g4796
sg67
(lp4812
g60
(g61
g62
NtRp4813
(dp4814
g65
(dp4815
g73
I5
ssg74
g4809
sg67
(lp4816
S'200'
p4817
asbasbasbag60
(g76
g62
NtRp4818
(dp4819
g65
(dp4820
sg74
g3351
sg67
(lp4821
g60
(g81
g62
NtRp4822
(dp4823
g65
(dp4824
g85
g86
ssg74
g4818
sg67
(lp4825
S'subtitle'
p4826
asbag60
(g81
g62
NtRp4827
(dp4828
g65
(dp4829
g92
g93
ssg74
g4818
sg67
(lp4830
S':'
asbag60
(g81
g62
NtRp4831
(dp4832
g65
(dp4833
sg74
g4818
sg67
(lp4834
g60
(g61
g62
NtRp4835
(dp4836
g65
(dp4837
g73
I5
ssg74
g4831
sg67
(lp4838
g3887
(S's\r\x00\x00\x00customize me!'
tRp4839
asbasbasbag60
(g76
g62
NtRp4840
(dp4841
g65
(dp4842
sg74
g3351
sg67
(lp4843
g60
(g81
g62
NtRp4844
(dp4845
g65
(dp4846
g85
g86
ssg74
g4840
sg67
(lp4847
S'title'
p4848
asbag60
(g81
g62
NtRp4849
(dp4850
g65
(dp4851
g92
g93
ssg74
g4840
sg67
(lp4852
S':'
asbag60
(g81
g62
NtRp4853
(dp4854
g65
(dp4855
sg74
g4840
sg67
(lp4856
g60
(g61
g62
NtRp4857
(dp4858
g65
(dp4859
g73
I5
ssg74
g4853
sg67
(lp4860
S'Sitsit'
p4861
asbasbasbag60
(g76
g62
NtRp4862
(dp4863
g65
(dp4864
sg74
g3351
sg67
(lp4865
g60
(g81
g62
NtRp4866
(dp4867
g65
(dp4868
g85
g86
ssg74
g4862
sg67
(lp4869
g2295
asbag60
(g81
g62
NtRp4870
(dp4871
g65
(dp4872
g92
g93
ssg74
g4862
sg67
(lp4873
S':'
asbag60
(g81
g62
NtRp4874
(dp4875
g65
(dp4876
sg74
g4862
sg67
(lp4877
g60
(g61
g62
NtRp4878
(dp4879
g65
(dp4880
g73
I5
ssg74
g4874
sg67
(lp4881
g2308
asbasbasbag60
(g76
g62
NtRp4882
(dp4883
g65
(dp4884
sg74
g3351
sg67
(lp4885
g60
(g81
g62
NtRp4886
(dp4887
g65
(dp4888
g85
g86
ssg74
g4882
sg67
(lp4889
S'view'
p4890
asbag60
(g81
g62
NtRp4891
(dp4892
g65
(dp4893
g92
g93
ssg74
g4882
sg67
(lp4894
S':'
asbag60
(g81
g62
NtRp4895
(dp4896
g65
(dp4897
sg74
g4882
sg67
(lp4898
g60
(g61
g62
NtRp4899
(dp4900
g65
(dp4901
g73
I5
ssg74
g4895
sg67
(lp4902
S'default/sitsit.html'
p4903
asbasbasbasbasbsS'locals'
p4904
(dp4905
g4
S"r'C:\\Users\\Osku\\koodaus\\web2py\\applications\\sitsit\\views\\default/sitsit.html'"
p4906
sg6
S'r"response.write(\'<html>\\r\\n<head>\\r\\n\\t\\r\\n</head...r\\n\\r\\n</body>\\r\\n\\r\\n</html>\\r\\n\', escape=False)"'
p4907
sssS'traceback'
p4908
S'Traceback (most recent call last):\n  File "gluon/restricted.py", line 204, in restricted\n  File "gluon/restricted.py", line 189, in compile2\n  File "C:\\Users\\Osku\\koodaus\\web2py\\applications\\sitsit\\views\\default/sitsit.html", line 2\n    if len(request.vars)\n                       \n^\nSyntaxError: invalid syntax\n'
p4909
s.