(dp1
S'output'
p2
S"<type 'exceptions.NameError'> name 'join' is not defined"
p3
sS'layer'
p4
S'C:\\Users\\Osku\\koodaus\\web2py\\applications\\sitsit\\views\\default/sitsit.html'
p5
sS'code'
p6
S'response.write(\'<html>\\r\\n<head>\\r\\n\\t\', escape=False)\nresponse.files.insert(0,URL(\'static\',\'js/jquery.js\'))\nresponse.include_files()\nresponse.write(\'\\r\\n</head>\\r\\n<body>\\r\\n\', escape=False)\nif not found:\n    response.write(\'\\r\\nEi loytyny\\r\\n\', escape=False)\nelse:\n    response.write(\'\\r\\n\', escape=False)\n    if owner:\n        response.write(\'\\r\\n\\t\', escape=False)\n        response.write(BEAUTIFY(sitsi))\n        response.write(\'\\r\\n\\t\', escape=False)\n        response.write(BEAUTIFY(people))\n        response.write(\'\\r\\n\', escape=False)\n        pass\n    response.write(\'\\r\\n\', escape=False)\n    if auth.user:\n        response.write(\'\\r\\n<script type="text/javascript">\\r\\nfunction attend(){\\r\\n\\tconsole.log("attending");\\r\\n\\t$.ajax({\\r\\n\\t  url: "\', escape=False)\n        response.write(URL(f=join))\n        response.write(\'",\\r\\n\\t  context: "testi"\\r\\n\\t}).done(function(data) { \\r\\n\\t  $("#munid").html(data);\\r\\n\\t});\\r\\n}\\r\\n</script>\\r\\n<button onclick="attend()">Join</button>\\r\\n\\r\\n<div id="munid"></div>\\r\\n\', escape=False)\n        pass\n    response.write(\'\\r\\n\', escape=False)\n    pass\nresponse.write(\'\\r\\n\\r\\n</body>\\r\\n\\r\\n</html>\\r\\n\', escape=False)'
p7
sS'snapshot'
p8
(dp9
S'exception'
p10
(dp11
S'__hash__'
p12
S"<method-wrapper '__hash__' of exceptions.NameError object at 0x054CF828>"
p13
sS'__setattr__'
p14
S"<method-wrapper '__setattr__' of exceptions.NameError object at 0x054CF828>"
p15
sS'__reduce_ex__'
p16
S'<built-in method __reduce_ex__ of exceptions.NameError object at 0x054CF828>'
p17
sS'__getslice__'
p18
S"<method-wrapper '__getslice__' of exceptions.NameError object at 0x054CF828>"
p19
sS'__getitem__'
p20
S"<method-wrapper '__getitem__' of exceptions.NameError object at 0x054CF828>"
p21
sS'__setstate__'
p22
S'<built-in method __setstate__ of exceptions.NameError object at 0x054CF828>'
p23
sS'__reduce__'
p24
S'<built-in method __reduce__ of exceptions.NameError object at 0x054CF828>'
p25
sS'__str__'
p26
S"<method-wrapper '__str__' of exceptions.NameError object at 0x054CF828>"
p27
sS'args'
p28
S'("name \'join\' is not defined",)'
p29
sS'__getattribute__'
p30
S"<method-wrapper '__getattribute__' of exceptions.NameError object at 0x054CF828>"
p31
sS'__class__'
p32
S"<type 'exceptions.NameError'>"
p33
sS'__delattr__'
p34
S"<method-wrapper '__delattr__' of exceptions.NameError object at 0x054CF828>"
p35
sS'__repr__'
p36
S"<method-wrapper '__repr__' of exceptions.NameError object at 0x054CF828>"
p37
sS'__dict__'
p38
S'{}'
p39
sS'__doc__'
p40
S"'Name not found globally.'"
p41
sS'__init__'
p42
S"<method-wrapper '__init__' of exceptions.NameError object at 0x054CF828>"
p43
sS'__new__'
p44
S'<built-in method __new__ of type object at 0x1E1CD8D8>'
p45
ssS'evalue'
p46
S"name 'join' is not defined"
p47
sS'request'
p48
ccopy_reg
_reconstructor
p49
(cgluon.html
BEAUTIFY
p50
c__builtin__
object
p51
NtRp52
(dp53
S'attributes'
p54
(dp55
sS'components'
p56
(lp57
g49
(cgluon.html
TABLE
p58
g51
NtRp59
(dp60
g54
(dp61
S'level'
p62
I5
ssS'parent'
p63
Nsg56
(lp64
g49
(cgluon.html
TR
p65
g51
NtRp66
(dp67
g54
(dp68
sg63
g59
sg56
(lp69
g49
(cgluon.html
TD
p70
g51
NtRp71
(dp72
g54
(dp73
S'_style'
p74
S'font-weight:bold;vertical-align:top'
p75
ssg63
g66
sg56
(lp76
S'ajax'
p77
asbag49
(g70
g51
NtRp78
(dp79
g54
(dp80
S'_valign'
p81
S'top'
p82
ssg63
g66
sg56
(lp83
S':'
asbag49
(g70
g51
NtRp84
(dp85
g54
(dp86
sg63
g66
sg56
(lp87
g49
(g50
g51
NtRp88
(dp89
g54
(dp90
g62
I5
ssg63
g84
sg56
(lp91
S'False'
p92
asbasbasbag49
(g65
g51
NtRp93
(dp94
g54
(dp95
sg63
g59
sg56
(lp96
g49
(g70
g51
NtRp97
(dp98
g54
(dp99
g74
g75
ssg63
g93
sg56
(lp100
S'application'
p101
asbag49
(g70
g51
NtRp102
(dp103
g54
(dp104
g81
g82
ssg63
g93
sg56
(lp105
S':'
asbag49
(g70
g51
NtRp106
(dp107
g54
(dp108
sg63
g93
sg56
(lp109
g49
(g50
g51
NtRp110
(dp111
g54
(dp112
g62
I5
ssg63
g106
sg56
(lp113
S'sitsit'
p114
asbasbasbag49
(g65
g51
NtRp115
(dp116
g54
(dp117
sg63
g59
sg56
(lp118
g49
(g70
g51
NtRp119
(dp120
g54
(dp121
g74
g75
ssg63
g115
sg56
(lp122
g28
asbag49
(g70
g51
NtRp123
(dp124
g54
(dp125
g81
g82
ssg63
g115
sg56
(lp126
S':'
asbag49
(g70
g51
NtRp127
(dp128
g54
(dp129
sg63
g115
sg56
(lp130
g49
(g50
g51
NtRp131
(dp132
g54
(dp133
g62
I5
ssg63
g127
sg56
(lp134
g49
(g58
g51
NtRp135
(dp136
g54
(dp137
g62
I4
ssg63
Nsg56
(lp138
g49
(g65
g51
NtRp139
(dp140
g54
(dp141
sg63
g135
sg56
(lp142
g49
(g70
g51
NtRp143
(dp144
g54
(dp145
sg63
g139
sg56
(lp146
g49
(g50
g51
NtRp147
(dp148
g54
(dp149
g62
I4
ssg63
g143
sg56
(lp150
S'1'
asbasbasbasbasbasbasbag49
(g65
g51
NtRp151
(dp152
g54
(dp153
sg63
g59
sg56
(lp154
g49
(g70
g51
NtRp155
(dp156
g54
(dp157
g74
g75
ssg63
g151
sg56
(lp158
S'body'
p159
asbag49
(g70
g51
NtRp160
(dp161
g54
(dp162
g81
g82
ssg63
g151
sg56
(lp163
S':'
asbag49
(g70
g51
NtRp164
(dp165
g54
(dp166
sg63
g151
sg56
(lp167
g49
(g50
g51
NtRp168
(dp169
g54
(dp170
g62
I5
ssg63
g164
sg56
(lp171
S'<cStringIO.StringO object at 0x056A2AC0>'
p172
asbasbasbag49
(g65
g51
NtRp173
(dp174
g54
(dp175
sg63
g59
sg56
(lp176
g49
(g70
g51
NtRp177
(dp178
g54
(dp179
g74
g75
ssg63
g173
sg56
(lp180
S'client'
p181
asbag49
(g70
g51
NtRp182
(dp183
g54
(dp184
g81
g82
ssg63
g173
sg56
(lp185
S':'
asbag49
(g70
g51
NtRp186
(dp187
g54
(dp188
sg63
g173
sg56
(lp189
g49
(g50
g51
NtRp190
(dp191
g54
(dp192
g62
I5
ssg63
g186
sg56
(lp193
S'127.0.0.1'
p194
asbasbasbag49
(g65
g51
NtRp195
(dp196
g54
(dp197
sg63
g59
sg56
(lp198
g49
(g70
g51
NtRp199
(dp200
g54
(dp201
g74
g75
ssg63
g195
sg56
(lp202
S'controller'
p203
asbag49
(g70
g51
NtRp204
(dp205
g54
(dp206
g81
g82
ssg63
g195
sg56
(lp207
S':'
asbag49
(g70
g51
NtRp208
(dp209
g54
(dp210
sg63
g195
sg56
(lp211
g49
(g50
g51
NtRp212
(dp213
g54
(dp214
g62
I5
ssg63
g208
sg56
(lp215
S'default'
p216
asbasbasbag49
(g65
g51
NtRp217
(dp218
g54
(dp219
sg63
g59
sg56
(lp220
g49
(g70
g51
NtRp221
(dp222
g54
(dp223
g74
g75
ssg63
g217
sg56
(lp224
S'cookies'
p225
asbag49
(g70
g51
NtRp226
(dp227
g54
(dp228
g81
g82
ssg63
g217
sg56
(lp229
S':'
asbag49
(g70
g51
NtRp230
(dp231
g54
(dp232
sg63
g217
sg56
(lp233
g49
(g50
g51
NtRp234
(dp235
g54
(dp236
g62
I5
ssg63
g230
sg56
(lp237
g49
(g58
g51
NtRp238
(dp239
g54
(dp240
g62
I4
ssg63
Nsg56
(lp241
g49
(g65
g51
NtRp242
(dp243
g54
(dp244
sg63
g238
sg56
(lp245
g49
(g70
g51
NtRp246
(dp247
g54
(dp248
g74
g75
ssg63
g242
sg56
(lp249
S'session_id_admin'
p250
asbag49
(g70
g51
NtRp251
(dp252
g54
(dp253
g81
g82
ssg63
g242
sg56
(lp254
S':'
asbag49
(g70
g51
NtRp255
(dp256
g54
(dp257
sg63
g242
sg56
(lp258
g49
(g50
g51
NtRp259
(dp260
g54
(dp261
g62
I4
ssg63
g255
sg56
(lp262
g49
(g58
g51
NtRp263
(dp264
g54
(dp265
g62
I3
ssg63
Nsg56
(lp266
g49
(g65
g51
NtRp267
(dp268
g54
(dp269
sg63
g263
sg56
(lp270
g49
(g70
g51
NtRp271
(dp272
g54
(dp273
g74
g75
ssg63
g267
sg56
(lp274
S'comment'
p275
asbag49
(g70
g51
NtRp276
(dp277
g54
(dp278
g81
g82
ssg63
g267
sg56
(lp279
S':'
asbag49
(g70
g51
NtRp280
(dp281
g54
(dp282
sg63
g267
sg56
(lp283
g49
(g50
g51
NtRp284
(dp285
g54
(dp286
g62
I3
ssg63
g280
sg56
(lp287
S''
asbasbasbag49
(g65
g51
NtRp288
(dp289
g54
(dp290
sg63
g263
sg56
(lp291
g49
(g70
g51
NtRp292
(dp293
g54
(dp294
g74
g75
ssg63
g288
sg56
(lp295
S'domain'
p296
asbag49
(g70
g51
NtRp297
(dp298
g54
(dp299
g81
g82
ssg63
g288
sg56
(lp300
S':'
asbag49
(g70
g51
NtRp301
(dp302
g54
(dp303
sg63
g288
sg56
(lp304
g49
(g50
g51
NtRp305
(dp306
g54
(dp307
g62
I3
ssg63
g301
sg56
(lp308
S''
asbasbasbag49
(g65
g51
NtRp309
(dp310
g54
(dp311
sg63
g263
sg56
(lp312
g49
(g70
g51
NtRp313
(dp314
g54
(dp315
g74
g75
ssg63
g309
sg56
(lp316
S'expires'
p317
asbag49
(g70
g51
NtRp318
(dp319
g54
(dp320
g81
g82
ssg63
g309
sg56
(lp321
S':'
asbag49
(g70
g51
NtRp322
(dp323
g54
(dp324
sg63
g309
sg56
(lp325
g49
(g50
g51
NtRp326
(dp327
g54
(dp328
g62
I3
ssg63
g322
sg56
(lp329
S''
asbasbasbag49
(g65
g51
NtRp330
(dp331
g54
(dp332
sg63
g263
sg56
(lp333
g49
(g70
g51
NtRp334
(dp335
g54
(dp336
g74
g75
ssg63
g330
sg56
(lp337
S'max-age'
p338
asbag49
(g70
g51
NtRp339
(dp340
g54
(dp341
g81
g82
ssg63
g330
sg56
(lp342
S':'
asbag49
(g70
g51
NtRp343
(dp344
g54
(dp345
sg63
g330
sg56
(lp346
g49
(g50
g51
NtRp347
(dp348
g54
(dp349
g62
I3
ssg63
g343
sg56
(lp350
S''
asbasbasbag49
(g65
g51
NtRp351
(dp352
g54
(dp353
sg63
g263
sg56
(lp354
g49
(g70
g51
NtRp355
(dp356
g54
(dp357
g74
g75
ssg63
g351
sg56
(lp358
S'path'
p359
asbag49
(g70
g51
NtRp360
(dp361
g54
(dp362
g81
g82
ssg63
g351
sg56
(lp363
S':'
asbag49
(g70
g51
NtRp364
(dp365
g54
(dp366
sg63
g351
sg56
(lp367
g49
(g50
g51
NtRp368
(dp369
g54
(dp370
g62
I3
ssg63
g364
sg56
(lp371
S''
asbasbasbag49
(g65
g51
NtRp372
(dp373
g54
(dp374
sg63
g263
sg56
(lp375
g49
(g70
g51
NtRp376
(dp377
g54
(dp378
g74
g75
ssg63
g372
sg56
(lp379
S'secure'
p380
asbag49
(g70
g51
NtRp381
(dp382
g54
(dp383
g81
g82
ssg63
g372
sg56
(lp384
S':'
asbag49
(g70
g51
NtRp385
(dp386
g54
(dp387
sg63
g372
sg56
(lp388
g49
(g50
g51
NtRp389
(dp390
g54
(dp391
g62
I3
ssg63
g385
sg56
(lp392
S''
asbasbasbag49
(g65
g51
NtRp393
(dp394
g54
(dp395
sg63
g263
sg56
(lp396
g49
(g70
g51
NtRp397
(dp398
g54
(dp399
g74
g75
ssg63
g393
sg56
(lp400
S'version'
p401
asbag49
(g70
g51
NtRp402
(dp403
g54
(dp404
g81
g82
ssg63
g393
sg56
(lp405
S':'
asbag49
(g70
g51
NtRp406
(dp407
g54
(dp408
sg63
g393
sg56
(lp409
g49
(g50
g51
NtRp410
(dp411
g54
(dp412
g62
I3
ssg63
g406
sg56
(lp413
S''
asbasbasbasbasbasbasbag49
(g65
g51
NtRp414
(dp415
g54
(dp416
sg63
g238
sg56
(lp417
g49
(g70
g51
NtRp418
(dp419
g54
(dp420
g74
g75
ssg63
g414
sg56
(lp421
S'session_id_sitsit'
p422
asbag49
(g70
g51
NtRp423
(dp424
g54
(dp425
g81
g82
ssg63
g414
sg56
(lp426
S':'
asbag49
(g70
g51
NtRp427
(dp428
g54
(dp429
sg63
g414
sg56
(lp430
g49
(g50
g51
NtRp431
(dp432
g54
(dp433
g62
I4
ssg63
g427
sg56
(lp434
g49
(g58
g51
NtRp435
(dp436
g54
(dp437
g62
I3
ssg63
Nsg56
(lp438
g49
(g65
g51
NtRp439
(dp440
g54
(dp441
sg63
g435
sg56
(lp442
g49
(g70
g51
NtRp443
(dp444
g54
(dp445
g74
g75
ssg63
g439
sg56
(lp446
g275
asbag49
(g70
g51
NtRp447
(dp448
g54
(dp449
g81
g82
ssg63
g439
sg56
(lp450
S':'
asbag49
(g70
g51
NtRp451
(dp452
g54
(dp453
sg63
g439
sg56
(lp454
g49
(g50
g51
NtRp455
(dp456
g54
(dp457
g62
I3
ssg63
g451
sg56
(lp458
S''
asbasbasbag49
(g65
g51
NtRp459
(dp460
g54
(dp461
sg63
g435
sg56
(lp462
g49
(g70
g51
NtRp463
(dp464
g54
(dp465
g74
g75
ssg63
g459
sg56
(lp466
g296
asbag49
(g70
g51
NtRp467
(dp468
g54
(dp469
g81
g82
ssg63
g459
sg56
(lp470
S':'
asbag49
(g70
g51
NtRp471
(dp472
g54
(dp473
sg63
g459
sg56
(lp474
g49
(g50
g51
NtRp475
(dp476
g54
(dp477
g62
I3
ssg63
g471
sg56
(lp478
S''
asbasbasbag49
(g65
g51
NtRp479
(dp480
g54
(dp481
sg63
g435
sg56
(lp482
g49
(g70
g51
NtRp483
(dp484
g54
(dp485
g74
g75
ssg63
g479
sg56
(lp486
g317
asbag49
(g70
g51
NtRp487
(dp488
g54
(dp489
g81
g82
ssg63
g479
sg56
(lp490
S':'
asbag49
(g70
g51
NtRp491
(dp492
g54
(dp493
sg63
g479
sg56
(lp494
g49
(g50
g51
NtRp495
(dp496
g54
(dp497
g62
I3
ssg63
g491
sg56
(lp498
S''
asbasbasbag49
(g65
g51
NtRp499
(dp500
g54
(dp501
sg63
g435
sg56
(lp502
g49
(g70
g51
NtRp503
(dp504
g54
(dp505
g74
g75
ssg63
g499
sg56
(lp506
g338
asbag49
(g70
g51
NtRp507
(dp508
g54
(dp509
g81
g82
ssg63
g499
sg56
(lp510
S':'
asbag49
(g70
g51
NtRp511
(dp512
g54
(dp513
sg63
g499
sg56
(lp514
g49
(g50
g51
NtRp515
(dp516
g54
(dp517
g62
I3
ssg63
g511
sg56
(lp518
S''
asbasbasbag49
(g65
g51
NtRp519
(dp520
g54
(dp521
sg63
g435
sg56
(lp522
g49
(g70
g51
NtRp523
(dp524
g54
(dp525
g74
g75
ssg63
g519
sg56
(lp526
g359
asbag49
(g70
g51
NtRp527
(dp528
g54
(dp529
g81
g82
ssg63
g519
sg56
(lp530
S':'
asbag49
(g70
g51
NtRp531
(dp532
g54
(dp533
sg63
g519
sg56
(lp534
g49
(g50
g51
NtRp535
(dp536
g54
(dp537
g62
I3
ssg63
g531
sg56
(lp538
S''
asbasbasbag49
(g65
g51
NtRp539
(dp540
g54
(dp541
sg63
g435
sg56
(lp542
g49
(g70
g51
NtRp543
(dp544
g54
(dp545
g74
g75
ssg63
g539
sg56
(lp546
g380
asbag49
(g70
g51
NtRp547
(dp548
g54
(dp549
g81
g82
ssg63
g539
sg56
(lp550
S':'
asbag49
(g70
g51
NtRp551
(dp552
g54
(dp553
sg63
g539
sg56
(lp554
g49
(g50
g51
NtRp555
(dp556
g54
(dp557
g62
I3
ssg63
g551
sg56
(lp558
S''
asbasbasbag49
(g65
g51
NtRp559
(dp560
g54
(dp561
sg63
g435
sg56
(lp562
g49
(g70
g51
NtRp563
(dp564
g54
(dp565
g74
g75
ssg63
g559
sg56
(lp566
g401
asbag49
(g70
g51
NtRp567
(dp568
g54
(dp569
g81
g82
ssg63
g559
sg56
(lp570
S':'
asbag49
(g70
g51
NtRp571
(dp572
g54
(dp573
sg63
g559
sg56
(lp574
g49
(g50
g51
NtRp575
(dp576
g54
(dp577
g62
I3
ssg63
g571
sg56
(lp578
S''
asbasbasbasbasbasbasbag49
(g65
g51
NtRp579
(dp580
g54
(dp581
sg63
g238
sg56
(lp582
g49
(g70
g51
NtRp583
(dp584
g54
(dp585
g74
g75
ssg63
g579
sg56
(lp586
S'session_id_welcome'
p587
asbag49
(g70
g51
NtRp588
(dp589
g54
(dp590
g81
g82
ssg63
g579
sg56
(lp591
S':'
asbag49
(g70
g51
NtRp592
(dp593
g54
(dp594
sg63
g579
sg56
(lp595
g49
(g50
g51
NtRp596
(dp597
g54
(dp598
g62
I4
ssg63
g592
sg56
(lp599
g49
(g58
g51
NtRp600
(dp601
g54
(dp602
g62
I3
ssg63
Nsg56
(lp603
g49
(g65
g51
NtRp604
(dp605
g54
(dp606
sg63
g600
sg56
(lp607
g49
(g70
g51
NtRp608
(dp609
g54
(dp610
g74
g75
ssg63
g604
sg56
(lp611
g275
asbag49
(g70
g51
NtRp612
(dp613
g54
(dp614
g81
g82
ssg63
g604
sg56
(lp615
S':'
asbag49
(g70
g51
NtRp616
(dp617
g54
(dp618
sg63
g604
sg56
(lp619
g49
(g50
g51
NtRp620
(dp621
g54
(dp622
g62
I3
ssg63
g616
sg56
(lp623
S''
asbasbasbag49
(g65
g51
NtRp624
(dp625
g54
(dp626
sg63
g600
sg56
(lp627
g49
(g70
g51
NtRp628
(dp629
g54
(dp630
g74
g75
ssg63
g624
sg56
(lp631
g296
asbag49
(g70
g51
NtRp632
(dp633
g54
(dp634
g81
g82
ssg63
g624
sg56
(lp635
S':'
asbag49
(g70
g51
NtRp636
(dp637
g54
(dp638
sg63
g624
sg56
(lp639
g49
(g50
g51
NtRp640
(dp641
g54
(dp642
g62
I3
ssg63
g636
sg56
(lp643
S''
asbasbasbag49
(g65
g51
NtRp644
(dp645
g54
(dp646
sg63
g600
sg56
(lp647
g49
(g70
g51
NtRp648
(dp649
g54
(dp650
g74
g75
ssg63
g644
sg56
(lp651
g317
asbag49
(g70
g51
NtRp652
(dp653
g54
(dp654
g81
g82
ssg63
g644
sg56
(lp655
S':'
asbag49
(g70
g51
NtRp656
(dp657
g54
(dp658
sg63
g644
sg56
(lp659
g49
(g50
g51
NtRp660
(dp661
g54
(dp662
g62
I3
ssg63
g656
sg56
(lp663
S''
asbasbasbag49
(g65
g51
NtRp664
(dp665
g54
(dp666
sg63
g600
sg56
(lp667
g49
(g70
g51
NtRp668
(dp669
g54
(dp670
g74
g75
ssg63
g664
sg56
(lp671
g338
asbag49
(g70
g51
NtRp672
(dp673
g54
(dp674
g81
g82
ssg63
g664
sg56
(lp675
S':'
asbag49
(g70
g51
NtRp676
(dp677
g54
(dp678
sg63
g664
sg56
(lp679
g49
(g50
g51
NtRp680
(dp681
g54
(dp682
g62
I3
ssg63
g676
sg56
(lp683
S''
asbasbasbag49
(g65
g51
NtRp684
(dp685
g54
(dp686
sg63
g600
sg56
(lp687
g49
(g70
g51
NtRp688
(dp689
g54
(dp690
g74
g75
ssg63
g684
sg56
(lp691
g359
asbag49
(g70
g51
NtRp692
(dp693
g54
(dp694
g81
g82
ssg63
g684
sg56
(lp695
S':'
asbag49
(g70
g51
NtRp696
(dp697
g54
(dp698
sg63
g684
sg56
(lp699
g49
(g50
g51
NtRp700
(dp701
g54
(dp702
g62
I3
ssg63
g696
sg56
(lp703
S''
asbasbasbag49
(g65
g51
NtRp704
(dp705
g54
(dp706
sg63
g600
sg56
(lp707
g49
(g70
g51
NtRp708
(dp709
g54
(dp710
g74
g75
ssg63
g704
sg56
(lp711
g380
asbag49
(g70
g51
NtRp712
(dp713
g54
(dp714
g81
g82
ssg63
g704
sg56
(lp715
S':'
asbag49
(g70
g51
NtRp716
(dp717
g54
(dp718
sg63
g704
sg56
(lp719
g49
(g50
g51
NtRp720
(dp721
g54
(dp722
g62
I3
ssg63
g716
sg56
(lp723
S''
asbasbasbag49
(g65
g51
NtRp724
(dp725
g54
(dp726
sg63
g600
sg56
(lp727
g49
(g70
g51
NtRp728
(dp729
g54
(dp730
g74
g75
ssg63
g724
sg56
(lp731
g401
asbag49
(g70
g51
NtRp732
(dp733
g54
(dp734
g81
g82
ssg63
g724
sg56
(lp735
S':'
asbag49
(g70
g51
NtRp736
(dp737
g54
(dp738
sg63
g724
sg56
(lp739
g49
(g50
g51
NtRp740
(dp741
g54
(dp742
g62
I3
ssg63
g736
sg56
(lp743
S''
asbasbasbasbasbasbasbasbasbasbasbag49
(g65
g51
NtRp744
(dp745
g54
(dp746
sg63
g59
sg56
(lp747
g49
(g70
g51
NtRp748
(dp749
g54
(dp750
g74
g75
ssg63
g744
sg56
(lp751
S'env'
p752
asbag49
(g70
g51
NtRp753
(dp754
g54
(dp755
g81
g82
ssg63
g744
sg56
(lp756
S':'
asbag49
(g70
g51
NtRp757
(dp758
g54
(dp759
sg63
g744
sg56
(lp760
g49
(g50
g51
NtRp761
(dp762
g54
(dp763
g62
I5
ssg63
g757
sg56
(lp764
g49
(g58
g51
NtRp765
(dp766
g54
(dp767
g62
I4
ssg63
Nsg56
(lp768
g49
(g65
g51
NtRp769
(dp770
g54
(dp771
sg63
g765
sg56
(lp772
g49
(g70
g51
NtRp773
(dp774
g54
(dp775
g74
g75
ssg63
g769
sg56
(lp776
S'app_folders'
p777
asbag49
(g70
g51
NtRp778
(dp779
g54
(dp780
g81
g82
ssg63
g769
sg56
(lp781
S':'
asbag49
(g70
g51
NtRp782
(dp783
g54
(dp784
sg63
g769
sg56
(lp785
g49
(g50
g51
NtRp786
(dp787
g54
(dp788
g62
I4
ssg63
g782
sg56
(lp789
S"set(['C:\\\\Users\\\\Osku\\\\koodaus\\\\web2py\\\\applications\\\\sitsit\\\\', 'C:\\\\Users\\\\Osku\\\\koodaus\\\\web2py\\\\applications\\\\welcome\\\\', 'C:\\\\Users\\\\Osku\\\\koodaus\\\\web2py\\\\applications\\\\admin\\\\'])"
p790
asbasbasbag49
(g65
g51
NtRp791
(dp792
g54
(dp793
sg63
g765
sg56
(lp794
g49
(g70
g51
NtRp795
(dp796
g54
(dp797
g74
g75
ssg63
g791
sg56
(lp798
S'applications_parent'
p799
asbag49
(g70
g51
NtRp800
(dp801
g54
(dp802
g81
g82
ssg63
g791
sg56
(lp803
S':'
asbag49
(g70
g51
NtRp804
(dp805
g54
(dp806
sg63
g791
sg56
(lp807
g49
(g50
g51
NtRp808
(dp809
g54
(dp810
g62
I4
ssg63
g804
sg56
(lp811
S'C:\\Users\\Osku\\koodaus\\web2py'
p812
asbasbasbag49
(g65
g51
NtRp813
(dp814
g54
(dp815
sg63
g765
sg56
(lp816
g49
(g70
g51
NtRp817
(dp818
g54
(dp819
g74
g75
ssg63
g813
sg56
(lp820
S'cmd_args'
p821
asbag49
(g70
g51
NtRp822
(dp823
g54
(dp824
g81
g82
ssg63
g813
sg56
(lp825
S':'
asbag49
(g70
g51
NtRp826
(dp827
g54
(dp828
sg63
g813
sg56
(lp829
g49
(g50
g51
NtRp830
(dp831
g54
(dp832
g62
I4
ssg63
g826
sg56
(lp833
g49
(g58
g51
NtRp834
(dp835
g54
(dp836
g62
I3
ssg63
Nsg56
(lp837
sbasbasbasbag49
(g65
g51
NtRp838
(dp839
g54
(dp840
sg63
g765
sg56
(lp841
g49
(g70
g51
NtRp842
(dp843
g54
(dp844
g74
g75
ssg63
g838
sg56
(lp845
S'cmd_options'
p846
asbag49
(g70
g51
NtRp847
(dp848
g54
(dp849
g81
g82
ssg63
g838
sg56
(lp850
S':'
asbag49
(g70
g51
NtRp851
(dp852
g54
(dp853
sg63
g838
sg56
(lp854
g49
(g50
g51
NtRp855
(dp856
g54
(dp857
g62
I4
ssg63
g851
sg56
(lp858
S"<Values at 0x2270030: {'verbose': False, 'ip': '127.0.0.1', 'shutdown_timeout': 5, 'taskbar': False, 'nocron': False, 'pid_filename': 'httpserver.pid', 'maxthreads': None, 'softcron': False, 'server_name': 'Osku-Kannettava', 'bpython': False, 'nogui': False, 'port': 8000, 'extcron': False, 'debuglevel': 30, 'test': None, 'folder': 'C:\\\\Users\\\\Osku\\\\koodaus\\\\web2py', 'config': '', 'import_models': False, 'winservice': '', 'shell': None, 'run': '', 'log_filename': 'httpserver.log', 'args': [''], 'socket_timeout': 5, 'ssl_ca_certificate': None, 'scheduler': None, 'profiler_filename': None, 'ssl_private_key': '', 'password': '<ask>', 'request_queue_size': 5, 'ssl_certificate': '', 'cronjob': False, 'numthreads': None, 'quiet': False, 'interfaces': None, 'minthreads': None, 'timeout': 10, 'plain': False, 'nobanner': False}>"
p859
asbasbasbag49
(g65
g51
NtRp860
(dp861
g54
(dp862
sg63
g765
sg56
(lp863
g49
(g70
g51
NtRp864
(dp865
g54
(dp866
g74
g75
ssg63
g860
sg56
(lp867
S'db_sessions'
p868
asbag49
(g70
g51
NtRp869
(dp870
g54
(dp871
g81
g82
ssg63
g860
sg56
(lp872
S':'
asbag49
(g70
g51
NtRp873
(dp874
g54
(dp875
sg63
g860
sg56
(lp876
g49
(g50
g51
NtRp877
(dp878
g54
(dp879
g62
I4
ssg63
g873
sg56
(lp880
S'set([])'
p881
asbasbasbag49
(g65
g51
NtRp882
(dp883
g54
(dp884
sg63
g765
sg56
(lp885
g49
(g70
g51
NtRp886
(dp887
g54
(dp888
g74
g75
ssg63
g882
sg56
(lp889
S'debugging'
p890
asbag49
(g70
g51
NtRp891
(dp892
g54
(dp893
g81
g82
ssg63
g882
sg56
(lp894
S':'
asbag49
(g70
g51
NtRp895
(dp896
g54
(dp897
sg63
g882
sg56
(lp898
g49
(g50
g51
NtRp899
(dp900
g54
(dp901
g62
I4
ssg63
g895
sg56
(lp902
g92
asbasbasbag49
(g65
g51
NtRp903
(dp904
g54
(dp905
sg63
g765
sg56
(lp906
g49
(g70
g51
NtRp907
(dp908
g54
(dp909
g74
g75
ssg63
g903
sg56
(lp910
S'gluon_parent'
p911
asbag49
(g70
g51
NtRp912
(dp913
g54
(dp914
g81
g82
ssg63
g903
sg56
(lp915
S':'
asbag49
(g70
g51
NtRp916
(dp917
g54
(dp918
sg63
g903
sg56
(lp919
g49
(g50
g51
NtRp920
(dp921
g54
(dp922
g62
I4
ssg63
g916
sg56
(lp923
S'C:\\Users\\Osku\\koodaus\\web2py'
p924
asbasbasbag49
(g65
g51
NtRp925
(dp926
g54
(dp927
sg63
g765
sg56
(lp928
g49
(g70
g51
NtRp929
(dp930
g54
(dp931
g74
g75
ssg63
g925
sg56
(lp932
S'http_accept'
p933
asbag49
(g70
g51
NtRp934
(dp935
g54
(dp936
g81
g82
ssg63
g925
sg56
(lp937
S':'
asbag49
(g70
g51
NtRp938
(dp939
g54
(dp940
sg63
g925
sg56
(lp941
g49
(g50
g51
NtRp942
(dp943
g54
(dp944
g62
I4
ssg63
g938
sg56
(lp945
S'text/html,application/xhtml+xml,application/xml;q=0.9,*/*;q=0.8'
p946
asbasbasbag49
(g65
g51
NtRp947
(dp948
g54
(dp949
sg63
g765
sg56
(lp950
g49
(g70
g51
NtRp951
(dp952
g54
(dp953
g74
g75
ssg63
g947
sg56
(lp954
S'http_accept_charset'
p955
asbag49
(g70
g51
NtRp956
(dp957
g54
(dp958
g81
g82
ssg63
g947
sg56
(lp959
S':'
asbag49
(g70
g51
NtRp960
(dp961
g54
(dp962
sg63
g947
sg56
(lp963
g49
(g50
g51
NtRp964
(dp965
g54
(dp966
g62
I4
ssg63
g960
sg56
(lp967
S'ISO-8859-1,utf-8;q=0.7,*;q=0.3'
p968
asbasbasbag49
(g65
g51
NtRp969
(dp970
g54
(dp971
sg63
g765
sg56
(lp972
g49
(g70
g51
NtRp973
(dp974
g54
(dp975
g74
g75
ssg63
g969
sg56
(lp976
S'http_accept_encoding'
p977
asbag49
(g70
g51
NtRp978
(dp979
g54
(dp980
g81
g82
ssg63
g969
sg56
(lp981
S':'
asbag49
(g70
g51
NtRp982
(dp983
g54
(dp984
sg63
g969
sg56
(lp985
g49
(g50
g51
NtRp986
(dp987
g54
(dp988
g62
I4
ssg63
g982
sg56
(lp989
S'gzip,deflate,sdch'
p990
asbasbasbag49
(g65
g51
NtRp991
(dp992
g54
(dp993
sg63
g765
sg56
(lp994
g49
(g70
g51
NtRp995
(dp996
g54
(dp997
g74
g75
ssg63
g991
sg56
(lp998
S'http_accept_language'
p999
asbag49
(g70
g51
NtRp1000
(dp1001
g54
(dp1002
g81
g82
ssg63
g991
sg56
(lp1003
S':'
asbag49
(g70
g51
NtRp1004
(dp1005
g54
(dp1006
sg63
g991
sg56
(lp1007
g49
(g50
g51
NtRp1008
(dp1009
g54
(dp1010
g62
I4
ssg63
g1004
sg56
(lp1011
S'en-GB,en-US;q=0.8,en;q=0.6,fi;q=0.4'
p1012
asbasbasbag49
(g65
g51
NtRp1013
(dp1014
g54
(dp1015
sg63
g765
sg56
(lp1016
g49
(g70
g51
NtRp1017
(dp1018
g54
(dp1019
g74
g75
ssg63
g1013
sg56
(lp1020
S'http_cache_control'
p1021
asbag49
(g70
g51
NtRp1022
(dp1023
g54
(dp1024
g81
g82
ssg63
g1013
sg56
(lp1025
S':'
asbag49
(g70
g51
NtRp1026
(dp1027
g54
(dp1028
sg63
g1013
sg56
(lp1029
g49
(g50
g51
NtRp1030
(dp1031
g54
(dp1032
g62
I4
ssg63
g1026
sg56
(lp1033
S'max-age=0'
p1034
asbasbasbag49
(g65
g51
NtRp1035
(dp1036
g54
(dp1037
sg63
g765
sg56
(lp1038
g49
(g70
g51
NtRp1039
(dp1040
g54
(dp1041
g74
g75
ssg63
g1035
sg56
(lp1042
S'http_connection'
p1043
asbag49
(g70
g51
NtRp1044
(dp1045
g54
(dp1046
g81
g82
ssg63
g1035
sg56
(lp1047
S':'
asbag49
(g70
g51
NtRp1048
(dp1049
g54
(dp1050
sg63
g1035
sg56
(lp1051
g49
(g50
g51
NtRp1052
(dp1053
g54
(dp1054
g62
I4
ssg63
g1048
sg56
(lp1055
S'keep-alive'
p1056
asbasbasbag49
(g65
g51
NtRp1057
(dp1058
g54
(dp1059
sg63
g765
sg56
(lp1060
g49
(g70
g51
NtRp1061
(dp1062
g54
(dp1063
g74
g75
ssg63
g1057
sg56
(lp1064
S'http_cookie'
p1065
asbag49
(g70
g51
NtRp1066
(dp1067
g54
(dp1068
g81
g82
ssg63
g1057
sg56
(lp1069
S':'
asbag49
(g70
g51
NtRp1070
(dp1071
g54
(dp1072
sg63
g1057
sg56
(lp1073
g49
(g50
g51
NtRp1074
(dp1075
g54
(dp1076
g62
I4
ssg63
g1070
sg56
(lp1077
S'session_id_welcome=127.0.0.1-731960a1-ea7c-4af8-ac49-7798aa234dcd; session_id_sitsit=127.0.0.1-ec2284ba-32fe-4a19-9a6f-e97c370381b5; session_id_admin=127.0.0.1-941ea7a4-a42e-46de-bdfb-3dd29fbb7e62'
p1078
asbasbasbag49
(g65
g51
NtRp1079
(dp1080
g54
(dp1081
sg63
g765
sg56
(lp1082
g49
(g70
g51
NtRp1083
(dp1084
g54
(dp1085
g74
g75
ssg63
g1079
sg56
(lp1086
S'http_host'
p1087
asbag49
(g70
g51
NtRp1088
(dp1089
g54
(dp1090
g81
g82
ssg63
g1079
sg56
(lp1091
S':'
asbag49
(g70
g51
NtRp1092
(dp1093
g54
(dp1094
sg63
g1079
sg56
(lp1095
g49
(g50
g51
NtRp1096
(dp1097
g54
(dp1098
g62
I4
ssg63
g1092
sg56
(lp1099
S'127.0.0.1:8000'
p1100
asbasbasbag49
(g65
g51
NtRp1101
(dp1102
g54
(dp1103
sg63
g765
sg56
(lp1104
g49
(g70
g51
NtRp1105
(dp1106
g54
(dp1107
g74
g75
ssg63
g1101
sg56
(lp1108
S'http_user_agent'
p1109
asbag49
(g70
g51
NtRp1110
(dp1111
g54
(dp1112
g81
g82
ssg63
g1101
sg56
(lp1113
S':'
asbag49
(g70
g51
NtRp1114
(dp1115
g54
(dp1116
sg63
g1101
sg56
(lp1117
g49
(g50
g51
NtRp1118
(dp1119
g54
(dp1120
g62
I4
ssg63
g1114
sg56
(lp1121
S'Mozilla/5.0 (Windows NT 6.1) AppleWebKit/536.11 (KHTML, like Gecko) Chrome/20.0.1132.47 Safari/536.11'
p1122
asbasbasbag49
(g65
g51
NtRp1123
(dp1124
g54
(dp1125
sg63
g765
sg56
(lp1126
g49
(g70
g51
NtRp1127
(dp1128
g54
(dp1129
g74
g75
ssg63
g1123
sg56
(lp1130
S'is_jython'
p1131
asbag49
(g70
g51
NtRp1132
(dp1133
g54
(dp1134
g81
g82
ssg63
g1123
sg56
(lp1135
S':'
asbag49
(g70
g51
NtRp1136
(dp1137
g54
(dp1138
sg63
g1123
sg56
(lp1139
g49
(g50
g51
NtRp1140
(dp1141
g54
(dp1142
g62
I4
ssg63
g1136
sg56
(lp1143
g92
asbasbasbag49
(g65
g51
NtRp1144
(dp1145
g54
(dp1146
sg63
g765
sg56
(lp1147
g49
(g70
g51
NtRp1148
(dp1149
g54
(dp1150
g74
g75
ssg63
g1144
sg56
(lp1151
S'is_pypy'
p1152
asbag49
(g70
g51
NtRp1153
(dp1154
g54
(dp1155
g81
g82
ssg63
g1144
sg56
(lp1156
S':'
asbag49
(g70
g51
NtRp1157
(dp1158
g54
(dp1159
sg63
g1144
sg56
(lp1160
g49
(g50
g51
NtRp1161
(dp1162
g54
(dp1163
g62
I4
ssg63
g1157
sg56
(lp1164
g92
asbasbasbag49
(g65
g51
NtRp1165
(dp1166
g54
(dp1167
sg63
g765
sg56
(lp1168
g49
(g70
g51
NtRp1169
(dp1170
g54
(dp1171
g74
g75
ssg63
g1165
sg56
(lp1172
S'path_info'
p1173
asbag49
(g70
g51
NtRp1174
(dp1175
g54
(dp1176
g81
g82
ssg63
g1165
sg56
(lp1177
S':'
asbag49
(g70
g51
NtRp1178
(dp1179
g54
(dp1180
sg63
g1165
sg56
(lp1181
g49
(g50
g51
NtRp1182
(dp1183
g54
(dp1184
g62
I4
ssg63
g1178
sg56
(lp1185
S'/sitsit/default/sitsit/1'
p1186
asbasbasbag49
(g65
g51
NtRp1187
(dp1188
g54
(dp1189
sg63
g765
sg56
(lp1190
g49
(g70
g51
NtRp1191
(dp1192
g54
(dp1193
g74
g75
ssg63
g1187
sg56
(lp1194
S'query_string'
p1195
asbag49
(g70
g51
NtRp1196
(dp1197
g54
(dp1198
g81
g82
ssg63
g1187
sg56
(lp1199
S':'
asbag49
(g70
g51
NtRp1200
(dp1201
g54
(dp1202
sg63
g1187
sg56
(lp1203
g49
(g50
g51
NtRp1204
(dp1205
g54
(dp1206
g62
I4
ssg63
g1200
sg56
(lp1207
S''
asbasbasbag49
(g65
g51
NtRp1208
(dp1209
g54
(dp1210
sg63
g765
sg56
(lp1211
g49
(g70
g51
NtRp1212
(dp1213
g54
(dp1214
g74
g75
ssg63
g1208
sg56
(lp1215
S'remote_addr'
p1216
asbag49
(g70
g51
NtRp1217
(dp1218
g54
(dp1219
g81
g82
ssg63
g1208
sg56
(lp1220
S':'
asbag49
(g70
g51
NtRp1221
(dp1222
g54
(dp1223
sg63
g1208
sg56
(lp1224
g49
(g50
g51
NtRp1225
(dp1226
g54
(dp1227
g62
I4
ssg63
g1221
sg56
(lp1228
g194
asbasbasbag49
(g65
g51
NtRp1229
(dp1230
g54
(dp1231
sg63
g765
sg56
(lp1232
g49
(g70
g51
NtRp1233
(dp1234
g54
(dp1235
g74
g75
ssg63
g1229
sg56
(lp1236
S'remote_port'
p1237
asbag49
(g70
g51
NtRp1238
(dp1239
g54
(dp1240
g81
g82
ssg63
g1229
sg56
(lp1241
S':'
asbag49
(g70
g51
NtRp1242
(dp1243
g54
(dp1244
sg63
g1229
sg56
(lp1245
g49
(g50
g51
NtRp1246
(dp1247
g54
(dp1248
g62
I4
ssg63
g1242
sg56
(lp1249
S'58209'
p1250
asbasbasbag49
(g65
g51
NtRp1251
(dp1252
g54
(dp1253
sg63
g765
sg56
(lp1254
g49
(g70
g51
NtRp1255
(dp1256
g54
(dp1257
g74
g75
ssg63
g1251
sg56
(lp1258
S'request_method'
p1259
asbag49
(g70
g51
NtRp1260
(dp1261
g54
(dp1262
g81
g82
ssg63
g1251
sg56
(lp1263
S':'
asbag49
(g70
g51
NtRp1264
(dp1265
g54
(dp1266
sg63
g1251
sg56
(lp1267
g49
(g50
g51
NtRp1268
(dp1269
g54
(dp1270
g62
I4
ssg63
g1264
sg56
(lp1271
S'GET'
p1272
asbasbasbag49
(g65
g51
NtRp1273
(dp1274
g54
(dp1275
sg63
g765
sg56
(lp1276
g49
(g70
g51
NtRp1277
(dp1278
g54
(dp1279
g74
g75
ssg63
g1273
sg56
(lp1280
S'script_name'
p1281
asbag49
(g70
g51
NtRp1282
(dp1283
g54
(dp1284
g81
g82
ssg63
g1273
sg56
(lp1285
S':'
asbag49
(g70
g51
NtRp1286
(dp1287
g54
(dp1288
sg63
g1273
sg56
(lp1289
g49
(g50
g51
NtRp1290
(dp1291
g54
(dp1292
g62
I4
ssg63
g1286
sg56
(lp1293
S''
asbasbasbag49
(g65
g51
NtRp1294
(dp1295
g54
(dp1296
sg63
g765
sg56
(lp1297
g49
(g70
g51
NtRp1298
(dp1299
g54
(dp1300
g74
g75
ssg63
g1294
sg56
(lp1301
S'server_name'
p1302
asbag49
(g70
g51
NtRp1303
(dp1304
g54
(dp1305
g81
g82
ssg63
g1294
sg56
(lp1306
S':'
asbag49
(g70
g51
NtRp1307
(dp1308
g54
(dp1309
sg63
g1294
sg56
(lp1310
g49
(g50
g51
NtRp1311
(dp1312
g54
(dp1313
g62
I4
ssg63
g1307
sg56
(lp1314
S'Osku-Kannettava'
p1315
asbasbasbag49
(g65
g51
NtRp1316
(dp1317
g54
(dp1318
sg63
g765
sg56
(lp1319
g49
(g70
g51
NtRp1320
(dp1321
g54
(dp1322
g74
g75
ssg63
g1316
sg56
(lp1323
S'server_port'
p1324
asbag49
(g70
g51
NtRp1325
(dp1326
g54
(dp1327
g81
g82
ssg63
g1316
sg56
(lp1328
S':'
asbag49
(g70
g51
NtRp1329
(dp1330
g54
(dp1331
sg63
g1316
sg56
(lp1332
g49
(g50
g51
NtRp1333
(dp1334
g54
(dp1335
g62
I4
ssg63
g1329
sg56
(lp1336
S'8000'
p1337
asbasbasbag49
(g65
g51
NtRp1338
(dp1339
g54
(dp1340
sg63
g765
sg56
(lp1341
g49
(g70
g51
NtRp1342
(dp1343
g54
(dp1344
g74
g75
ssg63
g1338
sg56
(lp1345
S'server_protocol'
p1346
asbag49
(g70
g51
NtRp1347
(dp1348
g54
(dp1349
g81
g82
ssg63
g1338
sg56
(lp1350
S':'
asbag49
(g70
g51
NtRp1351
(dp1352
g54
(dp1353
sg63
g1338
sg56
(lp1354
g49
(g50
g51
NtRp1355
(dp1356
g54
(dp1357
g62
I4
ssg63
g1351
sg56
(lp1358
S'HTTP/1.1'
p1359
asbasbasbag49
(g65
g51
NtRp1360
(dp1361
g54
(dp1362
sg63
g765
sg56
(lp1363
g49
(g70
g51
NtRp1364
(dp1365
g54
(dp1366
g74
g75
ssg63
g1360
sg56
(lp1367
S'server_software'
p1368
asbag49
(g70
g51
NtRp1369
(dp1370
g54
(dp1371
g81
g82
ssg63
g1360
sg56
(lp1372
S':'
asbag49
(g70
g51
NtRp1373
(dp1374
g54
(dp1375
sg63
g1360
sg56
(lp1376
g49
(g50
g51
NtRp1377
(dp1378
g54
(dp1379
g62
I4
ssg63
g1373
sg56
(lp1380
S'Rocket 1.2.4'
p1381
asbasbasbag49
(g65
g51
NtRp1382
(dp1383
g54
(dp1384
sg63
g765
sg56
(lp1385
g49
(g70
g51
NtRp1386
(dp1387
g54
(dp1388
g74
g75
ssg63
g1382
sg56
(lp1389
S'web2py_crontype'
p1390
asbag49
(g70
g51
NtRp1391
(dp1392
g54
(dp1393
g81
g82
ssg63
g1382
sg56
(lp1394
S':'
asbag49
(g70
g51
NtRp1395
(dp1396
g54
(dp1397
sg63
g1382
sg56
(lp1398
g49
(g50
g51
NtRp1399
(dp1400
g54
(dp1401
g62
I4
ssg63
g1395
sg56
(lp1402
S'hard'
p1403
asbasbasbag49
(g65
g51
NtRp1404
(dp1405
g54
(dp1406
sg63
g765
sg56
(lp1407
g49
(g70
g51
NtRp1408
(dp1409
g54
(dp1410
g74
g75
ssg63
g1404
sg56
(lp1411
S'web2py_path'
p1412
asbag49
(g70
g51
NtRp1413
(dp1414
g54
(dp1415
g81
g82
ssg63
g1404
sg56
(lp1416
S':'
asbag49
(g70
g51
NtRp1417
(dp1418
g54
(dp1419
sg63
g1404
sg56
(lp1420
g49
(g50
g51
NtRp1421
(dp1422
g54
(dp1423
g62
I4
ssg63
g1417
sg56
(lp1424
g812
asbasbasbag49
(g65
g51
NtRp1425
(dp1426
g54
(dp1427
sg63
g765
sg56
(lp1428
g49
(g70
g51
NtRp1429
(dp1430
g54
(dp1431
g74
g75
ssg63
g1425
sg56
(lp1432
S'web2py_version'
p1433
asbag49
(g70
g51
NtRp1434
(dp1435
g54
(dp1436
g81
g82
ssg63
g1425
sg56
(lp1437
S':'
asbag49
(g70
g51
NtRp1438
(dp1439
g54
(dp1440
sg63
g1425
sg56
(lp1441
g49
(g50
g51
NtRp1442
(dp1443
g54
(dp1444
g62
I4
ssg63
g1438
sg56
(lp1445
g49
(g58
g51
NtRp1446
(dp1447
g54
(dp1448
g62
I3
ssg63
Nsg56
(lp1449
g49
(g65
g51
NtRp1450
(dp1451
g54
(dp1452
sg63
g1446
sg56
(lp1453
g49
(g70
g51
NtRp1454
(dp1455
g54
(dp1456
sg63
g1450
sg56
(lp1457
g49
(g50
g51
NtRp1458
(dp1459
g54
(dp1460
g62
I3
ssg63
g1454
sg56
(lp1461
S'1'
asbasbasbag49
(g65
g51
NtRp1462
(dp1463
g54
(dp1464
sg63
g1446
sg56
(lp1465
g49
(g70
g51
NtRp1466
(dp1467
g54
(dp1468
sg63
g1462
sg56
(lp1469
g49
(g50
g51
NtRp1470
(dp1471
g54
(dp1472
g62
I3
ssg63
g1466
sg56
(lp1473
S'99'
p1474
asbasbasbag49
(g65
g51
NtRp1475
(dp1476
g54
(dp1477
sg63
g1446
sg56
(lp1478
g49
(g70
g51
NtRp1479
(dp1480
g54
(dp1481
sg63
g1475
sg56
(lp1482
g49
(g50
g51
NtRp1483
(dp1484
g54
(dp1485
g62
I3
ssg63
g1479
sg56
(lp1486
S'7'
asbasbasbag49
(g65
g51
NtRp1487
(dp1488
g54
(dp1489
sg63
g1446
sg56
(lp1490
g49
(g70
g51
NtRp1491
(dp1492
g54
(dp1493
sg63
g1487
sg56
(lp1494
g49
(g50
g51
NtRp1495
(dp1496
g54
(dp1497
g62
I3
ssg63
g1491
sg56
(lp1498
S'datetime.datetime(2012, 3, 4, 22, 12, 8)'
p1499
asbasbasbag49
(g65
g51
NtRp1500
(dp1501
g54
(dp1502
sg63
g1446
sg56
(lp1503
g49
(g70
g51
NtRp1504
(dp1505
g54
(dp1506
sg63
g1500
sg56
(lp1507
g49
(g50
g51
NtRp1508
(dp1509
g54
(dp1510
g62
I3
ssg63
g1504
sg56
(lp1511
S'stable'
p1512
asbasbasbasbasbasbasbag49
(g65
g51
NtRp1513
(dp1514
g54
(dp1515
sg63
g765
sg56
(lp1516
g49
(g70
g51
NtRp1517
(dp1518
g54
(dp1519
g74
g75
ssg63
g1513
sg56
(lp1520
S'wsgi_errors'
p1521
asbag49
(g70
g51
NtRp1522
(dp1523
g54
(dp1524
g81
g82
ssg63
g1513
sg56
(lp1525
S':'
asbag49
(g70
g51
NtRp1526
(dp1527
g54
(dp1528
sg63
g1513
sg56
(lp1529
g49
(g50
g51
NtRp1530
(dp1531
g54
(dp1532
g62
I4
ssg63
g1526
sg56
(lp1533
S"<open file '<stderr>', mode 'w' at 0x014F00B0>"
p1534
asbasbasbag49
(g65
g51
NtRp1535
(dp1536
g54
(dp1537
sg63
g765
sg56
(lp1538
g49
(g70
g51
NtRp1539
(dp1540
g54
(dp1541
g74
g75
ssg63
g1535
sg56
(lp1542
S'wsgi_file_wrapper'
p1543
asbag49
(g70
g51
NtRp1544
(dp1545
g54
(dp1546
g81
g82
ssg63
g1535
sg56
(lp1547
S':'
asbag49
(g70
g51
NtRp1548
(dp1549
g54
(dp1550
sg63
g1535
sg56
(lp1551
g49
(g50
g51
NtRp1552
(dp1553
g54
(dp1554
g62
I4
ssg63
g1548
sg56
(lp1555
S'<class wsgiref.util.FileWrapper at 0x020041E0>'
p1556
asbasbasbag49
(g65
g51
NtRp1557
(dp1558
g54
(dp1559
sg63
g765
sg56
(lp1560
g49
(g70
g51
NtRp1561
(dp1562
g54
(dp1563
g74
g75
ssg63
g1557
sg56
(lp1564
S'wsgi_input'
p1565
asbag49
(g70
g51
NtRp1566
(dp1567
g54
(dp1568
g81
g82
ssg63
g1557
sg56
(lp1569
S':'
asbag49
(g70
g51
NtRp1570
(dp1571
g54
(dp1572
sg63
g1557
sg56
(lp1573
g49
(g50
g51
NtRp1574
(dp1575
g54
(dp1576
g62
I4
ssg63
g1570
sg56
(lp1577
S'<socket._fileobject object at 0x04DFAEF0>'
p1578
asbasbasbag49
(g65
g51
NtRp1579
(dp1580
g54
(dp1581
sg63
g765
sg56
(lp1582
g49
(g70
g51
NtRp1583
(dp1584
g54
(dp1585
g74
g75
ssg63
g1579
sg56
(lp1586
S'wsgi_multiprocess'
p1587
asbag49
(g70
g51
NtRp1588
(dp1589
g54
(dp1590
g81
g82
ssg63
g1579
sg56
(lp1591
S':'
asbag49
(g70
g51
NtRp1592
(dp1593
g54
(dp1594
sg63
g1579
sg56
(lp1595
g49
(g50
g51
NtRp1596
(dp1597
g54
(dp1598
g62
I4
ssg63
g1592
sg56
(lp1599
g92
asbasbasbag49
(g65
g51
NtRp1600
(dp1601
g54
(dp1602
sg63
g765
sg56
(lp1603
g49
(g70
g51
NtRp1604
(dp1605
g54
(dp1606
g74
g75
ssg63
g1600
sg56
(lp1607
S'wsgi_multithread'
p1608
asbag49
(g70
g51
NtRp1609
(dp1610
g54
(dp1611
g81
g82
ssg63
g1600
sg56
(lp1612
S':'
asbag49
(g70
g51
NtRp1613
(dp1614
g54
(dp1615
sg63
g1600
sg56
(lp1616
g49
(g50
g51
NtRp1617
(dp1618
g54
(dp1619
g62
I4
ssg63
g1613
sg56
(lp1620
S'True'
p1621
asbasbasbag49
(g65
g51
NtRp1622
(dp1623
g54
(dp1624
sg63
g765
sg56
(lp1625
g49
(g70
g51
NtRp1626
(dp1627
g54
(dp1628
g74
g75
ssg63
g1622
sg56
(lp1629
S'wsgi_run_once'
p1630
asbag49
(g70
g51
NtRp1631
(dp1632
g54
(dp1633
g81
g82
ssg63
g1622
sg56
(lp1634
S':'
asbag49
(g70
g51
NtRp1635
(dp1636
g54
(dp1637
sg63
g1622
sg56
(lp1638
g49
(g50
g51
NtRp1639
(dp1640
g54
(dp1641
g62
I4
ssg63
g1635
sg56
(lp1642
g92
asbasbasbag49
(g65
g51
NtRp1643
(dp1644
g54
(dp1645
sg63
g765
sg56
(lp1646
g49
(g70
g51
NtRp1647
(dp1648
g54
(dp1649
g74
g75
ssg63
g1643
sg56
(lp1650
S'wsgi_url_scheme'
p1651
asbag49
(g70
g51
NtRp1652
(dp1653
g54
(dp1654
g81
g82
ssg63
g1643
sg56
(lp1655
S':'
asbag49
(g70
g51
NtRp1656
(dp1657
g54
(dp1658
sg63
g1643
sg56
(lp1659
g49
(g50
g51
NtRp1660
(dp1661
g54
(dp1662
g62
I4
ssg63
g1656
sg56
(lp1663
S'http'
p1664
asbasbasbag49
(g65
g51
NtRp1665
(dp1666
g54
(dp1667
sg63
g765
sg56
(lp1668
g49
(g70
g51
NtRp1669
(dp1670
g54
(dp1671
g74
g75
ssg63
g1665
sg56
(lp1672
S'wsgi_version'
p1673
asbag49
(g70
g51
NtRp1674
(dp1675
g54
(dp1676
g81
g82
ssg63
g1665
sg56
(lp1677
S':'
asbag49
(g70
g51
NtRp1678
(dp1679
g54
(dp1680
sg63
g1665
sg56
(lp1681
g49
(g50
g51
NtRp1682
(dp1683
g54
(dp1684
g62
I4
ssg63
g1678
sg56
(lp1685
g49
(g58
g51
NtRp1686
(dp1687
g54
(dp1688
g62
I3
ssg63
Nsg56
(lp1689
g49
(g65
g51
NtRp1690
(dp1691
g54
(dp1692
sg63
g1686
sg56
(lp1693
g49
(g70
g51
NtRp1694
(dp1695
g54
(dp1696
sg63
g1690
sg56
(lp1697
g49
(g50
g51
NtRp1698
(dp1699
g54
(dp1700
g62
I3
ssg63
g1694
sg56
(lp1701
S'1'
asbasbasbag49
(g65
g51
NtRp1702
(dp1703
g54
(dp1704
sg63
g1686
sg56
(lp1705
g49
(g70
g51
NtRp1706
(dp1707
g54
(dp1708
sg63
g1702
sg56
(lp1709
g49
(g50
g51
NtRp1710
(dp1711
g54
(dp1712
g62
I3
ssg63
g1706
sg56
(lp1713
S'0'
asbasbasbasbasbasbasbasbasbasbasbag49
(g65
g51
NtRp1714
(dp1715
g54
(dp1716
sg63
g59
sg56
(lp1717
g49
(g70
g51
NtRp1718
(dp1719
g54
(dp1720
g74
g75
ssg63
g1714
sg56
(lp1721
S'extension'
p1722
asbag49
(g70
g51
NtRp1723
(dp1724
g54
(dp1725
g81
g82
ssg63
g1714
sg56
(lp1726
S':'
asbag49
(g70
g51
NtRp1727
(dp1728
g54
(dp1729
sg63
g1714
sg56
(lp1730
g49
(g50
g51
NtRp1731
(dp1732
g54
(dp1733
g62
I5
ssg63
g1727
sg56
(lp1734
S'html'
p1735
asbasbasbag49
(g65
g51
NtRp1736
(dp1737
g54
(dp1738
sg63
g59
sg56
(lp1739
g49
(g70
g51
NtRp1740
(dp1741
g54
(dp1742
g74
g75
ssg63
g1736
sg56
(lp1743
S'folder'
p1744
asbag49
(g70
g51
NtRp1745
(dp1746
g54
(dp1747
g81
g82
ssg63
g1736
sg56
(lp1748
S':'
asbag49
(g70
g51
NtRp1749
(dp1750
g54
(dp1751
sg63
g1736
sg56
(lp1752
g49
(g50
g51
NtRp1753
(dp1754
g54
(dp1755
g62
I5
ssg63
g1749
sg56
(lp1756
S'C:\\Users\\Osku\\koodaus\\web2py\\applications\\sitsit\\'
p1757
asbasbasbag49
(g65
g51
NtRp1758
(dp1759
g54
(dp1760
sg63
g59
sg56
(lp1761
g49
(g70
g51
NtRp1762
(dp1763
g54
(dp1764
g74
g75
ssg63
g1758
sg56
(lp1765
S'function'
p1766
asbag49
(g70
g51
NtRp1767
(dp1768
g54
(dp1769
g81
g82
ssg63
g1758
sg56
(lp1770
S':'
asbag49
(g70
g51
NtRp1771
(dp1772
g54
(dp1773
sg63
g1758
sg56
(lp1774
g49
(g50
g51
NtRp1775
(dp1776
g54
(dp1777
g62
I5
ssg63
g1771
sg56
(lp1778
S'sitsit'
p1779
asbasbasbag49
(g65
g51
NtRp1780
(dp1781
g54
(dp1782
sg63
g59
sg56
(lp1783
g49
(g70
g51
NtRp1784
(dp1785
g54
(dp1786
g74
g75
ssg63
g1780
sg56
(lp1787
S'get_vars'
p1788
asbag49
(g70
g51
NtRp1789
(dp1790
g54
(dp1791
g81
g82
ssg63
g1780
sg56
(lp1792
S':'
asbag49
(g70
g51
NtRp1793
(dp1794
g54
(dp1795
sg63
g1780
sg56
(lp1796
g49
(g50
g51
NtRp1797
(dp1798
g54
(dp1799
g62
I5
ssg63
g1793
sg56
(lp1800
g49
(g58
g51
NtRp1801
(dp1802
g54
(dp1803
g62
I4
ssg63
Nsg56
(lp1804
sbasbasbasbag49
(g65
g51
NtRp1805
(dp1806
g54
(dp1807
sg63
g59
sg56
(lp1808
g49
(g70
g51
NtRp1809
(dp1810
g54
(dp1811
g74
g75
ssg63
g1805
sg56
(lp1812
S'global_settings'
p1813
asbag49
(g70
g51
NtRp1814
(dp1815
g54
(dp1816
g81
g82
ssg63
g1805
sg56
(lp1817
S':'
asbag49
(g70
g51
NtRp1818
(dp1819
g54
(dp1820
sg63
g1805
sg56
(lp1821
g49
(g50
g51
NtRp1822
(dp1823
g54
(dp1824
g62
I5
ssg63
g1818
sg56
(lp1825
g49
(g58
g51
NtRp1826
(dp1827
g54
(dp1828
g62
I4
ssg63
Nsg56
(lp1829
g49
(g65
g51
NtRp1830
(dp1831
g54
(dp1832
sg63
g1826
sg56
(lp1833
g49
(g70
g51
NtRp1834
(dp1835
g54
(dp1836
g74
g75
ssg63
g1830
sg56
(lp1837
g777
asbag49
(g70
g51
NtRp1838
(dp1839
g54
(dp1840
g81
g82
ssg63
g1830
sg56
(lp1841
S':'
asbag49
(g70
g51
NtRp1842
(dp1843
g54
(dp1844
sg63
g1830
sg56
(lp1845
g49
(g50
g51
NtRp1846
(dp1847
g54
(dp1848
g62
I4
ssg63
g1842
sg56
(lp1849
S"set(['C:\\\\Users\\\\Osku\\\\koodaus\\\\web2py\\\\applications\\\\sitsit\\\\', 'C:\\\\Users\\\\Osku\\\\koodaus\\\\web2py\\\\applications\\\\welcome\\\\', 'C:\\\\Users\\\\Osku\\\\koodaus\\\\web2py\\\\applications\\\\admin\\\\'])"
p1850
asbasbasbag49
(g65
g51
NtRp1851
(dp1852
g54
(dp1853
sg63
g1826
sg56
(lp1854
g49
(g70
g51
NtRp1855
(dp1856
g54
(dp1857
g74
g75
ssg63
g1851
sg56
(lp1858
g799
asbag49
(g70
g51
NtRp1859
(dp1860
g54
(dp1861
g81
g82
ssg63
g1851
sg56
(lp1862
S':'
asbag49
(g70
g51
NtRp1863
(dp1864
g54
(dp1865
sg63
g1851
sg56
(lp1866
g49
(g50
g51
NtRp1867
(dp1868
g54
(dp1869
g62
I4
ssg63
g1863
sg56
(lp1870
g812
asbasbasbag49
(g65
g51
NtRp1871
(dp1872
g54
(dp1873
sg63
g1826
sg56
(lp1874
g49
(g70
g51
NtRp1875
(dp1876
g54
(dp1877
g74
g75
ssg63
g1871
sg56
(lp1878
g821
asbag49
(g70
g51
NtRp1879
(dp1880
g54
(dp1881
g81
g82
ssg63
g1871
sg56
(lp1882
S':'
asbag49
(g70
g51
NtRp1883
(dp1884
g54
(dp1885
sg63
g1871
sg56
(lp1886
g49
(g50
g51
NtRp1887
(dp1888
g54
(dp1889
g62
I4
ssg63
g1883
sg56
(lp1890
g49
(g58
g51
NtRp1891
(dp1892
g54
(dp1893
g62
I3
ssg63
Nsg56
(lp1894
sbasbasbasbag49
(g65
g51
NtRp1895
(dp1896
g54
(dp1897
sg63
g1826
sg56
(lp1898
g49
(g70
g51
NtRp1899
(dp1900
g54
(dp1901
g74
g75
ssg63
g1895
sg56
(lp1902
g846
asbag49
(g70
g51
NtRp1903
(dp1904
g54
(dp1905
g81
g82
ssg63
g1895
sg56
(lp1906
S':'
asbag49
(g70
g51
NtRp1907
(dp1908
g54
(dp1909
sg63
g1895
sg56
(lp1910
g49
(g50
g51
NtRp1911
(dp1912
g54
(dp1913
g62
I4
ssg63
g1907
sg56
(lp1914
S"<Values at 0x2270030: {'verbose': False, 'ip': '127.0.0.1', 'shutdown_timeout': 5, 'taskbar': False, 'nocron': False, 'pid_filename': 'httpserver.pid', 'maxthreads': None, 'softcron': False, 'server_name': 'Osku-Kannettava', 'bpython': False, 'nogui': False, 'port': 8000, 'extcron': False, 'debuglevel': 30, 'test': None, 'folder': 'C:\\\\Users\\\\Osku\\\\koodaus\\\\web2py', 'config': '', 'import_models': False, 'winservice': '', 'shell': None, 'run': '', 'log_filename': 'httpserver.log', 'args': [''], 'socket_timeout': 5, 'ssl_ca_certificate': None, 'scheduler': None, 'profiler_filename': None, 'ssl_private_key': '', 'password': '<ask>', 'request_queue_size': 5, 'ssl_certificate': '', 'cronjob': False, 'numthreads': None, 'quiet': False, 'interfaces': None, 'minthreads': None, 'timeout': 10, 'plain': False, 'nobanner': False}>"
p1915
asbasbasbag49
(g65
g51
NtRp1916
(dp1917
g54
(dp1918
sg63
g1826
sg56
(lp1919
g49
(g70
g51
NtRp1920
(dp1921
g54
(dp1922
g74
g75
ssg63
g1916
sg56
(lp1923
g868
asbag49
(g70
g51
NtRp1924
(dp1925
g54
(dp1926
g81
g82
ssg63
g1916
sg56
(lp1927
S':'
asbag49
(g70
g51
NtRp1928
(dp1929
g54
(dp1930
sg63
g1916
sg56
(lp1931
g49
(g50
g51
NtRp1932
(dp1933
g54
(dp1934
g62
I4
ssg63
g1928
sg56
(lp1935
S'set([])'
p1936
asbasbasbag49
(g65
g51
NtRp1937
(dp1938
g54
(dp1939
sg63
g1826
sg56
(lp1940
g49
(g70
g51
NtRp1941
(dp1942
g54
(dp1943
g74
g75
ssg63
g1937
sg56
(lp1944
g890
asbag49
(g70
g51
NtRp1945
(dp1946
g54
(dp1947
g81
g82
ssg63
g1937
sg56
(lp1948
S':'
asbag49
(g70
g51
NtRp1949
(dp1950
g54
(dp1951
sg63
g1937
sg56
(lp1952
g49
(g50
g51
NtRp1953
(dp1954
g54
(dp1955
g62
I4
ssg63
g1949
sg56
(lp1956
g92
asbasbasbag49
(g65
g51
NtRp1957
(dp1958
g54
(dp1959
sg63
g1826
sg56
(lp1960
g49
(g70
g51
NtRp1961
(dp1962
g54
(dp1963
g74
g75
ssg63
g1957
sg56
(lp1964
g911
asbag49
(g70
g51
NtRp1965
(dp1966
g54
(dp1967
g81
g82
ssg63
g1957
sg56
(lp1968
S':'
asbag49
(g70
g51
NtRp1969
(dp1970
g54
(dp1971
sg63
g1957
sg56
(lp1972
g49
(g50
g51
NtRp1973
(dp1974
g54
(dp1975
g62
I4
ssg63
g1969
sg56
(lp1976
g924
asbasbasbag49
(g65
g51
NtRp1977
(dp1978
g54
(dp1979
sg63
g1826
sg56
(lp1980
g49
(g70
g51
NtRp1981
(dp1982
g54
(dp1983
g74
g75
ssg63
g1977
sg56
(lp1984
g1131
asbag49
(g70
g51
NtRp1985
(dp1986
g54
(dp1987
g81
g82
ssg63
g1977
sg56
(lp1988
S':'
asbag49
(g70
g51
NtRp1989
(dp1990
g54
(dp1991
sg63
g1977
sg56
(lp1992
g49
(g50
g51
NtRp1993
(dp1994
g54
(dp1995
g62
I4
ssg63
g1989
sg56
(lp1996
g92
asbasbasbag49
(g65
g51
NtRp1997
(dp1998
g54
(dp1999
sg63
g1826
sg56
(lp2000
g49
(g70
g51
NtRp2001
(dp2002
g54
(dp2003
g74
g75
ssg63
g1997
sg56
(lp2004
g1152
asbag49
(g70
g51
NtRp2005
(dp2006
g54
(dp2007
g81
g82
ssg63
g1997
sg56
(lp2008
S':'
asbag49
(g70
g51
NtRp2009
(dp2010
g54
(dp2011
sg63
g1997
sg56
(lp2012
g49
(g50
g51
NtRp2013
(dp2014
g54
(dp2015
g62
I4
ssg63
g2009
sg56
(lp2016
g92
asbasbasbag49
(g65
g51
NtRp2017
(dp2018
g54
(dp2019
sg63
g1826
sg56
(lp2020
g49
(g70
g51
NtRp2021
(dp2022
g54
(dp2023
g74
g75
ssg63
g2017
sg56
(lp2024
g1390
asbag49
(g70
g51
NtRp2025
(dp2026
g54
(dp2027
g81
g82
ssg63
g2017
sg56
(lp2028
S':'
asbag49
(g70
g51
NtRp2029
(dp2030
g54
(dp2031
sg63
g2017
sg56
(lp2032
g49
(g50
g51
NtRp2033
(dp2034
g54
(dp2035
g62
I4
ssg63
g2029
sg56
(lp2036
g1403
asbasbasbag49
(g65
g51
NtRp2037
(dp2038
g54
(dp2039
sg63
g1826
sg56
(lp2040
g49
(g70
g51
NtRp2041
(dp2042
g54
(dp2043
g74
g75
ssg63
g2037
sg56
(lp2044
g1433
asbag49
(g70
g51
NtRp2045
(dp2046
g54
(dp2047
g81
g82
ssg63
g2037
sg56
(lp2048
S':'
asbag49
(g70
g51
NtRp2049
(dp2050
g54
(dp2051
sg63
g2037
sg56
(lp2052
g49
(g50
g51
NtRp2053
(dp2054
g54
(dp2055
g62
I4
ssg63
g2049
sg56
(lp2056
g49
(g58
g51
NtRp2057
(dp2058
g54
(dp2059
g62
I3
ssg63
Nsg56
(lp2060
g49
(g65
g51
NtRp2061
(dp2062
g54
(dp2063
sg63
g2057
sg56
(lp2064
g49
(g70
g51
NtRp2065
(dp2066
g54
(dp2067
sg63
g2061
sg56
(lp2068
g49
(g50
g51
NtRp2069
(dp2070
g54
(dp2071
g62
I3
ssg63
g2065
sg56
(lp2072
S'1'
asbasbasbag49
(g65
g51
NtRp2073
(dp2074
g54
(dp2075
sg63
g2057
sg56
(lp2076
g49
(g70
g51
NtRp2077
(dp2078
g54
(dp2079
sg63
g2073
sg56
(lp2080
g49
(g50
g51
NtRp2081
(dp2082
g54
(dp2083
g62
I3
ssg63
g2077
sg56
(lp2084
S'99'
p2085
asbasbasbag49
(g65
g51
NtRp2086
(dp2087
g54
(dp2088
sg63
g2057
sg56
(lp2089
g49
(g70
g51
NtRp2090
(dp2091
g54
(dp2092
sg63
g2086
sg56
(lp2093
g49
(g50
g51
NtRp2094
(dp2095
g54
(dp2096
g62
I3
ssg63
g2090
sg56
(lp2097
S'7'
asbasbasbag49
(g65
g51
NtRp2098
(dp2099
g54
(dp2100
sg63
g2057
sg56
(lp2101
g49
(g70
g51
NtRp2102
(dp2103
g54
(dp2104
sg63
g2098
sg56
(lp2105
g49
(g50
g51
NtRp2106
(dp2107
g54
(dp2108
g62
I3
ssg63
g2102
sg56
(lp2109
S'datetime.datetime(2012, 3, 4, 22, 12, 8)'
p2110
asbasbasbag49
(g65
g51
NtRp2111
(dp2112
g54
(dp2113
sg63
g2057
sg56
(lp2114
g49
(g70
g51
NtRp2115
(dp2116
g54
(dp2117
sg63
g2111
sg56
(lp2118
g49
(g50
g51
NtRp2119
(dp2120
g54
(dp2121
g62
I3
ssg63
g2115
sg56
(lp2122
g1512
asbasbasbasbasbasbasbasbasbasbasbag49
(g65
g51
NtRp2123
(dp2124
g54
(dp2125
sg63
g59
sg56
(lp2126
g49
(g70
g51
NtRp2127
(dp2128
g54
(dp2129
g74
g75
ssg63
g2123
sg56
(lp2130
S'is_https'
p2131
asbag49
(g70
g51
NtRp2132
(dp2133
g54
(dp2134
g81
g82
ssg63
g2123
sg56
(lp2135
S':'
asbag49
(g70
g51
NtRp2136
(dp2137
g54
(dp2138
sg63
g2123
sg56
(lp2139
g49
(g50
g51
NtRp2140
(dp2141
g54
(dp2142
g62
I5
ssg63
g2136
sg56
(lp2143
g92
asbasbasbag49
(g65
g51
NtRp2144
(dp2145
g54
(dp2146
sg63
g59
sg56
(lp2147
g49
(g70
g51
NtRp2148
(dp2149
g54
(dp2150
g74
g75
ssg63
g2144
sg56
(lp2151
S'is_local'
p2152
asbag49
(g70
g51
NtRp2153
(dp2154
g54
(dp2155
g81
g82
ssg63
g2144
sg56
(lp2156
S':'
asbag49
(g70
g51
NtRp2157
(dp2158
g54
(dp2159
sg63
g2144
sg56
(lp2160
g49
(g50
g51
NtRp2161
(dp2162
g54
(dp2163
g62
I5
ssg63
g2157
sg56
(lp2164
g1621
asbasbasbag49
(g65
g51
NtRp2165
(dp2166
g54
(dp2167
sg63
g59
sg56
(lp2168
g49
(g70
g51
NtRp2169
(dp2170
g54
(dp2171
g74
g75
ssg63
g2165
sg56
(lp2172
S'is_restful'
p2173
asbag49
(g70
g51
NtRp2174
(dp2175
g54
(dp2176
g81
g82
ssg63
g2165
sg56
(lp2177
S':'
asbag49
(g70
g51
NtRp2178
(dp2179
g54
(dp2180
sg63
g2165
sg56
(lp2181
g49
(g50
g51
NtRp2182
(dp2183
g54
(dp2184
g62
I5
ssg63
g2178
sg56
(lp2185
g92
asbasbasbag49
(g65
g51
NtRp2186
(dp2187
g54
(dp2188
sg63
g59
sg56
(lp2189
g49
(g70
g51
NtRp2190
(dp2191
g54
(dp2192
g74
g75
ssg63
g2186
sg56
(lp2193
S'now'
p2194
asbag49
(g70
g51
NtRp2195
(dp2196
g54
(dp2197
g81
g82
ssg63
g2186
sg56
(lp2198
S':'
asbag49
(g70
g51
NtRp2199
(dp2200
g54
(dp2201
sg63
g2186
sg56
(lp2202
g49
(g50
g51
NtRp2203
(dp2204
g54
(dp2205
g62
I5
ssg63
g2199
sg56
(lp2206
S'datetime.datetime(2012, 7, 6, 23, 48, 30, 32000)'
p2207
asbasbasbag49
(g65
g51
NtRp2208
(dp2209
g54
(dp2210
sg63
g59
sg56
(lp2211
g49
(g70
g51
NtRp2212
(dp2213
g54
(dp2214
g74
g75
ssg63
g2208
sg56
(lp2215
S'post_vars'
p2216
asbag49
(g70
g51
NtRp2217
(dp2218
g54
(dp2219
g81
g82
ssg63
g2208
sg56
(lp2220
S':'
asbag49
(g70
g51
NtRp2221
(dp2222
g54
(dp2223
sg63
g2208
sg56
(lp2224
g49
(g50
g51
NtRp2225
(dp2226
g54
(dp2227
g62
I5
ssg63
g2221
sg56
(lp2228
g49
(g58
g51
NtRp2229
(dp2230
g54
(dp2231
g62
I4
ssg63
Nsg56
(lp2232
sbasbasbasbag49
(g65
g51
NtRp2233
(dp2234
g54
(dp2235
sg63
g59
sg56
(lp2236
g49
(g70
g51
NtRp2237
(dp2238
g54
(dp2239
g74
g75
ssg63
g2233
sg56
(lp2240
S'raw_args'
p2241
asbag49
(g70
g51
NtRp2242
(dp2243
g54
(dp2244
g81
g82
ssg63
g2233
sg56
(lp2245
S':'
asbag49
(g70
g51
NtRp2246
(dp2247
g54
(dp2248
sg63
g2233
sg56
(lp2249
g49
(g50
g51
NtRp2250
(dp2251
g54
(dp2252
g62
I5
ssg63
g2246
sg56
(lp2253
S'1'
asbasbasbag49
(g65
g51
NtRp2254
(dp2255
g54
(dp2256
sg63
g59
sg56
(lp2257
g49
(g70
g51
NtRp2258
(dp2259
g54
(dp2260
g74
g75
ssg63
g2254
sg56
(lp2261
S'url'
p2262
asbag49
(g70
g51
NtRp2263
(dp2264
g54
(dp2265
g81
g82
ssg63
g2254
sg56
(lp2266
S':'
asbag49
(g70
g51
NtRp2267
(dp2268
g54
(dp2269
sg63
g2254
sg56
(lp2270
g49
(g50
g51
NtRp2271
(dp2272
g54
(dp2273
g62
I5
ssg63
g2267
sg56
(lp2274
S'/sitsit/default/sitsit/1'
p2275
asbasbasbag49
(g65
g51
NtRp2276
(dp2277
g54
(dp2278
sg63
g59
sg56
(lp2279
g49
(g70
g51
NtRp2280
(dp2281
g54
(dp2282
g74
g75
ssg63
g2276
sg56
(lp2283
S'utcnow'
p2284
asbag49
(g70
g51
NtRp2285
(dp2286
g54
(dp2287
g81
g82
ssg63
g2276
sg56
(lp2288
S':'
asbag49
(g70
g51
NtRp2289
(dp2290
g54
(dp2291
sg63
g2276
sg56
(lp2292
g49
(g50
g51
NtRp2293
(dp2294
g54
(dp2295
g62
I5
ssg63
g2289
sg56
(lp2296
S'datetime.datetime(2012, 7, 6, 21, 48, 30, 32000)'
p2297
asbasbasbag49
(g65
g51
NtRp2298
(dp2299
g54
(dp2300
sg63
g59
sg56
(lp2301
g49
(g70
g51
NtRp2302
(dp2303
g54
(dp2304
g74
g75
ssg63
g2298
sg56
(lp2305
S'uuid'
p2306
asbag49
(g70
g51
NtRp2307
(dp2308
g54
(dp2309
g81
g82
ssg63
g2298
sg56
(lp2310
S':'
asbag49
(g70
g51
NtRp2311
(dp2312
g54
(dp2313
sg63
g2298
sg56
(lp2314
g49
(g50
g51
NtRp2315
(dp2316
g54
(dp2317
g62
I5
ssg63
g2311
sg56
(lp2318
S'sitsit/127.0.0.1.2012-07-06.23-48-30.df81c4c2-1d30-4033-bfe2-16cf947e49ea'
p2319
asbasbasbag49
(g65
g51
NtRp2320
(dp2321
g54
(dp2322
sg63
g59
sg56
(lp2323
g49
(g70
g51
NtRp2324
(dp2325
g54
(dp2326
g74
g75
ssg63
g2320
sg56
(lp2327
S'vars'
p2328
asbag49
(g70
g51
NtRp2329
(dp2330
g54
(dp2331
g81
g82
ssg63
g2320
sg56
(lp2332
S':'
asbag49
(g70
g51
NtRp2333
(dp2334
g54
(dp2335
sg63
g2320
sg56
(lp2336
g49
(g50
g51
NtRp2337
(dp2338
g54
(dp2339
g62
I5
ssg63
g2333
sg56
(lp2340
g49
(g58
g51
NtRp2341
(dp2342
g54
(dp2343
g62
I4
ssg63
Nsg56
(lp2344
sbasbasbasbag49
(g65
g51
NtRp2345
(dp2346
g54
(dp2347
sg63
g59
sg56
(lp2348
g49
(g70
g51
NtRp2349
(dp2350
g54
(dp2351
g74
g75
ssg63
g2345
sg56
(lp2352
S'wsgi'
p2353
asbag49
(g70
g51
NtRp2354
(dp2355
g54
(dp2356
g81
g82
ssg63
g2345
sg56
(lp2357
S':'
asbag49
(g70
g51
NtRp2358
(dp2359
g54
(dp2360
sg63
g2345
sg56
(lp2361
g49
(g50
g51
NtRp2362
(dp2363
g54
(dp2364
g62
I5
ssg63
g2358
sg56
(lp2365
g49
(g58
g51
NtRp2366
(dp2367
g54
(dp2368
g62
I4
ssg63
Nsg56
(lp2369
g49
(g65
g51
NtRp2370
(dp2371
g54
(dp2372
sg63
g2366
sg56
(lp2373
g49
(g70
g51
NtRp2374
(dp2375
g54
(dp2376
g74
g75
ssg63
g2370
sg56
(lp2377
S'environ'
p2378
asbag49
(g70
g51
NtRp2379
(dp2380
g54
(dp2381
g81
g82
ssg63
g2370
sg56
(lp2382
S':'
asbag49
(g70
g51
NtRp2383
(dp2384
g54
(dp2385
sg63
g2370
sg56
(lp2386
g49
(g50
g51
NtRp2387
(dp2388
g54
(dp2389
g62
I4
ssg63
g2383
sg56
(lp2390
g49
(g58
g51
NtRp2391
(dp2392
g54
(dp2393
g62
I3
ssg63
Nsg56
(lp2394
g49
(g65
g51
NtRp2395
(dp2396
g54
(dp2397
sg63
g2391
sg56
(lp2398
g49
(g70
g51
NtRp2399
(dp2400
g54
(dp2401
g74
g75
ssg63
g2395
sg56
(lp2402
S'HTTP_ACCEPT'
p2403
asbag49
(g70
g51
NtRp2404
(dp2405
g54
(dp2406
g81
g82
ssg63
g2395
sg56
(lp2407
S':'
asbag49
(g70
g51
NtRp2408
(dp2409
g54
(dp2410
sg63
g2395
sg56
(lp2411
g49
(g50
g51
NtRp2412
(dp2413
g54
(dp2414
g62
I3
ssg63
g2408
sg56
(lp2415
g946
asbasbasbag49
(g65
g51
NtRp2416
(dp2417
g54
(dp2418
sg63
g2391
sg56
(lp2419
g49
(g70
g51
NtRp2420
(dp2421
g54
(dp2422
g74
g75
ssg63
g2416
sg56
(lp2423
S'HTTP_ACCEPT_CHARSET'
p2424
asbag49
(g70
g51
NtRp2425
(dp2426
g54
(dp2427
g81
g82
ssg63
g2416
sg56
(lp2428
S':'
asbag49
(g70
g51
NtRp2429
(dp2430
g54
(dp2431
sg63
g2416
sg56
(lp2432
g49
(g50
g51
NtRp2433
(dp2434
g54
(dp2435
g62
I3
ssg63
g2429
sg56
(lp2436
g968
asbasbasbag49
(g65
g51
NtRp2437
(dp2438
g54
(dp2439
sg63
g2391
sg56
(lp2440
g49
(g70
g51
NtRp2441
(dp2442
g54
(dp2443
g74
g75
ssg63
g2437
sg56
(lp2444
S'HTTP_ACCEPT_ENCODING'
p2445
asbag49
(g70
g51
NtRp2446
(dp2447
g54
(dp2448
g81
g82
ssg63
g2437
sg56
(lp2449
S':'
asbag49
(g70
g51
NtRp2450
(dp2451
g54
(dp2452
sg63
g2437
sg56
(lp2453
g49
(g50
g51
NtRp2454
(dp2455
g54
(dp2456
g62
I3
ssg63
g2450
sg56
(lp2457
g990
asbasbasbag49
(g65
g51
NtRp2458
(dp2459
g54
(dp2460
sg63
g2391
sg56
(lp2461
g49
(g70
g51
NtRp2462
(dp2463
g54
(dp2464
g74
g75
ssg63
g2458
sg56
(lp2465
S'HTTP_ACCEPT_LANGUAGE'
p2466
asbag49
(g70
g51
NtRp2467
(dp2468
g54
(dp2469
g81
g82
ssg63
g2458
sg56
(lp2470
S':'
asbag49
(g70
g51
NtRp2471
(dp2472
g54
(dp2473
sg63
g2458
sg56
(lp2474
g49
(g50
g51
NtRp2475
(dp2476
g54
(dp2477
g62
I3
ssg63
g2471
sg56
(lp2478
g1012
asbasbasbag49
(g65
g51
NtRp2479
(dp2480
g54
(dp2481
sg63
g2391
sg56
(lp2482
g49
(g70
g51
NtRp2483
(dp2484
g54
(dp2485
g74
g75
ssg63
g2479
sg56
(lp2486
S'HTTP_CACHE_CONTROL'
p2487
asbag49
(g70
g51
NtRp2488
(dp2489
g54
(dp2490
g81
g82
ssg63
g2479
sg56
(lp2491
S':'
asbag49
(g70
g51
NtRp2492
(dp2493
g54
(dp2494
sg63
g2479
sg56
(lp2495
g49
(g50
g51
NtRp2496
(dp2497
g54
(dp2498
g62
I3
ssg63
g2492
sg56
(lp2499
g1034
asbasbasbag49
(g65
g51
NtRp2500
(dp2501
g54
(dp2502
sg63
g2391
sg56
(lp2503
g49
(g70
g51
NtRp2504
(dp2505
g54
(dp2506
g74
g75
ssg63
g2500
sg56
(lp2507
S'HTTP_CONNECTION'
p2508
asbag49
(g70
g51
NtRp2509
(dp2510
g54
(dp2511
g81
g82
ssg63
g2500
sg56
(lp2512
S':'
asbag49
(g70
g51
NtRp2513
(dp2514
g54
(dp2515
sg63
g2500
sg56
(lp2516
g49
(g50
g51
NtRp2517
(dp2518
g54
(dp2519
g62
I3
ssg63
g2513
sg56
(lp2520
g1056
asbasbasbag49
(g65
g51
NtRp2521
(dp2522
g54
(dp2523
sg63
g2391
sg56
(lp2524
g49
(g70
g51
NtRp2525
(dp2526
g54
(dp2527
g74
g75
ssg63
g2521
sg56
(lp2528
S'HTTP_COOKIE'
p2529
asbag49
(g70
g51
NtRp2530
(dp2531
g54
(dp2532
g81
g82
ssg63
g2521
sg56
(lp2533
S':'
asbag49
(g70
g51
NtRp2534
(dp2535
g54
(dp2536
sg63
g2521
sg56
(lp2537
g49
(g50
g51
NtRp2538
(dp2539
g54
(dp2540
g62
I3
ssg63
g2534
sg56
(lp2541
g1078
asbasbasbag49
(g65
g51
NtRp2542
(dp2543
g54
(dp2544
sg63
g2391
sg56
(lp2545
g49
(g70
g51
NtRp2546
(dp2547
g54
(dp2548
g74
g75
ssg63
g2542
sg56
(lp2549
S'HTTP_HOST'
p2550
asbag49
(g70
g51
NtRp2551
(dp2552
g54
(dp2553
g81
g82
ssg63
g2542
sg56
(lp2554
S':'
asbag49
(g70
g51
NtRp2555
(dp2556
g54
(dp2557
sg63
g2542
sg56
(lp2558
g49
(g50
g51
NtRp2559
(dp2560
g54
(dp2561
g62
I3
ssg63
g2555
sg56
(lp2562
g1100
asbasbasbag49
(g65
g51
NtRp2563
(dp2564
g54
(dp2565
sg63
g2391
sg56
(lp2566
g49
(g70
g51
NtRp2567
(dp2568
g54
(dp2569
g74
g75
ssg63
g2563
sg56
(lp2570
S'HTTP_USER_AGENT'
p2571
asbag49
(g70
g51
NtRp2572
(dp2573
g54
(dp2574
g81
g82
ssg63
g2563
sg56
(lp2575
S':'
asbag49
(g70
g51
NtRp2576
(dp2577
g54
(dp2578
sg63
g2563
sg56
(lp2579
g49
(g50
g51
NtRp2580
(dp2581
g54
(dp2582
g62
I3
ssg63
g2576
sg56
(lp2583
g1122
asbasbasbag49
(g65
g51
NtRp2584
(dp2585
g54
(dp2586
sg63
g2391
sg56
(lp2587
g49
(g70
g51
NtRp2588
(dp2589
g54
(dp2590
g74
g75
ssg63
g2584
sg56
(lp2591
S'PATH_INFO'
p2592
asbag49
(g70
g51
NtRp2593
(dp2594
g54
(dp2595
g81
g82
ssg63
g2584
sg56
(lp2596
S':'
asbag49
(g70
g51
NtRp2597
(dp2598
g54
(dp2599
sg63
g2584
sg56
(lp2600
g49
(g50
g51
NtRp2601
(dp2602
g54
(dp2603
g62
I3
ssg63
g2597
sg56
(lp2604
g1186
asbasbasbag49
(g65
g51
NtRp2605
(dp2606
g54
(dp2607
sg63
g2391
sg56
(lp2608
g49
(g70
g51
NtRp2609
(dp2610
g54
(dp2611
g74
g75
ssg63
g2605
sg56
(lp2612
S'QUERY_STRING'
p2613
asbag49
(g70
g51
NtRp2614
(dp2615
g54
(dp2616
g81
g82
ssg63
g2605
sg56
(lp2617
S':'
asbag49
(g70
g51
NtRp2618
(dp2619
g54
(dp2620
sg63
g2605
sg56
(lp2621
g49
(g50
g51
NtRp2622
(dp2623
g54
(dp2624
g62
I3
ssg63
g2618
sg56
(lp2625
S''
asbasbasbag49
(g65
g51
NtRp2626
(dp2627
g54
(dp2628
sg63
g2391
sg56
(lp2629
g49
(g70
g51
NtRp2630
(dp2631
g54
(dp2632
g74
g75
ssg63
g2626
sg56
(lp2633
S'REMOTE_ADDR'
p2634
asbag49
(g70
g51
NtRp2635
(dp2636
g54
(dp2637
g81
g82
ssg63
g2626
sg56
(lp2638
S':'
asbag49
(g70
g51
NtRp2639
(dp2640
g54
(dp2641
sg63
g2626
sg56
(lp2642
g49
(g50
g51
NtRp2643
(dp2644
g54
(dp2645
g62
I3
ssg63
g2639
sg56
(lp2646
g194
asbasbasbag49
(g65
g51
NtRp2647
(dp2648
g54
(dp2649
sg63
g2391
sg56
(lp2650
g49
(g70
g51
NtRp2651
(dp2652
g54
(dp2653
g74
g75
ssg63
g2647
sg56
(lp2654
S'REMOTE_PORT'
p2655
asbag49
(g70
g51
NtRp2656
(dp2657
g54
(dp2658
g81
g82
ssg63
g2647
sg56
(lp2659
S':'
asbag49
(g70
g51
NtRp2660
(dp2661
g54
(dp2662
sg63
g2647
sg56
(lp2663
g49
(g50
g51
NtRp2664
(dp2665
g54
(dp2666
g62
I3
ssg63
g2660
sg56
(lp2667
g1250
asbasbasbag49
(g65
g51
NtRp2668
(dp2669
g54
(dp2670
sg63
g2391
sg56
(lp2671
g49
(g70
g51
NtRp2672
(dp2673
g54
(dp2674
g74
g75
ssg63
g2668
sg56
(lp2675
S'REQUEST_METHOD'
p2676
asbag49
(g70
g51
NtRp2677
(dp2678
g54
(dp2679
g81
g82
ssg63
g2668
sg56
(lp2680
S':'
asbag49
(g70
g51
NtRp2681
(dp2682
g54
(dp2683
sg63
g2668
sg56
(lp2684
g49
(g50
g51
NtRp2685
(dp2686
g54
(dp2687
g62
I3
ssg63
g2681
sg56
(lp2688
g1272
asbasbasbag49
(g65
g51
NtRp2689
(dp2690
g54
(dp2691
sg63
g2391
sg56
(lp2692
g49
(g70
g51
NtRp2693
(dp2694
g54
(dp2695
g74
g75
ssg63
g2689
sg56
(lp2696
S'SCRIPT_NAME'
p2697
asbag49
(g70
g51
NtRp2698
(dp2699
g54
(dp2700
g81
g82
ssg63
g2689
sg56
(lp2701
S':'
asbag49
(g70
g51
NtRp2702
(dp2703
g54
(dp2704
sg63
g2689
sg56
(lp2705
g49
(g50
g51
NtRp2706
(dp2707
g54
(dp2708
g62
I3
ssg63
g2702
sg56
(lp2709
S''
asbasbasbag49
(g65
g51
NtRp2710
(dp2711
g54
(dp2712
sg63
g2391
sg56
(lp2713
g49
(g70
g51
NtRp2714
(dp2715
g54
(dp2716
g74
g75
ssg63
g2710
sg56
(lp2717
S'SERVER_NAME'
p2718
asbag49
(g70
g51
NtRp2719
(dp2720
g54
(dp2721
g81
g82
ssg63
g2710
sg56
(lp2722
S':'
asbag49
(g70
g51
NtRp2723
(dp2724
g54
(dp2725
sg63
g2710
sg56
(lp2726
g49
(g50
g51
NtRp2727
(dp2728
g54
(dp2729
g62
I3
ssg63
g2723
sg56
(lp2730
g1315
asbasbasbag49
(g65
g51
NtRp2731
(dp2732
g54
(dp2733
sg63
g2391
sg56
(lp2734
g49
(g70
g51
NtRp2735
(dp2736
g54
(dp2737
g74
g75
ssg63
g2731
sg56
(lp2738
S'SERVER_PORT'
p2739
asbag49
(g70
g51
NtRp2740
(dp2741
g54
(dp2742
g81
g82
ssg63
g2731
sg56
(lp2743
S':'
asbag49
(g70
g51
NtRp2744
(dp2745
g54
(dp2746
sg63
g2731
sg56
(lp2747
g49
(g50
g51
NtRp2748
(dp2749
g54
(dp2750
g62
I3
ssg63
g2744
sg56
(lp2751
g1337
asbasbasbag49
(g65
g51
NtRp2752
(dp2753
g54
(dp2754
sg63
g2391
sg56
(lp2755
g49
(g70
g51
NtRp2756
(dp2757
g54
(dp2758
g74
g75
ssg63
g2752
sg56
(lp2759
S'SERVER_PROTOCOL'
p2760
asbag49
(g70
g51
NtRp2761
(dp2762
g54
(dp2763
g81
g82
ssg63
g2752
sg56
(lp2764
S':'
asbag49
(g70
g51
NtRp2765
(dp2766
g54
(dp2767
sg63
g2752
sg56
(lp2768
g49
(g50
g51
NtRp2769
(dp2770
g54
(dp2771
g62
I3
ssg63
g2765
sg56
(lp2772
g1359
asbasbasbag49
(g65
g51
NtRp2773
(dp2774
g54
(dp2775
sg63
g2391
sg56
(lp2776
g49
(g70
g51
NtRp2777
(dp2778
g54
(dp2779
g74
g75
ssg63
g2773
sg56
(lp2780
S'SERVER_SOFTWARE'
p2781
asbag49
(g70
g51
NtRp2782
(dp2783
g54
(dp2784
g81
g82
ssg63
g2773
sg56
(lp2785
S':'
asbag49
(g70
g51
NtRp2786
(dp2787
g54
(dp2788
sg63
g2773
sg56
(lp2789
g49
(g50
g51
NtRp2790
(dp2791
g54
(dp2792
g62
I3
ssg63
g2786
sg56
(lp2793
g1381
asbasbasbag49
(g65
g51
NtRp2794
(dp2795
g54
(dp2796
sg63
g2391
sg56
(lp2797
g49
(g70
g51
NtRp2798
(dp2799
g54
(dp2800
g74
g75
ssg63
g2794
sg56
(lp2801
S'wsgi.errors'
p2802
asbag49
(g70
g51
NtRp2803
(dp2804
g54
(dp2805
g81
g82
ssg63
g2794
sg56
(lp2806
S':'
asbag49
(g70
g51
NtRp2807
(dp2808
g54
(dp2809
sg63
g2794
sg56
(lp2810
g49
(g50
g51
NtRp2811
(dp2812
g54
(dp2813
g62
I3
ssg63
g2807
sg56
(lp2814
S"<open file '<stderr>', mode 'w' at 0x014F00B0>"
p2815
asbasbasbag49
(g65
g51
NtRp2816
(dp2817
g54
(dp2818
sg63
g2391
sg56
(lp2819
g49
(g70
g51
NtRp2820
(dp2821
g54
(dp2822
g74
g75
ssg63
g2816
sg56
(lp2823
S'wsgi.file_wrapper'
p2824
asbag49
(g70
g51
NtRp2825
(dp2826
g54
(dp2827
g81
g82
ssg63
g2816
sg56
(lp2828
S':'
asbag49
(g70
g51
NtRp2829
(dp2830
g54
(dp2831
sg63
g2816
sg56
(lp2832
g49
(g50
g51
NtRp2833
(dp2834
g54
(dp2835
g62
I3
ssg63
g2829
sg56
(lp2836
S'<class wsgiref.util.FileWrapper at 0x020041E0>'
p2837
asbasbasbag49
(g65
g51
NtRp2838
(dp2839
g54
(dp2840
sg63
g2391
sg56
(lp2841
g49
(g70
g51
NtRp2842
(dp2843
g54
(dp2844
g74
g75
ssg63
g2838
sg56
(lp2845
S'wsgi.input'
p2846
asbag49
(g70
g51
NtRp2847
(dp2848
g54
(dp2849
g81
g82
ssg63
g2838
sg56
(lp2850
S':'
asbag49
(g70
g51
NtRp2851
(dp2852
g54
(dp2853
sg63
g2838
sg56
(lp2854
g49
(g50
g51
NtRp2855
(dp2856
g54
(dp2857
g62
I3
ssg63
g2851
sg56
(lp2858
S'<cStringIO.StringO object at 0x056A2AC0>'
p2859
asbasbasbag49
(g65
g51
NtRp2860
(dp2861
g54
(dp2862
sg63
g2391
sg56
(lp2863
g49
(g70
g51
NtRp2864
(dp2865
g54
(dp2866
g74
g75
ssg63
g2860
sg56
(lp2867
S'wsgi.multiprocess'
p2868
asbag49
(g70
g51
NtRp2869
(dp2870
g54
(dp2871
g81
g82
ssg63
g2860
sg56
(lp2872
S':'
asbag49
(g70
g51
NtRp2873
(dp2874
g54
(dp2875
sg63
g2860
sg56
(lp2876
g49
(g50
g51
NtRp2877
(dp2878
g54
(dp2879
g62
I3
ssg63
g2873
sg56
(lp2880
g92
asbasbasbag49
(g65
g51
NtRp2881
(dp2882
g54
(dp2883
sg63
g2391
sg56
(lp2884
g49
(g70
g51
NtRp2885
(dp2886
g54
(dp2887
g74
g75
ssg63
g2881
sg56
(lp2888
S'wsgi.multithread'
p2889
asbag49
(g70
g51
NtRp2890
(dp2891
g54
(dp2892
g81
g82
ssg63
g2881
sg56
(lp2893
S':'
asbag49
(g70
g51
NtRp2894
(dp2895
g54
(dp2896
sg63
g2881
sg56
(lp2897
g49
(g50
g51
NtRp2898
(dp2899
g54
(dp2900
g62
I3
ssg63
g2894
sg56
(lp2901
g1621
asbasbasbag49
(g65
g51
NtRp2902
(dp2903
g54
(dp2904
sg63
g2391
sg56
(lp2905
g49
(g70
g51
NtRp2906
(dp2907
g54
(dp2908
g74
g75
ssg63
g2902
sg56
(lp2909
S'wsgi.run_once'
p2910
asbag49
(g70
g51
NtRp2911
(dp2912
g54
(dp2913
g81
g82
ssg63
g2902
sg56
(lp2914
S':'
asbag49
(g70
g51
NtRp2915
(dp2916
g54
(dp2917
sg63
g2902
sg56
(lp2918
g49
(g50
g51
NtRp2919
(dp2920
g54
(dp2921
g62
I3
ssg63
g2915
sg56
(lp2922
g92
asbasbasbag49
(g65
g51
NtRp2923
(dp2924
g54
(dp2925
sg63
g2391
sg56
(lp2926
g49
(g70
g51
NtRp2927
(dp2928
g54
(dp2929
g74
g75
ssg63
g2923
sg56
(lp2930
S'wsgi.url_scheme'
p2931
asbag49
(g70
g51
NtRp2932
(dp2933
g54
(dp2934
g81
g82
ssg63
g2923
sg56
(lp2935
S':'
asbag49
(g70
g51
NtRp2936
(dp2937
g54
(dp2938
sg63
g2923
sg56
(lp2939
g49
(g50
g51
NtRp2940
(dp2941
g54
(dp2942
g62
I3
ssg63
g2936
sg56
(lp2943
g1664
asbasbasbag49
(g65
g51
NtRp2944
(dp2945
g54
(dp2946
sg63
g2391
sg56
(lp2947
g49
(g70
g51
NtRp2948
(dp2949
g54
(dp2950
g74
g75
ssg63
g2944
sg56
(lp2951
S'wsgi.version'
p2952
asbag49
(g70
g51
NtRp2953
(dp2954
g54
(dp2955
g81
g82
ssg63
g2944
sg56
(lp2956
S':'
asbag49
(g70
g51
NtRp2957
(dp2958
g54
(dp2959
sg63
g2944
sg56
(lp2960
g49
(g50
g51
NtRp2961
(dp2962
g54
(dp2963
g62
I3
ssg63
g2957
sg56
(lp2964
S'1'
asbasbasbasbasbasbasbasbasbasbasbasbasbsS'frames'
p2965
(lp2966
(dp2967
S'file'
p2968
S'C:\\Users\\Osku\\koodaus\\web2py\\gluon\\restricted.py'
p2969
sS'dump'
p2970
(dp2971
sS'lnum'
p2972
I205
sS'lines'
p2973
(dp2974
sS'call'
p2975
S'(code=r"response.write(\'<html>\\r\\n<head>\\r\\n\\t\', escape=...r\\n\\r\\n</body>\\r\\n\\r\\n</html>\\r\\n\', escape=False)", environment={\'A\': <class \'gluon.html.A\'>, \'Auth\': <class \'gluon.tools.Auth\'>, \'B\': <class \'gluon.html.B\'>, \'BEAUTIFY\': <class \'gluon.html.BEAUTIFY\'>, \'BODY\': <class \'gluon.html.BODY\'>, \'BR\': <class \'gluon.html.BR\'>, \'BUTTON\': <class \'gluon.html.BUTTON\'>, \'CAT\': <class \'gluon.html.CAT\'>, \'CENTER\': <class \'gluon.html.CENTER\'>, \'CLEANUP\': <class \'gluon.validators.CLEANUP\'>, ...}, layer=r\'C:\\Users\\Osku\\koodaus\\web2py\\applications\\sitsit\\views\\default/sitsit.html\')'
p2976
sS'func'
p2977
S'restricted'
p2978
sa(dp2979
g2968
S'C:\\Users\\Osku\\koodaus\\web2py\\applications\\sitsit\\views\\default\\sitsit.html'
p2980
sg2970
(dp2981
sg2972
I19
sg2973
(dp2982
I10
S"        response.write('\\r\\n\\t', escape=False)"
p2983
sI11
S'        response.write(BEAUTIFY(sitsi))'
p2984
sI12
S"        response.write('\\r\\n\\t', escape=False)"
p2985
sI13
S'        response.write(BEAUTIFY(people))'
p2986
sI14
S"        response.write('\\r\\n', escape=False)"
p2987
sI15
S'        pass'
p2988
sI16
S"    response.write('\\r\\n', escape=False)"
p2989
sI17
S'    if auth.user:'
p2990
sI18
S'        response.write(\'\\r\\n<script type="text/javascript">\\r\\nfunction attend(){\\r\\n\\tconsole.log("attending");\\r\\n\\t$.ajax({\\r\\n\\t  url: "\', escape=False)'
p2991
sI19
S'        response.write(URL(f=join))'
p2992
sI20
S'        response.write(\'",\\r\\n\\t  context: "testi"\\r\\n\\t}).done(function(data) { \\r\\n\\t  $("#munid").html(data);\\r\\n\\t});\\r\\n}\\r\\n</script>\\r\\n<button onclick="attend()">Join</button>\\r\\n\\r\\n<div id="munid"></div>\\r\\n\', escape=False)'
p2993
sI21
S'        pass'
p2994
sI22
S"    response.write('\\r\\n', escape=False)"
p2995
sI23
S'    pass'
p2996
sI24
S"response.write('\\r\\n\\r\\n</body>\\r\\n\\r\\n</html>\\r\\n', escape=False)"
p2997
ssg2975
S'()'
p2998
sg2977
S'<module>'
p2999
sasS'pyver'
p3000
S'Python 2.5.4: C:\\Users\\Osku\\koodaus\\web2py\\web2py.exe'
p3001
sS'session'
p3002
g49
(g50
g51
NtRp3003
(dp3004
g54
(dp3005
sg56
(lp3006
g49
(g58
g51
NtRp3007
(dp3008
g54
(dp3009
g62
I5
ssg63
Nsg56
(lp3010
g49
(g65
g51
NtRp3011
(dp3012
g54
(dp3013
sg63
g3007
sg56
(lp3014
g49
(g70
g51
NtRp3015
(dp3016
g54
(dp3017
g74
g75
ssg63
g3011
sg56
(lp3018
S'auth'
p3019
asbag49
(g70
g51
NtRp3020
(dp3021
g54
(dp3022
g81
g82
ssg63
g3011
sg56
(lp3023
S':'
asbag49
(g70
g51
NtRp3024
(dp3025
g54
(dp3026
sg63
g3011
sg56
(lp3027
g49
(g50
g51
NtRp3028
(dp3029
g54
(dp3030
g62
I5
ssg63
g3024
sg56
(lp3031
g49
(g58
g51
NtRp3032
(dp3033
g54
(dp3034
g62
I4
ssg63
Nsg56
(lp3035
g49
(g65
g51
NtRp3036
(dp3037
g54
(dp3038
sg63
g3032
sg56
(lp3039
g49
(g70
g51
NtRp3040
(dp3041
g54
(dp3042
g74
g75
ssg63
g3036
sg56
(lp3043
S'expiration'
p3044
asbag49
(g70
g51
NtRp3045
(dp3046
g54
(dp3047
g81
g82
ssg63
g3036
sg56
(lp3048
S':'
asbag49
(g70
g51
NtRp3049
(dp3050
g54
(dp3051
sg63
g3036
sg56
(lp3052
g49
(g50
g51
NtRp3053
(dp3054
g54
(dp3055
g62
I4
ssg63
g3049
sg56
(lp3056
S'3600'
p3057
asbasbasbag49
(g65
g51
NtRp3058
(dp3059
g54
(dp3060
sg63
g3032
sg56
(lp3061
g49
(g70
g51
NtRp3062
(dp3063
g54
(dp3064
g74
g75
ssg63
g3058
sg56
(lp3065
S'hmac_key'
p3066
asbag49
(g70
g51
NtRp3067
(dp3068
g54
(dp3069
g81
g82
ssg63
g3058
sg56
(lp3070
S':'
asbag49
(g70
g51
NtRp3071
(dp3072
g54
(dp3073
sg63
g3058
sg56
(lp3074
g49
(g50
g51
NtRp3075
(dp3076
g54
(dp3077
g62
I4
ssg63
g3071
sg56
(lp3078
S'871ae63d-f3e0-499f-bd79-a2b724d0a3d4'
p3079
asbasbasbag49
(g65
g51
NtRp3080
(dp3081
g54
(dp3082
sg63
g3032
sg56
(lp3083
g49
(g70
g51
NtRp3084
(dp3085
g54
(dp3086
g74
g75
ssg63
g3080
sg56
(lp3087
S'last_visit'
p3088
asbag49
(g70
g51
NtRp3089
(dp3090
g54
(dp3091
g81
g82
ssg63
g3080
sg56
(lp3092
S':'
asbag49
(g70
g51
NtRp3093
(dp3094
g54
(dp3095
sg63
g3080
sg56
(lp3096
g49
(g50
g51
NtRp3097
(dp3098
g54
(dp3099
g62
I4
ssg63
g3093
sg56
(lp3100
S'datetime.datetime(2012, 7, 6, 23, 43, 5, 309000)'
p3101
asbasbasbag49
(g65
g51
NtRp3102
(dp3103
g54
(dp3104
sg63
g3032
sg56
(lp3105
g49
(g70
g51
NtRp3106
(dp3107
g54
(dp3108
g74
g75
ssg63
g3102
sg56
(lp3109
S'user'
p3110
asbag49
(g70
g51
NtRp3111
(dp3112
g54
(dp3113
g81
g82
ssg63
g3102
sg56
(lp3114
S':'
asbag49
(g70
g51
NtRp3115
(dp3116
g54
(dp3117
sg63
g3102
sg56
(lp3118
g49
(g50
g51
NtRp3119
(dp3120
g54
(dp3121
g62
I4
ssg63
g3115
sg56
(lp3122
g49
(g58
g51
NtRp3123
(dp3124
g54
(dp3125
g62
I3
ssg63
Nsg56
(lp3126
g49
(g65
g51
NtRp3127
(dp3128
g54
(dp3129
sg63
g3123
sg56
(lp3130
g49
(g70
g51
NtRp3131
(dp3132
g54
(dp3133
g74
g75
ssg63
g3127
sg56
(lp3134
S'birthdate'
p3135
asbag49
(g70
g51
NtRp3136
(dp3137
g54
(dp3138
g81
g82
ssg63
g3127
sg56
(lp3139
S':'
asbag49
(g70
g51
NtRp3140
(dp3141
g54
(dp3142
sg63
g3127
sg56
(lp3143
g49
(g50
g51
NtRp3144
(dp3145
g54
(dp3146
g62
I3
ssg63
g3140
sg56
(lp3147
S'None'
p3148
asbasbasbag49
(g65
g51
NtRp3149
(dp3150
g54
(dp3151
sg63
g3123
sg56
(lp3152
g49
(g70
g51
NtRp3153
(dp3154
g54
(dp3155
g74
g75
ssg63
g3149
sg56
(lp3156
S'email'
p3157
asbag49
(g70
g51
NtRp3158
(dp3159
g54
(dp3160
g81
g82
ssg63
g3149
sg56
(lp3161
S':'
asbag49
(g70
g51
NtRp3162
(dp3163
g54
(dp3164
sg63
g3149
sg56
(lp3165
g49
(g50
g51
NtRp3166
(dp3167
g54
(dp3168
g62
I3
ssg63
g3162
sg56
(lp3169
S'oskari.petas@gmail.com'
p3170
asbasbasbag49
(g65
g51
NtRp3171
(dp3172
g54
(dp3173
sg63
g3123
sg56
(lp3174
g49
(g70
g51
NtRp3175
(dp3176
g54
(dp3177
g74
g75
ssg63
g3171
sg56
(lp3178
S'first_name'
p3179
asbag49
(g70
g51
NtRp3180
(dp3181
g54
(dp3182
g81
g82
ssg63
g3171
sg56
(lp3183
S':'
asbag49
(g70
g51
NtRp3184
(dp3185
g54
(dp3186
sg63
g3171
sg56
(lp3187
g49
(g50
g51
NtRp3188
(dp3189
g54
(dp3190
g62
I3
ssg63
g3184
sg56
(lp3191
S'Oskari'
p3192
asbasbasbag49
(g65
g51
NtRp3193
(dp3194
g54
(dp3195
sg63
g3123
sg56
(lp3196
g49
(g70
g51
NtRp3197
(dp3198
g54
(dp3199
g74
g75
ssg63
g3193
sg56
(lp3200
S'id'
p3201
asbag49
(g70
g51
NtRp3202
(dp3203
g54
(dp3204
g81
g82
ssg63
g3193
sg56
(lp3205
S':'
asbag49
(g70
g51
NtRp3206
(dp3207
g54
(dp3208
sg63
g3193
sg56
(lp3209
g49
(g50
g51
NtRp3210
(dp3211
g54
(dp3212
g62
I3
ssg63
g3206
sg56
(lp3213
S'1'
asbasbasbag49
(g65
g51
NtRp3214
(dp3215
g54
(dp3216
sg63
g3123
sg56
(lp3217
g49
(g70
g51
NtRp3218
(dp3219
g54
(dp3220
g74
g75
ssg63
g3214
sg56
(lp3221
S'last_name'
p3222
asbag49
(g70
g51
NtRp3223
(dp3224
g54
(dp3225
g81
g82
ssg63
g3214
sg56
(lp3226
S':'
asbag49
(g70
g51
NtRp3227
(dp3228
g54
(dp3229
sg63
g3214
sg56
(lp3230
g49
(g50
g51
NtRp3231
(dp3232
g54
(dp3233
g62
I3
ssg63
g3227
sg56
(lp3234
S'Petas'
p3235
asbasbasbag49
(g65
g51
NtRp3236
(dp3237
g54
(dp3238
sg63
g3123
sg56
(lp3239
g49
(g70
g51
NtRp3240
(dp3241
g54
(dp3242
g74
g75
ssg63
g3236
sg56
(lp3243
S'password'
p3244
asbag49
(g70
g51
NtRp3245
(dp3246
g54
(dp3247
g81
g82
ssg63
g3236
sg56
(lp3248
S':'
asbag49
(g70
g51
NtRp3249
(dp3250
g54
(dp3251
sg63
g3236
sg56
(lp3252
g49
(g50
g51
NtRp3253
(dp3254
g54
(dp3255
g62
I3
ssg63
g3249
sg56
(lp3256
S'b11d7fe42f4ed95554a3bb1f580d7880'
p3257
asbasbasbag49
(g65
g51
NtRp3258
(dp3259
g54
(dp3260
sg63
g3123
sg56
(lp3261
g49
(g70
g51
NtRp3262
(dp3263
g54
(dp3264
g74
g75
ssg63
g3258
sg56
(lp3265
S'registration_id'
p3266
asbag49
(g70
g51
NtRp3267
(dp3268
g54
(dp3269
g81
g82
ssg63
g3258
sg56
(lp3270
S':'
asbag49
(g70
g51
NtRp3271
(dp3272
g54
(dp3273
sg63
g3258
sg56
(lp3274
g49
(g50
g51
NtRp3275
(dp3276
g54
(dp3277
g62
I3
ssg63
g3271
sg56
(lp3278
S''
asbasbasbag49
(g65
g51
NtRp3279
(dp3280
g54
(dp3281
sg63
g3123
sg56
(lp3282
g49
(g70
g51
NtRp3283
(dp3284
g54
(dp3285
g74
g75
ssg63
g3279
sg56
(lp3286
S'registration_key'
p3287
asbag49
(g70
g51
NtRp3288
(dp3289
g54
(dp3290
g81
g82
ssg63
g3279
sg56
(lp3291
S':'
asbag49
(g70
g51
NtRp3292
(dp3293
g54
(dp3294
sg63
g3279
sg56
(lp3295
g49
(g50
g51
NtRp3296
(dp3297
g54
(dp3298
g62
I3
ssg63
g3292
sg56
(lp3299
S''
asbasbasbag49
(g65
g51
NtRp3300
(dp3301
g54
(dp3302
sg63
g3123
sg56
(lp3303
g49
(g70
g51
NtRp3304
(dp3305
g54
(dp3306
g74
g75
ssg63
g3300
sg56
(lp3307
S'representation'
p3308
asbag49
(g70
g51
NtRp3309
(dp3310
g54
(dp3311
g81
g82
ssg63
g3300
sg56
(lp3312
S':'
asbag49
(g70
g51
NtRp3313
(dp3314
g54
(dp3315
sg63
g3300
sg56
(lp3316
g49
(g50
g51
NtRp3317
(dp3318
g54
(dp3319
g62
I3
ssg63
g3313
sg56
(lp3320
S'AS'
p3321
asbasbasbag49
(g65
g51
NtRp3322
(dp3323
g54
(dp3324
sg63
g3123
sg56
(lp3325
g49
(g70
g51
NtRp3326
(dp3327
g54
(dp3328
g74
g75
ssg63
g3322
sg56
(lp3329
S'reset_password_key'
p3330
asbag49
(g70
g51
NtRp3331
(dp3332
g54
(dp3333
g81
g82
ssg63
g3322
sg56
(lp3334
S':'
asbag49
(g70
g51
NtRp3335
(dp3336
g54
(dp3337
sg63
g3322
sg56
(lp3338
g49
(g50
g51
NtRp3339
(dp3340
g54
(dp3341
g62
I3
ssg63
g3335
sg56
(lp3342
S''
asbasbasbasbasbasbasbag49
(g65
g51
NtRp3343
(dp3344
g54
(dp3345
sg63
g3032
sg56
(lp3346
g49
(g70
g51
NtRp3347
(dp3348
g54
(dp3349
g74
g75
ssg63
g3343
sg56
(lp3350
S'user_groups'
p3351
asbag49
(g70
g51
NtRp3352
(dp3353
g54
(dp3354
g81
g82
ssg63
g3343
sg56
(lp3355
S':'
asbag49
(g70
g51
NtRp3356
(dp3357
g54
(dp3358
sg63
g3343
sg56
(lp3359
g49
(g50
g51
NtRp3360
(dp3361
g54
(dp3362
g62
I4
ssg63
g3356
sg56
(lp3363
g49
(g58
g51
NtRp3364
(dp3365
g54
(dp3366
g62
I3
ssg63
Nsg56
(lp3367
g49
(g65
g51
NtRp3368
(dp3369
g54
(dp3370
sg63
g3364
sg56
(lp3371
g49
(g70
g51
NtRp3372
(dp3373
g54
(dp3374
g74
g75
ssg63
g3368
sg56
(lp3375
S'1'
asbag49
(g70
g51
NtRp3376
(dp3377
g54
(dp3378
g81
g82
ssg63
g3368
sg56
(lp3379
S':'
asbag49
(g70
g51
NtRp3380
(dp3381
g54
(dp3382
sg63
g3368
sg56
(lp3383
g49
(g50
g51
NtRp3384
(dp3385
g54
(dp3386
g62
I3
ssg63
g3380
sg56
(lp3387
S'user_1'
p3388
asbasbasbasbasbasbasbasbasbasbasbasbasbsS'etype'
p3389
S"<type 'exceptions.NameError'>"
p3390
sS'date'
p3391
S'Fri Jul 06 23:48:30 2012'
p3392
sS'response'
p3393
g49
(g50
g51
NtRp3394
(dp3395
g54
(dp3396
sg56
(lp3397
g49
(g58
g51
NtRp3398
(dp3399
g54
(dp3400
g62
I5
ssg63
Nsg56
(lp3401
g49
(g65
g51
NtRp3402
(dp3403
g54
(dp3404
sg63
g3398
sg56
(lp3405
g49
(g70
g51
NtRp3406
(dp3407
g54
(dp3408
g74
g75
ssg63
g3402
sg56
(lp3409
g159
asbag49
(g70
g51
NtRp3410
(dp3411
g54
(dp3412
g81
g82
ssg63
g3402
sg56
(lp3413
S':'
asbag49
(g70
g51
NtRp3414
(dp3415
g54
(dp3416
sg63
g3402
sg56
(lp3417
g49
(g50
g51
NtRp3418
(dp3419
g54
(dp3420
g62
I5
ssg63
g3414
sg56
(lp3421
S'<cStringIO.StringO object at 0x056A2EC0>'
p3422
asbasbasbag49
(g65
g51
NtRp3423
(dp3424
g54
(dp3425
sg63
g3398
sg56
(lp3426
g49
(g70
g51
NtRp3427
(dp3428
g54
(dp3429
g74
g75
ssg63
g3423
sg56
(lp3430
g225
asbag49
(g70
g51
NtRp3431
(dp3432
g54
(dp3433
g81
g82
ssg63
g3423
sg56
(lp3434
S':'
asbag49
(g70
g51
NtRp3435
(dp3436
g54
(dp3437
sg63
g3423
sg56
(lp3438
g49
(g50
g51
NtRp3439
(dp3440
g54
(dp3441
g62
I5
ssg63
g3435
sg56
(lp3442
g49
(g58
g51
NtRp3443
(dp3444
g54
(dp3445
g62
I4
ssg63
Nsg56
(lp3446
g49
(g65
g51
NtRp3447
(dp3448
g54
(dp3449
sg63
g3443
sg56
(lp3450
g49
(g70
g51
NtRp3451
(dp3452
g54
(dp3453
g74
g75
ssg63
g3447
sg56
(lp3454
S'session_id_sitsit'
p3455
asbag49
(g70
g51
NtRp3456
(dp3457
g54
(dp3458
g81
g82
ssg63
g3447
sg56
(lp3459
S':'
asbag49
(g70
g51
NtRp3460
(dp3461
g54
(dp3462
sg63
g3447
sg56
(lp3463
g49
(g50
g51
NtRp3464
(dp3465
g54
(dp3466
g62
I4
ssg63
g3460
sg56
(lp3467
g49
(g58
g51
NtRp3468
(dp3469
g54
(dp3470
g62
I3
ssg63
Nsg56
(lp3471
g49
(g65
g51
NtRp3472
(dp3473
g54
(dp3474
sg63
g3468
sg56
(lp3475
g49
(g70
g51
NtRp3476
(dp3477
g54
(dp3478
g74
g75
ssg63
g3472
sg56
(lp3479
g275
asbag49
(g70
g51
NtRp3480
(dp3481
g54
(dp3482
g81
g82
ssg63
g3472
sg56
(lp3483
S':'
asbag49
(g70
g51
NtRp3484
(dp3485
g54
(dp3486
sg63
g3472
sg56
(lp3487
g49
(g50
g51
NtRp3488
(dp3489
g54
(dp3490
g62
I3
ssg63
g3484
sg56
(lp3491
S''
asbasbasbag49
(g65
g51
NtRp3492
(dp3493
g54
(dp3494
sg63
g3468
sg56
(lp3495
g49
(g70
g51
NtRp3496
(dp3497
g54
(dp3498
g74
g75
ssg63
g3492
sg56
(lp3499
g296
asbag49
(g70
g51
NtRp3500
(dp3501
g54
(dp3502
g81
g82
ssg63
g3492
sg56
(lp3503
S':'
asbag49
(g70
g51
NtRp3504
(dp3505
g54
(dp3506
sg63
g3492
sg56
(lp3507
g49
(g50
g51
NtRp3508
(dp3509
g54
(dp3510
g62
I3
ssg63
g3504
sg56
(lp3511
S''
asbasbasbag49
(g65
g51
NtRp3512
(dp3513
g54
(dp3514
sg63
g3468
sg56
(lp3515
g49
(g70
g51
NtRp3516
(dp3517
g54
(dp3518
g74
g75
ssg63
g3512
sg56
(lp3519
g317
asbag49
(g70
g51
NtRp3520
(dp3521
g54
(dp3522
g81
g82
ssg63
g3512
sg56
(lp3523
S':'
asbag49
(g70
g51
NtRp3524
(dp3525
g54
(dp3526
sg63
g3512
sg56
(lp3527
g49
(g50
g51
NtRp3528
(dp3529
g54
(dp3530
g62
I3
ssg63
g3524
sg56
(lp3531
S''
asbasbasbag49
(g65
g51
NtRp3532
(dp3533
g54
(dp3534
sg63
g3468
sg56
(lp3535
g49
(g70
g51
NtRp3536
(dp3537
g54
(dp3538
g74
g75
ssg63
g3532
sg56
(lp3539
g338
asbag49
(g70
g51
NtRp3540
(dp3541
g54
(dp3542
g81
g82
ssg63
g3532
sg56
(lp3543
S':'
asbag49
(g70
g51
NtRp3544
(dp3545
g54
(dp3546
sg63
g3532
sg56
(lp3547
g49
(g50
g51
NtRp3548
(dp3549
g54
(dp3550
g62
I3
ssg63
g3544
sg56
(lp3551
S''
asbasbasbag49
(g65
g51
NtRp3552
(dp3553
g54
(dp3554
sg63
g3468
sg56
(lp3555
g49
(g70
g51
NtRp3556
(dp3557
g54
(dp3558
g74
g75
ssg63
g3552
sg56
(lp3559
g359
asbag49
(g70
g51
NtRp3560
(dp3561
g54
(dp3562
g81
g82
ssg63
g3552
sg56
(lp3563
S':'
asbag49
(g70
g51
NtRp3564
(dp3565
g54
(dp3566
sg63
g3552
sg56
(lp3567
g49
(g50
g51
NtRp3568
(dp3569
g54
(dp3570
g62
I3
ssg63
g3564
sg56
(lp3571
S'/'
asbasbasbag49
(g65
g51
NtRp3572
(dp3573
g54
(dp3574
sg63
g3468
sg56
(lp3575
g49
(g70
g51
NtRp3576
(dp3577
g54
(dp3578
g74
g75
ssg63
g3572
sg56
(lp3579
g380
asbag49
(g70
g51
NtRp3580
(dp3581
g54
(dp3582
g81
g82
ssg63
g3572
sg56
(lp3583
S':'
asbag49
(g70
g51
NtRp3584
(dp3585
g54
(dp3586
sg63
g3572
sg56
(lp3587
g49
(g50
g51
NtRp3588
(dp3589
g54
(dp3590
g62
I3
ssg63
g3584
sg56
(lp3591
S''
asbasbasbag49
(g65
g51
NtRp3592
(dp3593
g54
(dp3594
sg63
g3468
sg56
(lp3595
g49
(g70
g51
NtRp3596
(dp3597
g54
(dp3598
g74
g75
ssg63
g3592
sg56
(lp3599
g401
asbag49
(g70
g51
NtRp3600
(dp3601
g54
(dp3602
g81
g82
ssg63
g3592
sg56
(lp3603
S':'
asbag49
(g70
g51
NtRp3604
(dp3605
g54
(dp3606
sg63
g3592
sg56
(lp3607
g49
(g50
g51
NtRp3608
(dp3609
g54
(dp3610
g62
I3
ssg63
g3604
sg56
(lp3611
S''
asbasbasbasbasbasbasbasbasbasbasbag49
(g65
g51
NtRp3612
(dp3613
g54
(dp3614
sg63
g3398
sg56
(lp3615
g49
(g70
g51
NtRp3616
(dp3617
g54
(dp3618
g74
g75
ssg63
g3612
sg56
(lp3619
S'delimiters'
p3620
asbag49
(g70
g51
NtRp3621
(dp3622
g54
(dp3623
g81
g82
ssg63
g3612
sg56
(lp3624
S':'
asbag49
(g70
g51
NtRp3625
(dp3626
g54
(dp3627
sg63
g3612
sg56
(lp3628
g49
(g50
g51
NtRp3629
(dp3630
g54
(dp3631
g62
I5
ssg63
g3625
sg56
(lp3632
g49
(g58
g51
NtRp3633
(dp3634
g54
(dp3635
g62
I4
ssg63
Nsg56
(lp3636
g49
(g65
g51
NtRp3637
(dp3638
g54
(dp3639
sg63
g3633
sg56
(lp3640
g49
(g70
g51
NtRp3641
(dp3642
g54
(dp3643
sg63
g3637
sg56
(lp3644
g49
(g50
g51
NtRp3645
(dp3646
g54
(dp3647
g62
I4
ssg63
g3641
sg56
(lp3648
S'{{'
p3649
asbasbasbag49
(g65
g51
NtRp3650
(dp3651
g54
(dp3652
sg63
g3633
sg56
(lp3653
g49
(g70
g51
NtRp3654
(dp3655
g54
(dp3656
sg63
g3650
sg56
(lp3657
g49
(g50
g51
NtRp3658
(dp3659
g54
(dp3660
g62
I4
ssg63
g3654
sg56
(lp3661
S'}}'
p3662
asbasbasbasbasbasbasbag49
(g65
g51
NtRp3663
(dp3664
g54
(dp3665
sg63
g3398
sg56
(lp3666
g49
(g70
g51
NtRp3667
(dp3668
g54
(dp3669
g74
g75
ssg63
g3663
sg56
(lp3670
S'files'
p3671
asbag49
(g70
g51
NtRp3672
(dp3673
g54
(dp3674
g81
g82
ssg63
g3663
sg56
(lp3675
S':'
asbag49
(g70
g51
NtRp3676
(dp3677
g54
(dp3678
sg63
g3663
sg56
(lp3679
g49
(g50
g51
NtRp3680
(dp3681
g54
(dp3682
g62
I5
ssg63
g3676
sg56
(lp3683
g49
(g58
g51
NtRp3684
(dp3685
g54
(dp3686
g62
I4
ssg63
Nsg56
(lp3687
g49
(g65
g51
NtRp3688
(dp3689
g54
(dp3690
sg63
g3684
sg56
(lp3691
g49
(g70
g51
NtRp3692
(dp3693
g54
(dp3694
sg63
g3688
sg56
(lp3695
g49
(g50
g51
NtRp3696
(dp3697
g54
(dp3698
g62
I4
ssg63
g3692
sg56
(lp3699
S'/sitsit/static/js/jquery.js'
p3700
asbasbasbasbasbasbasbag49
(g65
g51
NtRp3701
(dp3702
g54
(dp3703
sg63
g3398
sg56
(lp3704
g49
(g70
g51
NtRp3705
(dp3706
g54
(dp3707
g74
g75
ssg63
g3701
sg56
(lp3708
S'flash'
p3709
asbag49
(g70
g51
NtRp3710
(dp3711
g54
(dp3712
g81
g82
ssg63
g3701
sg56
(lp3713
S':'
asbag49
(g70
g51
NtRp3714
(dp3715
g54
(dp3716
sg63
g3701
sg56
(lp3717
g49
(g50
g51
NtRp3718
(dp3719
g54
(dp3720
g62
I5
ssg63
g3714
sg56
(lp3721
S''
asbasbasbag49
(g65
g51
NtRp3722
(dp3723
g54
(dp3724
sg63
g3398
sg56
(lp3725
g49
(g70
g51
NtRp3726
(dp3727
g54
(dp3728
g74
g75
ssg63
g3722
sg56
(lp3729
S'generic_patterns'
p3730
asbag49
(g70
g51
NtRp3731
(dp3732
g54
(dp3733
g81
g82
ssg63
g3722
sg56
(lp3734
S':'
asbag49
(g70
g51
NtRp3735
(dp3736
g54
(dp3737
sg63
g3722
sg56
(lp3738
g49
(g50
g51
NtRp3739
(dp3740
g54
(dp3741
g62
I5
ssg63
g3735
sg56
(lp3742
g49
(g58
g51
NtRp3743
(dp3744
g54
(dp3745
g62
I4
ssg63
Nsg56
(lp3746
g49
(g65
g51
NtRp3747
(dp3748
g54
(dp3749
sg63
g3743
sg56
(lp3750
g49
(g70
g51
NtRp3751
(dp3752
g54
(dp3753
sg63
g3747
sg56
(lp3754
g49
(g50
g51
NtRp3755
(dp3756
g54
(dp3757
g62
I4
ssg63
g3751
sg56
(lp3758
S'*'
asbasbasbasbasbasbasbag49
(g65
g51
NtRp3759
(dp3760
g54
(dp3761
sg63
g3398
sg56
(lp3762
g49
(g70
g51
NtRp3763
(dp3764
g54
(dp3765
g74
g75
ssg63
g3759
sg56
(lp3766
S'headers'
p3767
asbag49
(g70
g51
NtRp3768
(dp3769
g54
(dp3770
g81
g82
ssg63
g3759
sg56
(lp3771
S':'
asbag49
(g70
g51
NtRp3772
(dp3773
g54
(dp3774
sg63
g3759
sg56
(lp3775
g49
(g50
g51
NtRp3776
(dp3777
g54
(dp3778
g62
I5
ssg63
g3772
sg56
(lp3779
g49
(g58
g51
NtRp3780
(dp3781
g54
(dp3782
g62
I4
ssg63
Nsg56
(lp3783
g49
(g65
g51
NtRp3784
(dp3785
g54
(dp3786
sg63
g3780
sg56
(lp3787
g49
(g70
g51
NtRp3788
(dp3789
g54
(dp3790
g74
g75
ssg63
g3784
sg56
(lp3791
S'Cache-Control'
p3792
asbag49
(g70
g51
NtRp3793
(dp3794
g54
(dp3795
g81
g82
ssg63
g3784
sg56
(lp3796
S':'
asbag49
(g70
g51
NtRp3797
(dp3798
g54
(dp3799
sg63
g3784
sg56
(lp3800
g49
(g50
g51
NtRp3801
(dp3802
g54
(dp3803
g62
I4
ssg63
g3797
sg56
(lp3804
S'no-store, no-cache, must-revalidate, post-check=0, pre-check=0'
p3805
asbasbasbag49
(g65
g51
NtRp3806
(dp3807
g54
(dp3808
sg63
g3780
sg56
(lp3809
g49
(g70
g51
NtRp3810
(dp3811
g54
(dp3812
g74
g75
ssg63
g3806
sg56
(lp3813
S'Content-Type'
p3814
asbag49
(g70
g51
NtRp3815
(dp3816
g54
(dp3817
g81
g82
ssg63
g3806
sg56
(lp3818
S':'
asbag49
(g70
g51
NtRp3819
(dp3820
g54
(dp3821
sg63
g3806
sg56
(lp3822
g49
(g50
g51
NtRp3823
(dp3824
g54
(dp3825
g62
I4
ssg63
g3819
sg56
(lp3826
S'text/html; charset=utf-8'
p3827
asbasbasbag49
(g65
g51
NtRp3828
(dp3829
g54
(dp3830
sg63
g3780
sg56
(lp3831
g49
(g70
g51
NtRp3832
(dp3833
g54
(dp3834
g74
g75
ssg63
g3828
sg56
(lp3835
S'Expires'
p3836
asbag49
(g70
g51
NtRp3837
(dp3838
g54
(dp3839
g81
g82
ssg63
g3828
sg56
(lp3840
S':'
asbag49
(g70
g51
NtRp3841
(dp3842
g54
(dp3843
sg63
g3828
sg56
(lp3844
g49
(g50
g51
NtRp3845
(dp3846
g54
(dp3847
g62
I4
ssg63
g3841
sg56
(lp3848
S'Fri, 06 Jul 2012 21:48:30 GMT'
p3849
asbasbasbag49
(g65
g51
NtRp3850
(dp3851
g54
(dp3852
sg63
g3780
sg56
(lp3853
g49
(g70
g51
NtRp3854
(dp3855
g54
(dp3856
g74
g75
ssg63
g3850
sg56
(lp3857
S'Pragma'
p3858
asbag49
(g70
g51
NtRp3859
(dp3860
g54
(dp3861
g81
g82
ssg63
g3850
sg56
(lp3862
S':'
asbag49
(g70
g51
NtRp3863
(dp3864
g54
(dp3865
sg63
g3850
sg56
(lp3866
g49
(g50
g51
NtRp3867
(dp3868
g54
(dp3869
g62
I4
ssg63
g3863
sg56
(lp3870
S'no-cache'
p3871
asbasbasbag49
(g65
g51
NtRp3872
(dp3873
g54
(dp3874
sg63
g3780
sg56
(lp3875
g49
(g70
g51
NtRp3876
(dp3877
g54
(dp3878
g74
g75
ssg63
g3872
sg56
(lp3879
S'X-Powered-By'
p3880
asbag49
(g70
g51
NtRp3881
(dp3882
g54
(dp3883
g81
g82
ssg63
g3872
sg56
(lp3884
S':'
asbag49
(g70
g51
NtRp3885
(dp3886
g54
(dp3887
sg63
g3872
sg56
(lp3888
g49
(g50
g51
NtRp3889
(dp3890
g54
(dp3891
g62
I4
ssg63
g3885
sg56
(lp3892
S'web2py'
p3893
asbasbasbasbasbasbasbag49
(g65
g51
NtRp3894
(dp3895
g54
(dp3896
sg63
g3398
sg56
(lp3897
g49
(g70
g51
NtRp3898
(dp3899
g54
(dp3900
g74
g75
ssg63
g3894
sg56
(lp3901
S'menu'
p3902
asbag49
(g70
g51
NtRp3903
(dp3904
g54
(dp3905
g81
g82
ssg63
g3894
sg56
(lp3906
S':'
asbag49
(g70
g51
NtRp3907
(dp3908
g54
(dp3909
sg63
g3894
sg56
(lp3910
g49
(g50
g51
NtRp3911
(dp3912
g54
(dp3913
g62
I5
ssg63
g3907
sg56
(lp3914
g49
(g58
g51
NtRp3915
(dp3916
g54
(dp3917
g62
I4
ssg63
Nsg56
(lp3918
g49
(g65
g51
NtRp3919
(dp3920
g54
(dp3921
sg63
g3915
sg56
(lp3922
g49
(g70
g51
NtRp3923
(dp3924
g54
(dp3925
sg63
g3919
sg56
(lp3926
g49
(g50
g51
NtRp3927
(dp3928
g54
(dp3929
g62
I4
ssg63
g3923
sg56
(lp3930
g49
(g58
g51
NtRp3931
(dp3932
g54
(dp3933
g62
I3
ssg63
Nsg56
(lp3934
g49
(g65
g51
NtRp3935
(dp3936
g54
(dp3937
sg63
g3931
sg56
(lp3938
g49
(g70
g51
NtRp3939
(dp3940
g54
(dp3941
sg63
g3935
sg56
(lp3942
g49
(g50
g51
NtRp3943
(dp3944
g54
(dp3945
g62
I3
ssg63
g3939
sg56
(lp3946
cgluon.languages
lazyT_unpickle
p3947
(S's\x04\x00\x00\x00Home'
tRp3948
asbasbasbag49
(g65
g51
NtRp3949
(dp3950
g54
(dp3951
sg63
g3931
sg56
(lp3952
g49
(g70
g51
NtRp3953
(dp3954
g54
(dp3955
sg63
g3949
sg56
(lp3956
g49
(g50
g51
NtRp3957
(dp3958
g54
(dp3959
g62
I3
ssg63
g3953
sg56
(lp3960
g92
asbasbasbag49
(g65
g51
NtRp3961
(dp3962
g54
(dp3963
sg63
g3931
sg56
(lp3964
g49
(g70
g51
NtRp3965
(dp3966
g54
(dp3967
sg63
g3961
sg56
(lp3968
g49
(g50
g51
NtRp3969
(dp3970
g54
(dp3971
g62
I3
ssg63
g3965
sg56
(lp3972
S'/sitsit/default/index'
p3973
asbasbasbag49
(g65
g51
NtRp3974
(dp3975
g54
(dp3976
sg63
g3931
sg56
(lp3977
g49
(g70
g51
NtRp3978
(dp3979
g54
(dp3980
sg63
g3974
sg56
(lp3981
g49
(g50
g51
NtRp3982
(dp3983
g54
(dp3984
g62
I3
ssg63
g3978
sg56
(lp3985
g49
(g58
g51
NtRp3986
(dp3987
g54
(dp3988
g62
I2
ssg63
Nsg56
(lp3989
sbasbasbasbasbasbasbasbag49
(g65
g51
NtRp3990
(dp3991
g54
(dp3992
sg63
g3915
sg56
(lp3993
g49
(g70
g51
NtRp3994
(dp3995
g54
(dp3996
sg63
g3990
sg56
(lp3997
g49
(g50
g51
NtRp3998
(dp3999
g54
(dp4000
g62
I4
ssg63
g3994
sg56
(lp4001
g49
(g58
g51
NtRp4002
(dp4003
g54
(dp4004
g62
I3
ssg63
Nsg56
(lp4005
g49
(g65
g51
NtRp4006
(dp4007
g54
(dp4008
sg63
g4002
sg56
(lp4009
g49
(g70
g51
NtRp4010
(dp4011
g54
(dp4012
sg63
g4006
sg56
(lp4013
g49
(g50
g51
NtRp4014
(dp4015
g54
(dp4016
g62
I3
ssg63
g4010
sg56
(lp4017
g49
(cgluon.html
SPAN
p4018
g51
NtRp4019
(dp4020
g54
(dp4021
g74
S'color:yellow'
p4022
ssg63
Nsg56
(lp4023
g3893
asbasbasbasbag49
(g65
g51
NtRp4024
(dp4025
g54
(dp4026
sg63
g4002
sg56
(lp4027
g49
(g70
g51
NtRp4028
(dp4029
g54
(dp4030
sg63
g4024
sg56
(lp4031
g49
(g50
g51
NtRp4032
(dp4033
g54
(dp4034
g62
I3
ssg63
g4028
sg56
(lp4035
g92
asbasbasbag49
(g65
g51
NtRp4036
(dp4037
g54
(dp4038
sg63
g4002
sg56
(lp4039
g49
(g70
g51
NtRp4040
(dp4041
g54
(dp4042
sg63
g4036
sg56
(lp4043
g49
(g50
g51
NtRp4044
(dp4045
g54
(dp4046
g62
I3
ssg63
g4040
sg56
(lp4047
S'None'
p4048
asbasbasbag49
(g65
g51
NtRp4049
(dp4050
g54
(dp4051
sg63
g4002
sg56
(lp4052
g49
(g70
g51
NtRp4053
(dp4054
g54
(dp4055
sg63
g4049
sg56
(lp4056
g49
(g50
g51
NtRp4057
(dp4058
g54
(dp4059
g62
I3
ssg63
g4053
sg56
(lp4060
g49
(g58
g51
NtRp4061
(dp4062
g54
(dp4063
g62
I2
ssg63
Nsg56
(lp4064
g49
(g65
g51
NtRp4065
(dp4066
g54
(dp4067
sg63
g4061
sg56
(lp4068
g49
(g70
g51
NtRp4069
(dp4070
g54
(dp4071
sg63
g4065
sg56
(lp4072
g49
(g50
g51
NtRp4073
(dp4074
g54
(dp4075
g62
I2
ssg63
g4069
sg56
(lp4076
g49
(g58
g51
NtRp4077
(dp4078
g54
(dp4079
g62
I1
ssg63
Nsg56
(lp4080
g49
(g65
g51
NtRp4081
(dp4082
g54
(dp4083
sg63
g4077
sg56
(lp4084
g49
(g70
g51
NtRp4085
(dp4086
g54
(dp4087
sg63
g4081
sg56
(lp4088
g49
(g50
g51
NtRp4089
(dp4090
g54
(dp4091
g62
I1
ssg63
g4085
sg56
(lp4092
g3947
(S's\x08\x00\x00\x00My Sites'
tRp4093
asbasbasbag49
(g65
g51
NtRp4094
(dp4095
g54
(dp4096
sg63
g4077
sg56
(lp4097
g49
(g70
g51
NtRp4098
(dp4099
g54
(dp4100
sg63
g4094
sg56
(lp4101
g49
(g50
g51
NtRp4102
(dp4103
g54
(dp4104
g62
I1
ssg63
g4098
sg56
(lp4105
I00
asbasbasbag49
(g65
g51
NtRp4106
(dp4107
g54
(dp4108
sg63
g4077
sg56
(lp4109
g49
(g70
g51
NtRp4110
(dp4111
g54
(dp4112
sg63
g4106
sg56
(lp4113
g49
(g50
g51
NtRp4114
(dp4115
g54
(dp4116
g62
I1
ssg63
g4110
sg56
(lp4117
S'/admin/default/site'
p4118
asbasbasbasbasbasbasbag49
(g65
g51
NtRp4119
(dp4120
g54
(dp4121
sg63
g4061
sg56
(lp4122
g49
(g70
g51
NtRp4123
(dp4124
g54
(dp4125
sg63
g4119
sg56
(lp4126
g49
(g50
g51
NtRp4127
(dp4128
g54
(dp4129
g62
I2
ssg63
g4123
sg56
(lp4130
g49
(g58
g51
NtRp4131
(dp4132
g54
(dp4133
g62
I1
ssg63
Nsg56
(lp4134
g49
(g65
g51
NtRp4135
(dp4136
g54
(dp4137
sg63
g4131
sg56
(lp4138
g49
(g70
g51
NtRp4139
(dp4140
g54
(dp4141
sg63
g4135
sg56
(lp4142
g49
(g50
g51
NtRp4143
(dp4144
g54
(dp4145
g62
I1
ssg63
g4139
sg56
(lp4146
g3947
(S's\x08\x00\x00\x00This App'
tRp4147
asbasbasbag49
(g65
g51
NtRp4148
(dp4149
g54
(dp4150
sg63
g4131
sg56
(lp4151
g49
(g70
g51
NtRp4152
(dp4153
g54
(dp4154
sg63
g4148
sg56
(lp4155
g49
(g50
g51
NtRp4156
(dp4157
g54
(dp4158
g62
I1
ssg63
g4152
sg56
(lp4159
I00
asbasbasbag49
(g65
g51
NtRp4160
(dp4161
g54
(dp4162
sg63
g4131
sg56
(lp4163
g49
(g70
g51
NtRp4164
(dp4165
g54
(dp4166
sg63
g4160
sg56
(lp4167
g49
(g50
g51
NtRp4168
(dp4169
g54
(dp4170
g62
I1
ssg63
g4164
sg56
(lp4171
S'/admin/default/design/sitsit'
p4172
asbasbasbag49
(g65
g51
NtRp4173
(dp4174
g54
(dp4175
sg63
g4131
sg56
(lp4176
g49
(g70
g51
NtRp4177
(dp4178
g54
(dp4179
sg63
g4173
sg56
(lp4180
g49
(g50
g51
NtRp4181
(dp4182
g54
(dp4183
g62
I1
ssg63
g4177
sg56
(lp4184
(lp4185
(g3947
(S's\n\x00\x00\x00Controller'
tRp4186
I00
S'/admin/default/edit/sitsit/controllers/default.py'
tp4187
a(g3947
(S's\x04\x00\x00\x00View'
tRp4188
I00
S'/admin/default/edit/sitsit/views/default/sitsit.html'
tp4189
a(g3947
(S's\x06\x00\x00\x00Layout'
tRp4190
I00
S'/admin/default/edit/sitsit/views/layout.html'
tp4191
a(g3947
(S's\n\x00\x00\x00Stylesheet'
tRp4192
I00
S'/admin/default/edit/sitsit/static/css/web2py.css'
tp4193
a(g3947
(S's\x08\x00\x00\x00DB Model'
tRp4194
I00
S'/admin/default/edit/sitsit/models/db.py'
tp4195
a(g3947
(S's\n\x00\x00\x00Menu Model'
tRp4196
I00
S'/admin/default/edit/sitsit/models/menu.py'
tp4197
a(g3947
(S's\x08\x00\x00\x00Database'
tRp4198
I00
S'/sitsit/appadmin/index'
tp4199
a(g3947
(S's\x06\x00\x00\x00Errors'
tRp4200
I00
S'/admin/default/errors/sitsit'
tp4201
a(g3947
(S's\x05\x00\x00\x00About'
tRp4202
I00
S'/admin/default/about/sitsit'
tp4203
aasbasbasbasbasbasbasbag49
(g65
g51
NtRp4204
(dp4205
g54
(dp4206
sg63
g4061
sg56
(lp4207
g49
(g70
g51
NtRp4208
(dp4209
g54
(dp4210
sg63
g4204
sg56
(lp4211
g49
(g50
g51
NtRp4212
(dp4213
g54
(dp4214
g62
I2
ssg63
g4208
sg56
(lp4215
g49
(g58
g51
NtRp4216
(dp4217
g54
(dp4218
g62
I1
ssg63
Nsg56
(lp4219
g49
(g65
g51
NtRp4220
(dp4221
g54
(dp4222
sg63
g4216
sg56
(lp4223
g49
(g70
g51
NtRp4224
(dp4225
g54
(dp4226
sg63
g4220
sg56
(lp4227
g49
(g50
g51
NtRp4228
(dp4229
g54
(dp4230
g62
I1
ssg63
g4224
sg56
(lp4231
S'web2py.com'
p4232
asbasbasbag49
(g65
g51
NtRp4233
(dp4234
g54
(dp4235
sg63
g4216
sg56
(lp4236
g49
(g70
g51
NtRp4237
(dp4238
g54
(dp4239
sg63
g4233
sg56
(lp4240
g49
(g50
g51
NtRp4241
(dp4242
g54
(dp4243
g62
I1
ssg63
g4237
sg56
(lp4244
I00
asbasbasbag49
(g65
g51
NtRp4245
(dp4246
g54
(dp4247
sg63
g4216
sg56
(lp4248
g49
(g70
g51
NtRp4249
(dp4250
g54
(dp4251
sg63
g4245
sg56
(lp4252
g49
(g50
g51
NtRp4253
(dp4254
g54
(dp4255
g62
I1
ssg63
g4249
sg56
(lp4256
S'http://www.web2py.com'
p4257
asbasbasbag49
(g65
g51
NtRp4258
(dp4259
g54
(dp4260
sg63
g4216
sg56
(lp4261
g49
(g70
g51
NtRp4262
(dp4263
g54
(dp4264
sg63
g4258
sg56
(lp4265
g49
(g50
g51
NtRp4266
(dp4267
g54
(dp4268
g62
I1
ssg63
g4262
sg56
(lp4269
(lp4270
(g3947
(S's\x08\x00\x00\x00Download'
tRp4271
I00
S'http://www.web2py.com/examples/default/download'
p4272
tp4273
a(g3947
(S's\x07\x00\x00\x00Support'
tRp4274
I00
S'http://www.web2py.com/examples/default/support'
p4275
tp4276
a(g3947
(S's\x04\x00\x00\x00Demo'
tRp4277
I00
S'http://web2py.com/demo_admin'
p4278
tp4279
a(g3947
(S's\x0e\x00\x00\x00Quick Examples'
tRp4280
I00
S'http://web2py.com/examples/default/examples'
p4281
tp4282
a(g3947
(S's\x03\x00\x00\x00FAQ'
tRp4283
I00
S'http://web2py.com/AlterEgo'
p4284
tp4285
a(g3947
(S's\x06\x00\x00\x00Videos'
tRp4286
I00
S'http://www.web2py.com/examples/default/videos/'
p4287
tp4288
a(g3947
(S's\x11\x00\x00\x00Free Applications'
tRp4289
I00
S'http://web2py.com/appliances'
p4290
tp4291
a(g3947
(S's\x07\x00\x00\x00Plugins'
tRp4292
I00
S'http://web2py.com/plugins'
p4293
tp4294
a(g3947
(S's\x07\x00\x00\x00Layouts'
tRp4295
I00
S'http://web2py.com/layouts'
p4296
tp4297
a(g3947
(S's\x07\x00\x00\x00Recipes'
tRp4298
I00
S'http://web2pyslices.com/'
p4299
tp4300
a(g3947
(S's\x08\x00\x00\x00Semantic'
tRp4301
I00
S'http://web2py.com/semantic'
p4302
tp4303
aasbasbasbasbasbasbasbag49
(g65
g51
NtRp4304
(dp4305
g54
(dp4306
sg63
g4061
sg56
(lp4307
g49
(g70
g51
NtRp4308
(dp4309
g54
(dp4310
sg63
g4304
sg56
(lp4311
g49
(g50
g51
NtRp4312
(dp4313
g54
(dp4314
g62
I2
ssg63
g4308
sg56
(lp4315
g49
(g58
g51
NtRp4316
(dp4317
g54
(dp4318
g62
I1
ssg63
Nsg56
(lp4319
g49
(g65
g51
NtRp4320
(dp4321
g54
(dp4322
sg63
g4316
sg56
(lp4323
g49
(g70
g51
NtRp4324
(dp4325
g54
(dp4326
sg63
g4320
sg56
(lp4327
g49
(g50
g51
NtRp4328
(dp4329
g54
(dp4330
g62
I1
ssg63
g4324
sg56
(lp4331
g3947
(S's\r\x00\x00\x00Documentation'
tRp4332
asbasbasbag49
(g65
g51
NtRp4333
(dp4334
g54
(dp4335
sg63
g4316
sg56
(lp4336
g49
(g70
g51
NtRp4337
(dp4338
g54
(dp4339
sg63
g4333
sg56
(lp4340
g49
(g50
g51
NtRp4341
(dp4342
g54
(dp4343
g62
I1
ssg63
g4337
sg56
(lp4344
I00
asbasbasbag49
(g65
g51
NtRp4345
(dp4346
g54
(dp4347
sg63
g4316
sg56
(lp4348
g49
(g70
g51
NtRp4349
(dp4350
g54
(dp4351
sg63
g4345
sg56
(lp4352
g49
(g50
g51
NtRp4353
(dp4354
g54
(dp4355
g62
I1
ssg63
g4349
sg56
(lp4356
S'http://www.web2py.com/book'
p4357
asbasbasbag49
(g65
g51
NtRp4358
(dp4359
g54
(dp4360
sg63
g4316
sg56
(lp4361
g49
(g70
g51
NtRp4362
(dp4363
g54
(dp4364
sg63
g4358
sg56
(lp4365
g49
(g50
g51
NtRp4366
(dp4367
g54
(dp4368
g62
I1
ssg63
g4362
sg56
(lp4369
(lp4370
(g3947
(S's\x07\x00\x00\x00Preface'
tRp4371
I00
S'http://www.web2py.com/book/default/chapter/00'
p4372
tp4373
a(g3947
(S's\x0c\x00\x00\x00Introduction'
tRp4374
I00
S'http://www.web2py.com/book/default/chapter/01'
p4375
tp4376
a(g3947
(S's\x06\x00\x00\x00Python'
tRp4377
I00
S'http://www.web2py.com/book/default/chapter/02'
p4378
tp4379
a(g3947
(S's\x08\x00\x00\x00Overview'
tRp4380
I00
S'http://www.web2py.com/book/default/chapter/03'
p4381
tp4382
a(g3947
(S's\x08\x00\x00\x00The Core'
tRp4383
I00
S'http://www.web2py.com/book/default/chapter/04'
p4384
tp4385
a(g3947
(S's\t\x00\x00\x00The Views'
tRp4386
I00
S'http://www.web2py.com/book/default/chapter/05'
p4387
tp4388
a(g3947
(S's\x08\x00\x00\x00Database'
tRp4389
I00
S'http://www.web2py.com/book/default/chapter/06'
p4390
tp4391
a(g3947
(S's\x14\x00\x00\x00Forms and Validators'
tRp4392
I00
S'http://www.web2py.com/book/default/chapter/07'
p4393
tp4394
a(g3947
(S's\r\x00\x00\x00Email and SMS'
tRp4395
I00
S'http://www.web2py.com/book/default/chapter/08'
p4396
tp4397
a(g3947
(S's\x0e\x00\x00\x00Access Control'
tRp4398
I00
S'http://www.web2py.com/book/default/chapter/09'
p4399
tp4400
a(g3947
(S's\x08\x00\x00\x00Services'
tRp4401
I00
S'http://www.web2py.com/book/default/chapter/10'
p4402
tp4403
a(g3947
(S's\x0c\x00\x00\x00Ajax Recipes'
tRp4404
I00
S'http://www.web2py.com/book/default/chapter/11'
p4405
tp4406
a(g3947
(S's\x16\x00\x00\x00Components and Plugins'
tRp4407
I00
S'http://www.web2py.com/book/default/chapter/12'
p4408
tp4409
a(g3947
(S's\x12\x00\x00\x00Deployment Recipes'
tRp4410
I00
S'http://www.web2py.com/book/default/chapter/13'
p4411
tp4412
a(g3947
(S's\r\x00\x00\x00Other Recipes'
tRp4413
I00
S'http://www.web2py.com/book/default/chapter/14'
p4414
tp4415
a(g3947
(S's\r\x00\x00\x00Buy this book'
tRp4416
I00
S'http://stores.lulu.com/web2py'
p4417
tp4418
aasbasbasbasbasbasbasbag49
(g65
g51
NtRp4419
(dp4420
g54
(dp4421
sg63
g4061
sg56
(lp4422
g49
(g70
g51
NtRp4423
(dp4424
g54
(dp4425
sg63
g4419
sg56
(lp4426
g49
(g50
g51
NtRp4427
(dp4428
g54
(dp4429
g62
I2
ssg63
g4423
sg56
(lp4430
g49
(g58
g51
NtRp4431
(dp4432
g54
(dp4433
g62
I1
ssg63
Nsg56
(lp4434
g49
(g65
g51
NtRp4435
(dp4436
g54
(dp4437
sg63
g4431
sg56
(lp4438
g49
(g70
g51
NtRp4439
(dp4440
g54
(dp4441
sg63
g4435
sg56
(lp4442
g49
(g50
g51
NtRp4443
(dp4444
g54
(dp4445
g62
I1
ssg63
g4439
sg56
(lp4446
g3947
(S's\t\x00\x00\x00Community'
tRp4447
asbasbasbag49
(g65
g51
NtRp4448
(dp4449
g54
(dp4450
sg63
g4431
sg56
(lp4451
g49
(g70
g51
NtRp4452
(dp4453
g54
(dp4454
sg63
g4448
sg56
(lp4455
g49
(g50
g51
NtRp4456
(dp4457
g54
(dp4458
g62
I1
ssg63
g4452
sg56
(lp4459
I00
asbasbasbag49
(g65
g51
NtRp4460
(dp4461
g54
(dp4462
sg63
g4431
sg56
(lp4463
g49
(g70
g51
NtRp4464
(dp4465
g54
(dp4466
sg63
g4460
sg56
(lp4467
g49
(g50
g51
NtRp4468
(dp4469
g54
(dp4470
g62
I1
ssg63
g4464
sg56
(lp4471
Nasbasbasbag49
(g65
g51
NtRp4472
(dp4473
g54
(dp4474
sg63
g4431
sg56
(lp4475
g49
(g70
g51
NtRp4476
(dp4477
g54
(dp4478
sg63
g4472
sg56
(lp4479
g49
(g50
g51
NtRp4480
(dp4481
g54
(dp4482
g62
I1
ssg63
g4476
sg56
(lp4483
(lp4484
(g3947
(S's\x06\x00\x00\x00Groups'
tRp4485
I00
S'http://www.web2py.com/examples/default/usergroups'
p4486
tp4487
a(g3947
(S's\x07\x00\x00\x00Twitter'
tRp4488
I00
S'http://twitter.com/web2py'
p4489
tp4490
a(g3947
(S's\t\x00\x00\x00Live Chat'
tRp4491
I00
S'http://webchat.freenode.net/?channels=web2py'
p4492
tp4493
aasbasbasbasbasbasbasbag49
(g65
g51
NtRp4494
(dp4495
g54
(dp4496
sg63
g4061
sg56
(lp4497
g49
(g70
g51
NtRp4498
(dp4499
g54
(dp4500
sg63
g4494
sg56
(lp4501
g49
(g50
g51
NtRp4502
(dp4503
g54
(dp4504
g62
I2
ssg63
g4498
sg56
(lp4505
g49
(g58
g51
NtRp4506
(dp4507
g54
(dp4508
g62
I1
ssg63
Nsg56
(lp4509
g49
(g65
g51
NtRp4510
(dp4511
g54
(dp4512
sg63
g4506
sg56
(lp4513
g49
(g70
g51
NtRp4514
(dp4515
g54
(dp4516
sg63
g4510
sg56
(lp4517
g49
(g50
g51
NtRp4518
(dp4519
g54
(dp4520
g62
I1
ssg63
g4514
sg56
(lp4521
g3947
(S's\x07\x00\x00\x00Plugins'
tRp4522
asbasbasbag49
(g65
g51
NtRp4523
(dp4524
g54
(dp4525
sg63
g4506
sg56
(lp4526
g49
(g70
g51
NtRp4527
(dp4528
g54
(dp4529
sg63
g4523
sg56
(lp4530
g49
(g50
g51
NtRp4531
(dp4532
g54
(dp4533
g62
I1
ssg63
g4527
sg56
(lp4534
I00
asbasbasbag49
(g65
g51
NtRp4535
(dp4536
g54
(dp4537
sg63
g4506
sg56
(lp4538
g49
(g70
g51
NtRp4539
(dp4540
g54
(dp4541
sg63
g4535
sg56
(lp4542
g49
(g50
g51
NtRp4543
(dp4544
g54
(dp4545
g62
I1
ssg63
g4539
sg56
(lp4546
Nasbasbasbag49
(g65
g51
NtRp4547
(dp4548
g54
(dp4549
sg63
g4506
sg56
(lp4550
g49
(g70
g51
NtRp4551
(dp4552
g54
(dp4553
sg63
g4547
sg56
(lp4554
g49
(g50
g51
NtRp4555
(dp4556
g54
(dp4557
g62
I1
ssg63
g4551
sg56
(lp4558
(lp4559
(S'plugin_wiki'
p4560
I00
S'http://web2py.com/examples/default/download'
p4561
tp4562
a(g3947
(S's\r\x00\x00\x00Other Plugins'
tRp4563
I00
g4293
tp4564
a(g3947
(S's\x0e\x00\x00\x00Layout Plugins'
tRp4565
I00
g4296
tp4566
aasbasbasbasbasbasbasbasbasbasbasbasbasbasbasbasbasbasbasbag49
(g65
g51
NtRp4567
(dp4568
g54
(dp4569
sg63
g3398
sg56
(lp4570
g49
(g70
g51
NtRp4571
(dp4572
g54
(dp4573
g74
g75
ssg63
g4567
sg56
(lp4574
S'meta'
p4575
asbag49
(g70
g51
NtRp4576
(dp4577
g54
(dp4578
g81
g82
ssg63
g4567
sg56
(lp4579
S':'
asbag49
(g70
g51
NtRp4580
(dp4581
g54
(dp4582
sg63
g4567
sg56
(lp4583
g49
(g50
g51
NtRp4584
(dp4585
g54
(dp4586
g62
I5
ssg63
g4580
sg56
(lp4587
g49
(g58
g51
NtRp4588
(dp4589
g54
(dp4590
g62
I4
ssg63
Nsg56
(lp4591
g49
(g65
g51
NtRp4592
(dp4593
g54
(dp4594
sg63
g4588
sg56
(lp4595
g49
(g70
g51
NtRp4596
(dp4597
g54
(dp4598
g74
g75
ssg63
g4592
sg56
(lp4599
S'author'
p4600
asbag49
(g70
g51
NtRp4601
(dp4602
g54
(dp4603
g81
g82
ssg63
g4592
sg56
(lp4604
S':'
asbag49
(g70
g51
NtRp4605
(dp4606
g54
(dp4607
sg63
g4592
sg56
(lp4608
g49
(g50
g51
NtRp4609
(dp4610
g54
(dp4611
g62
I4
ssg63
g4605
sg56
(lp4612
S'Your Name <you@example.com>'
p4613
asbasbasbag49
(g65
g51
NtRp4614
(dp4615
g54
(dp4616
sg63
g4588
sg56
(lp4617
g49
(g70
g51
NtRp4618
(dp4619
g54
(dp4620
g74
g75
ssg63
g4614
sg56
(lp4621
S'copyright'
p4622
asbag49
(g70
g51
NtRp4623
(dp4624
g54
(dp4625
g81
g82
ssg63
g4614
sg56
(lp4626
S':'
asbag49
(g70
g51
NtRp4627
(dp4628
g54
(dp4629
sg63
g4614
sg56
(lp4630
g49
(g50
g51
NtRp4631
(dp4632
g54
(dp4633
g62
I4
ssg63
g4627
sg56
(lp4634
S'Copyright 2011'
p4635
asbasbasbag49
(g65
g51
NtRp4636
(dp4637
g54
(dp4638
sg63
g4588
sg56
(lp4639
g49
(g70
g51
NtRp4640
(dp4641
g54
(dp4642
g74
g75
ssg63
g4636
sg56
(lp4643
S'description'
p4644
asbag49
(g70
g51
NtRp4645
(dp4646
g54
(dp4647
g81
g82
ssg63
g4636
sg56
(lp4648
S':'
asbag49
(g70
g51
NtRp4649
(dp4650
g54
(dp4651
sg63
g4636
sg56
(lp4652
g49
(g50
g51
NtRp4653
(dp4654
g54
(dp4655
g62
I4
ssg63
g4649
sg56
(lp4656
S'a cool new app'
p4657
asbasbasbag49
(g65
g51
NtRp4658
(dp4659
g54
(dp4660
sg63
g4588
sg56
(lp4661
g49
(g70
g51
NtRp4662
(dp4663
g54
(dp4664
g74
g75
ssg63
g4658
sg56
(lp4665
S'generator'
p4666
asbag49
(g70
g51
NtRp4667
(dp4668
g54
(dp4669
g81
g82
ssg63
g4658
sg56
(lp4670
S':'
asbag49
(g70
g51
NtRp4671
(dp4672
g54
(dp4673
sg63
g4658
sg56
(lp4674
g49
(g50
g51
NtRp4675
(dp4676
g54
(dp4677
g62
I4
ssg63
g4671
sg56
(lp4678
S'Web2py Web Framework'
p4679
asbasbasbag49
(g65
g51
NtRp4680
(dp4681
g54
(dp4682
sg63
g4588
sg56
(lp4683
g49
(g70
g51
NtRp4684
(dp4685
g54
(dp4686
g74
g75
ssg63
g4680
sg56
(lp4687
S'keywords'
p4688
asbag49
(g70
g51
NtRp4689
(dp4690
g54
(dp4691
g81
g82
ssg63
g4680
sg56
(lp4692
S':'
asbag49
(g70
g51
NtRp4693
(dp4694
g54
(dp4695
sg63
g4680
sg56
(lp4696
g49
(g50
g51
NtRp4697
(dp4698
g54
(dp4699
g62
I4
ssg63
g4693
sg56
(lp4700
S'web2py, python, framework'
p4701
asbasbasbasbasbasbasbag49
(g65
g51
NtRp4702
(dp4703
g54
(dp4704
sg63
g3398
sg56
(lp4705
g49
(g70
g51
NtRp4706
(dp4707
g54
(dp4708
g74
g75
ssg63
g4702
sg56
(lp4709
S'postprocessing'
p4710
asbag49
(g70
g51
NtRp4711
(dp4712
g54
(dp4713
g81
g82
ssg63
g4702
sg56
(lp4714
S':'
asbag49
(g70
g51
NtRp4715
(dp4716
g54
(dp4717
sg63
g4702
sg56
(lp4718
g49
(g50
g51
NtRp4719
(dp4720
g54
(dp4721
g62
I5
ssg63
g4715
sg56
(lp4722
g49
(g58
g51
NtRp4723
(dp4724
g54
(dp4725
g62
I4
ssg63
Nsg56
(lp4726
sbasbasbasbag49
(g65
g51
NtRp4727
(dp4728
g54
(dp4729
sg63
g3398
sg56
(lp4730
g49
(g70
g51
NtRp4731
(dp4732
g54
(dp4733
g74
g75
ssg63
g4727
sg56
(lp4734
S'session_file'
p4735
asbag49
(g70
g51
NtRp4736
(dp4737
g54
(dp4738
g81
g82
ssg63
g4727
sg56
(lp4739
S':'
asbag49
(g70
g51
NtRp4740
(dp4741
g54
(dp4742
sg63
g4727
sg56
(lp4743
g49
(g50
g51
NtRp4744
(dp4745
g54
(dp4746
g62
I5
ssg63
g4740
sg56
(lp4747
S"<open file 'C:\\Users\\Osku\\koodaus\\web2py\\applications\\sitsit\\sessions\\127.0.0.1-ec2284ba-32fe-4a19-9a6f-e97c370381b5', mode 'rb+' at 0x04E22F98>"
p4748
asbasbasbag49
(g65
g51
NtRp4749
(dp4750
g54
(dp4751
sg63
g3398
sg56
(lp4752
g49
(g70
g51
NtRp4753
(dp4754
g54
(dp4755
g74
g75
ssg63
g4749
sg56
(lp4756
S'session_filename'
p4757
asbag49
(g70
g51
NtRp4758
(dp4759
g54
(dp4760
g81
g82
ssg63
g4749
sg56
(lp4761
S':'
asbag49
(g70
g51
NtRp4762
(dp4763
g54
(dp4764
sg63
g4749
sg56
(lp4765
g49
(g50
g51
NtRp4766
(dp4767
g54
(dp4768
g62
I5
ssg63
g4762
sg56
(lp4769
S'C:\\Users\\Osku\\koodaus\\web2py\\applications\\sitsit\\sessions\\127.0.0.1-ec2284ba-32fe-4a19-9a6f-e97c370381b5'
p4770
asbasbasbag49
(g65
g51
NtRp4771
(dp4772
g54
(dp4773
sg63
g3398
sg56
(lp4774
g49
(g70
g51
NtRp4775
(dp4776
g54
(dp4777
g74
g75
ssg63
g4771
sg56
(lp4778
S'session_id'
p4779
asbag49
(g70
g51
NtRp4780
(dp4781
g54
(dp4782
g81
g82
ssg63
g4771
sg56
(lp4783
S':'
asbag49
(g70
g51
NtRp4784
(dp4785
g54
(dp4786
sg63
g4771
sg56
(lp4787
g49
(g50
g51
NtRp4788
(dp4789
g54
(dp4790
g62
I5
ssg63
g4784
sg56
(lp4791
S'127.0.0.1-ec2284ba-32fe-4a19-9a6f-e97c370381b5'
p4792
asbasbasbag49
(g65
g51
NtRp4793
(dp4794
g54
(dp4795
sg63
g3398
sg56
(lp4796
g49
(g70
g51
NtRp4797
(dp4798
g54
(dp4799
g74
g75
ssg63
g4793
sg56
(lp4800
S'session_id_name'
p4801
asbag49
(g70
g51
NtRp4802
(dp4803
g54
(dp4804
g81
g82
ssg63
g4793
sg56
(lp4805
S':'
asbag49
(g70
g51
NtRp4806
(dp4807
g54
(dp4808
sg63
g4793
sg56
(lp4809
g49
(g50
g51
NtRp4810
(dp4811
g54
(dp4812
g62
I5
ssg63
g4806
sg56
(lp4813
g3455
asbasbasbag49
(g65
g51
NtRp4814
(dp4815
g54
(dp4816
sg63
g3398
sg56
(lp4817
g49
(g70
g51
NtRp4818
(dp4819
g54
(dp4820
g74
g75
ssg63
g4814
sg56
(lp4821
S'session_locked'
p4822
asbag49
(g70
g51
NtRp4823
(dp4824
g54
(dp4825
g81
g82
ssg63
g4814
sg56
(lp4826
S':'
asbag49
(g70
g51
NtRp4827
(dp4828
g54
(dp4829
sg63
g4814
sg56
(lp4830
g49
(g50
g51
NtRp4831
(dp4832
g54
(dp4833
g62
I5
ssg63
g4827
sg56
(lp4834
g1621
asbasbasbag49
(g65
g51
NtRp4835
(dp4836
g54
(dp4837
sg63
g3398
sg56
(lp4838
g49
(g70
g51
NtRp4839
(dp4840
g54
(dp4841
g74
g75
ssg63
g4835
sg56
(lp4842
S'session_new'
p4843
asbag49
(g70
g51
NtRp4844
(dp4845
g54
(dp4846
g81
g82
ssg63
g4835
sg56
(lp4847
S':'
asbag49
(g70
g51
NtRp4848
(dp4849
g54
(dp4850
sg63
g4835
sg56
(lp4851
g49
(g50
g51
NtRp4852
(dp4853
g54
(dp4854
g62
I5
ssg63
g4848
sg56
(lp4855
g92
asbasbasbag49
(g65
g51
NtRp4856
(dp4857
g54
(dp4858
sg63
g3398
sg56
(lp4859
g49
(g70
g51
NtRp4860
(dp4861
g54
(dp4862
g74
g75
ssg63
g4856
sg56
(lp4863
S'status'
p4864
asbag49
(g70
g51
NtRp4865
(dp4866
g54
(dp4867
g81
g82
ssg63
g4856
sg56
(lp4868
S':'
asbag49
(g70
g51
NtRp4869
(dp4870
g54
(dp4871
sg63
g4856
sg56
(lp4872
g49
(g50
g51
NtRp4873
(dp4874
g54
(dp4875
g62
I5
ssg63
g4869
sg56
(lp4876
S'200'
p4877
asbasbasbag49
(g65
g51
NtRp4878
(dp4879
g54
(dp4880
sg63
g3398
sg56
(lp4881
g49
(g70
g51
NtRp4882
(dp4883
g54
(dp4884
g74
g75
ssg63
g4878
sg56
(lp4885
S'subtitle'
p4886
asbag49
(g70
g51
NtRp4887
(dp4888
g54
(dp4889
g81
g82
ssg63
g4878
sg56
(lp4890
S':'
asbag49
(g70
g51
NtRp4891
(dp4892
g54
(dp4893
sg63
g4878
sg56
(lp4894
g49
(g50
g51
NtRp4895
(dp4896
g54
(dp4897
g62
I5
ssg63
g4891
sg56
(lp4898
g3947
(S's\r\x00\x00\x00customize me!'
tRp4899
asbasbasbag49
(g65
g51
NtRp4900
(dp4901
g54
(dp4902
sg63
g3398
sg56
(lp4903
g49
(g70
g51
NtRp4904
(dp4905
g54
(dp4906
g74
g75
ssg63
g4900
sg56
(lp4907
S'title'
p4908
asbag49
(g70
g51
NtRp4909
(dp4910
g54
(dp4911
g81
g82
ssg63
g4900
sg56
(lp4912
S':'
asbag49
(g70
g51
NtRp4913
(dp4914
g54
(dp4915
sg63
g4900
sg56
(lp4916
g49
(g50
g51
NtRp4917
(dp4918
g54
(dp4919
g62
I5
ssg63
g4913
sg56
(lp4920
S'Sitsit'
p4921
asbasbasbag49
(g65
g51
NtRp4922
(dp4923
g54
(dp4924
sg63
g3398
sg56
(lp4925
g49
(g70
g51
NtRp4926
(dp4927
g54
(dp4928
g74
g75
ssg63
g4922
sg56
(lp4929
g2306
asbag49
(g70
g51
NtRp4930
(dp4931
g54
(dp4932
g81
g82
ssg63
g4922
sg56
(lp4933
S':'
asbag49
(g70
g51
NtRp4934
(dp4935
g54
(dp4936
sg63
g4922
sg56
(lp4937
g49
(g50
g51
NtRp4938
(dp4939
g54
(dp4940
g62
I5
ssg63
g4934
sg56
(lp4941
g2319
asbasbasbag49
(g65
g51
NtRp4942
(dp4943
g54
(dp4944
sg63
g3398
sg56
(lp4945
g49
(g70
g51
NtRp4946
(dp4947
g54
(dp4948
g74
g75
ssg63
g4942
sg56
(lp4949
S'view'
p4950
asbag49
(g70
g51
NtRp4951
(dp4952
g54
(dp4953
g81
g82
ssg63
g4942
sg56
(lp4954
S':'
asbag49
(g70
g51
NtRp4955
(dp4956
g54
(dp4957
sg63
g4942
sg56
(lp4958
g49
(g50
g51
NtRp4959
(dp4960
g54
(dp4961
g62
I5
ssg63
g4955
sg56
(lp4962
S'default/sitsit.html'
p4963
asbasbasbasbasbsS'locals'
p4964
(dp4965
S'Service'
p4966
S"<class 'gluon.tools.Service'>"
p4967
sS'OBJECT'
p4968
S"<class 'gluon.html.OBJECT'>"
p4969
sS'SQLDB'
p4970
S"<class 'gluon.dal.DAL'>"
p4971
sg3002
S"<Storage {'_formkey[profile]': '6e445f57-7f8e-43...sh': 'h\\x1a\\xffIp%\\x06\\xa0t\\xdf6=E\\xc1\\xea\\xc7'}>"
p4972
sS'LINK'
p4973
S"<class 'gluon.html.LINK'>"
p4974
sS'BR'
p4975
S"<class 'gluon.html.BR'>"
p4976
sS'local_import'
p4977
S'<function <lambda> at 0x04EE38B0>'
p4978
sS'OPTGROUP'
p4979
S"<class 'gluon.html.OPTGROUP'>"
p4980
sS'PRE'
p4981
S"<class 'gluon.html.PRE'>"
p4982
sS'IS_INT_IN_RANGE'
p4983
S"<class 'gluon.validators.IS_INT_IN_RANGE'>"
p4984
sS'IS_LOWER'
p4985
S"<class 'gluon.validators.IS_LOWER'>"
p4986
sS'IS_STRONG'
p4987
S"<class 'gluon.validators.IS_STRONG'>"
p4988
sS'cache'
p4989
S'<gluon.cache.Cache object at 0x056A2CF0>'
p4990
sS'IS_IN_DB'
p4991
S"<class 'gluon.validators.IS_IN_DB'>"
p4992
sS'TAG'
p4993
S'<gluon.html.__TAG__ object at 0x0188FE70>'
p4994
sS'SQLField'
p4995
S"<class 'gluon.dal.Field'>"
p4996
sS'mail'
p4997
S'<gluon.tools.Mail object at 0x022720B0>'
p4998
sS'UL'
p4999
S"<class 'gluon.html.UL'>"
p5000
sS'BODY'
p5001
S"<class 'gluon.html.BODY'>"
p5002
sS'IS_DATE_IN_RANGE'
p5003
S"<class 'gluon.validators.IS_DATE_IN_RANGE'>"
p5004
sS'TH'
p5005
S"<class 'gluon.html.TH'>"
p5006
sS'URL'
p5007
S'<function URL at 0x018EB270>'
p5008
sS'__file__'
p5009
S"r'C:\\Users\\Osku\\koodaus\\web2py\\applications\\sitsit\\views\\default/sitsit.html'"
p5010
sS'db'
p5011
S"<DAL {'auth_event': <Table {'origin': <gluon.dal... 'id': <gluon.dal.Field object at 0x051A58D0>}>}>"
p5012
sS'auth'
p5013
S'<gluon.tools.Auth object at 0x02272C90>'
p5014
sS'P'
S"<class 'gluon.html.P'>"
p5015
sS'TFOOT'
p5016
S"<class 'gluon.html.TFOOT'>"
p5017
sS'XHTML'
p5018
S"<class 'gluon.html.XHTML'>"
p5019
sS'datetime'
p5020
S"<module 'datetime' (built-in)>"
p5021
sS'ON'
p5022
g1621
sS'OL'
p5023
S"<class 'gluon.html.OL'>"
p5024
sS'TEXTAREA'
p5025
S"<class 'gluon.html.TEXTAREA'>"
p5026
sS'MENU'
p5027
S"<class 'gluon.html.MENU'>"
p5028
sS'found'
p5029
g1621
sS'LOAD'
p5030
S'<function LOAD at 0x01B20D70>'
p5031
sS'CODE'
p5032
S"<class 'gluon.html.CODE'>"
p5033
sS'HTTP'
p5034
S"<class 'gluon.http.HTTP'>"
p5035
sS'people'
p5036
g39
sS'HR'
p5037
S"<class 'gluon.html.HR'>"
p5038
sS'IS_DATETIME'
p5039
S"<class 'gluon.validators.IS_DATETIME'>"
p5040
sS'HEAD'
p5041
S"<class 'gluon.html.HEAD'>"
p5042
sS'LABEL'
p5043
S"<class 'gluon.html.LABEL'>"
p5044
sS'CLEANUP'
p5045
S"<class 'gluon.validators.CLEANUP'>"
p5046
sS'plugins'
p5047
S'<gluon.tools.PluginManager object at 0x0245CCF0>'
p5048
sS'SELECT'
p5049
S"<class 'gluon.html.SELECT'>"
p5050
sS'use_janrain'
p5051
S'<function use_janrain at 0x0243CB30>'
p5052
sS'CENTER'
p5053
S"<class 'gluon.html.CENTER'>"
p5054
sS'prettydate'
p5055
S'<function prettydate at 0x0243C130>'
p5056
sS'Crud'
p5057
S"<class 'gluon.tools.Crud'>"
p5058
sS'Auth'
p5059
S"<class 'gluon.tools.Auth'>"
p5060
sS'__builtins__'
p5061
S"{'ArithmeticError': <type 'exceptions.ArithmeticError'>, 'AssertionError': <type 'exceptions.AssertionError'>, 'AttributeError': <type 'exceptions.AttributeError'>, 'BaseException': <type 'exceptions.BaseException'>, 'DeprecationWarning': <type 'exceptions.DeprecationWarning'>, 'EOFError': <type 'exceptions.EOFError'>, 'Ellipsis': Ellipsis, 'EnvironmentError': <type 'exceptions.EnvironmentError'>, 'Exception': <type 'exceptions.Exception'>, 'False': False, ...}"
p5062
sS'HTML'
p5063
S"<class 'gluon.html.HTML'>"
p5064
sS'SQLFORM'
p5065
S"<class 'gluon.sqlhtml.SQLFORM'>"
p5066
sS'EM'
p5067
S"<class 'gluon.html.EM'>"
p5068
sS'redirect'
p5069
S'<function redirect at 0x01749C70>'
p5070
sS'FIELDSET'
p5071
S"<class 'gluon.html.FIELDSET'>"
p5072
sS'IS_EQUAL_TO'
p5073
S"<class 'gluon.validators.IS_EQUAL_TO'>"
p5074
sS'embed64'
p5075
S'<function embed64 at 0x018EBD70>'
p5076
sS'IS_LIST_OF'
p5077
S"<class 'gluon.validators.IS_LIST_OF'>"
p5078
sS'__name__'
p5079
S"'__restricted__'"
p5080
sS'EMBED'
p5081
S"<class 'gluon.html.EMBED'>"
p5082
sS'_'
S'<function _ at 0x04DF19F0>'
p5083
sS'FORM'
p5084
S"<class 'gluon.html.FORM'>"
p5085
sS'H2'
p5086
S"<class 'gluon.html.H2'>"
p5087
sS'H3'
p5088
S"<class 'gluon.html.H3'>"
p5089
sS'BUTTON'
p5090
S"<class 'gluon.html.BUTTON'>"
p5091
sS'H1'
p5092
S"<class 'gluon.html.H1'>"
p5093
sS'H6'
p5094
S"<class 'gluon.html.H6'>"
p5095
sS'H4'
p5096
S"<class 'gluon.html.H4'>"
p5097
sS'H5'
p5098
S"<class 'gluon.html.H5'>"
p5099
sS'sitsi'
p5100
S"{'id': 1, 'name': 'asd', 'numofattending': 10, 'numofseats': 12, 'owner': None, 'place': 'Oskula', 'starttime': datetime.datetime(1963, 8, 28, 14, 30, 59)}"
p5101
sS'IS_UPPER'
p5102
S"<class 'gluon.validators.IS_UPPER'>"
p5103
sS'xmlescape'
p5104
S'<function xmlescape at 0x018EB1F0>'
p5105
sS'IS_TIME'
p5106
S"<class 'gluon.validators.IS_TIME'>"
p5107
sS'OPTION'
p5108
S"<class 'gluon.html.OPTION'>"
p5109
sS'TITLE'
p5110
S"<class 'gluon.html.TITLE'>"
p5111
sS'CRYPT'
p5112
S"<class 'gluon.validators.CRYPT'>"
p5113
sS'IS_EMPTY_OR'
p5114
S"<class 'gluon.validators.IS_EMPTY_OR'>"
p5115
sS'MARKMIN'
p5116
S"<class 'gluon.html.MARKMIN'>"
p5117
sS'INPUT'
p5118
S"<class 'gluon.html.INPUT'>"
p5119
sS'owner'
p5120
g92
sS'COL'
p5121
S"<class 'gluon.html.COL'>"
p5122
sS'service'
p5123
S'<gluon.tools.Service object at 0x0534C130>'
p5124
sS'SCRIPT'
p5125
S"<class 'gluon.html.SCRIPT'>"
p5126
sS'TABLE'
p5127
S"<class 'gluon.html.TABLE'>"
p5128
sS'IS_IPV4'
p5129
S"<class 'gluon.validators.IS_IPV4'>"
p5130
sS'IS_LENGTH'
p5131
S"<class 'gluon.validators.IS_LENGTH'>"
p5132
sS'XML'
p5133
S"<class 'gluon.html.XML'>"
p5134
sS'B'
S"<class 'gluon.html.B'>"
p5135
sS'IMG'
p5136
S"<class 'gluon.html.IMG'>"
p5137
sS'SQLTABLE'
p5138
S"<class 'gluon.sqlhtml.SQLTABLE'>"
p5139
sS'IS_MATCH'
p5140
S"<class 'gluon.validators.IS_MATCH'>"
p5141
sS'IS_ALPHANUMERIC'
p5142
S"<class 'gluon.validators.IS_ALPHANUMERIC'>"
p5143
sS'SPAN'
p5144
S"<class 'gluon.html.SPAN'>"
p5145
sS'IS_SLUG'
p5146
S"<class 'gluon.validators.IS_SLUG'>"
p5147
sS'BEAUTIFY'
p5148
S"<class 'gluon.html.BEAUTIFY'>"
p5149
sS'META'
p5150
S"<class 'gluon.html.META'>"
p5151
sS'IS_DATE'
p5152
S"<class 'gluon.validators.IS_DATE'>"
p5153
sS'IS_EMAIL'
p5154
S"<class 'gluon.validators.IS_EMAIL'>"
p5155
sS'IS_NOT_EMPTY'
p5156
S"<class 'gluon.validators.IS_NOT_EMPTY'>"
p5157
sS'IS_FLOAT_IN_RANGE'
p5158
S"<class 'gluon.validators.IS_FLOAT_IN_RANGE'>"
p5159
sS'TBODY'
p5160
S"<class 'gluon.html.TBODY'>"
p5161
sS'CAT'
p5162
S"<class 'gluon.html.CAT'>"
p5163
sS'Field'
p5164
S"<class 'gluon.dal.Field'>"
p5165
sS'DIV'
p5166
S"<class 'gluon.html.DIV'>"
p5167
sS'LEGEND'
p5168
S"<class 'gluon.html.LEGEND'>"
p5169
sS'COLGROUP'
p5170
S"<class 'gluon.html.COLGROUP'>"
p5171
sS'DAL'
p5172
S"<class 'gluon.dal.DAL'>"
p5173
sS'TT'
p5174
S"<class 'gluon.html.TT'>"
p5175
sS'TR'
p5176
S"<class 'gluon.html.TR'>"
p5177
sS'LI'
p5178
S"<class 'gluon.html.LI'>"
p5179
sS'IFRAME'
p5180
S"<class 'gluon.html.IFRAME'>"
p5181
sS'TD'
p5182
S"<class 'gluon.html.TD'>"
p5183
sS'PluginManager'
p5184
S"<class 'gluon.tools.PluginManager'>"
p5185
sS'IS_URL'
p5186
S"<class 'gluon.validators.IS_URL'>"
p5187
sS'A'
S"<class 'gluon.html.A'>"
p5188
sS'STYLE'
p5189
S"<class 'gluon.html.STYLE'>"
p5190
sS'IS_DATETIME_IN_RANGE'
p5191
S"<class 'gluon.validators.IS_DATETIME_IN_RANGE'>"
p5192
sS'IS_IMAGE'
p5193
S"<class 'gluon.validators.IS_IMAGE'>"
p5194
sS'I'
S"<class 'gluon.html.I'>"
p5195
sS'crud'
p5196
S'<gluon.tools.Crud object at 0x0534C5F0>'
p5197
sS'IS_NOT_IN_DB'
p5198
S"<class 'gluon.validators.IS_NOT_IN_DB'>"
p5199
sg3393
S"<Storage {'body': <cStringIO.StringO object at 0...> at 0x04EE37F0>, 'view': 'default/sitsit.html'}>"
p5200
sS'THEAD'
p5201
S"<class 'gluon.html.THEAD'>"
p5202
sS'IS_NULL_OR'
p5203
S"<class 'gluon.validators.IS_EMPTY_OR'>"
p5204
sg48
S"<Storage {'body': <cStringIO.StringO object at 0..._vars': <Storage {}>, 'post_vars': <Storage {}>}>"
p5205
sS'IS_EXPR'
p5206
S"<class 'gluon.validators.IS_EXPR'>"
p5207
sS'T'
S'<gluon.languages.translator object at 0x04F50470>'
p5208
sS'IS_IN_SET'
p5209
S"<class 'gluon.validators.IS_IN_SET'>"
p5210
sS'IS_UPLOAD_FILENAME'
p5211
S"<class 'gluon.validators.IS_UPLOAD_FILENAME'>"
p5212
sS'IS_DECIMAL_IN_RANGE'
p5213
S"<class 'gluon.validators.IS_DECIMAL_IN_RANGE'>"
p5214
sssS'traceback'
p5215
S'Traceback (most recent call last):\n  File "gluon/restricted.py", line 205, in restricted\n  File "C:\\Users\\Osku\\koodaus\\web2py\\applications\\sitsit\\views\\default/sitsit.html", line 19, in <module>\nNameError: name \'join\' is not defined\n'
p5216
s.