(dp1
S'output'
p2
S"<type 'exceptions.KeyError'> 'echo'"
p3
sS'layer'
p4
S'C:\\Users\\Osku\\koodaus\\web2py\\applications\\sitsit\\controllers/default.py'
p5
sS'code'
p6
S'# -*- coding: utf-8 -*-\n# this file is released under public domain and you can use without limitations\n\n#########################################################################\n## This is a samples controller\n## - index is the default action of any application\n## - user is required for authentication and authorization\n## - download is for downloading files uploaded in the db (does streaming)\n## - call exposes all registered services (none by default)\n#########################################################################\n\ndef index():\n    """\n    example action using the internationalization operator T and flash\n    rendered by views/default/index.html or views/generic.html\n    """\n    response.flash = "Welcome to web2py!"\n    return dict(message=T(\'Hello World\'))\n\n\ndef sitsit(): \n\tif len(request.args) == 0:\n\t\tresponse.view = "%s/%s.%s" % (request.controller, request.function+"new", request.extension)\n\t\tform = SQLFORM(db.party)\n\t\tif form.process().accepted:\n\t\t\treturn redirect(URL(args=form.vars.id))\n\t\treturn dict(form=form)\n\tif len(request.args):\n\t\tsitsiID = request.args[0]\n\t\tsitsi = db.party[sitsiID]\n\t\tpeople = db(db.guest_party_attending.party == sitsiID).select().as_dict()\n\t\towner=False\n\t\tif auth.is_logged_in():\n\t\t\tif auth.user.id == sitsi.owner:\n\t\t\t\towner=True\n\t\tif sitsit:\n\t\t\treturn dict(sitsi=sitsi.as_dict(),found=True,people=people,owner=owner)\n\t\telse:\n\t\t\treturn dict(found=False)\n\t\t\t\ndef echo():\n    return request.vars.name\n\ndef user():\n    """\n    exposes:\n    http://..../[app]/default/user/login\n    http://..../[app]/default/user/logout\n    http://..../[app]/default/user/register\n    http://..../[app]/default/user/profile\n    http://..../[app]/default/user/retrieve_password\n    http://..../[app]/default/user/change_password\n    use @auth.requires_login()\n        @auth.requires_membership(\'group name\')\n        @auth.requires_permission(\'read\',\'table name\',record_id)\n    to decorate functions that need access control\n    """\n    return dict(form=auth())\n\n\ndef download():\n    """\n    allows downloading of uploaded files\n    http://..../[app]/default/download/[filename]\n    """\n    return response.download(request,db)\n\n\ndef call():\n    """\n    exposes services. for example:\n    http://..../[app]/default/call/jsonrpc\n    decorate with @services.jsonrpc the functions to expose\n    supports xml, json, xmlrpc, jsonrpc, amfrpc, rss, csv\n    """\n    return service()\n\n\n@auth.requires_signature()\ndef data():\n    """\n    http://..../[app]/default/data/tables\n    http://..../[app]/default/data/create/[table]\n    http://..../[app]/default/data/read/[table]/[id]\n    http://..../[app]/default/data/update/[table]/[id]\n    http://..../[app]/default/data/delete/[table]/[id]\n    http://..../[app]/default/data/select/[table]\n    http://..../[app]/default/data/search/[table]\n    but URLs must be signed, i.e. linked with\n      A(\'table\',_href=URL(\'data/tables\',user_signature=True))\n    or with the signed load operator\n      LOAD(\'default\',\'data.load\',args=\'tables\',ajax=True,user_signature=True)\n    """\n    return dict(form=crud())\n\n\nresponse._vars=response._caller(sitsit)\n'
p7
sS'snapshot'
p8
(dp9
S'exception'
p10
(dp11
S'__hash__'
p12
S"<method-wrapper '__hash__' of exceptions.KeyError object at 0x0582B760>"
p13
sS'__setattr__'
p14
S"<method-wrapper '__setattr__' of exceptions.KeyError object at 0x0582B760>"
p15
sS'__reduce_ex__'
p16
S'<built-in method __reduce_ex__ of exceptions.KeyError object at 0x0582B760>'
p17
sS'__getslice__'
p18
S"<method-wrapper '__getslice__' of exceptions.KeyError object at 0x0582B760>"
p19
sS'__getitem__'
p20
S"<method-wrapper '__getitem__' of exceptions.KeyError object at 0x0582B760>"
p21
sS'__setstate__'
p22
S'<built-in method __setstate__ of exceptions.KeyError object at 0x0582B760>'
p23
sS'__reduce__'
p24
S'<built-in method __reduce__ of exceptions.KeyError object at 0x0582B760>'
p25
sS'__str__'
p26
S"<method-wrapper '__str__' of exceptions.KeyError object at 0x0582B760>"
p27
sS'args'
p28
S"('echo',)"
p29
sS'__getattribute__'
p30
S"<method-wrapper '__getattribute__' of exceptions.KeyError object at 0x0582B760>"
p31
sS'__class__'
p32
S"<type 'exceptions.KeyError'>"
p33
sS'__delattr__'
p34
S"<method-wrapper '__delattr__' of exceptions.KeyError object at 0x0582B760>"
p35
sS'__repr__'
p36
S"<method-wrapper '__repr__' of exceptions.KeyError object at 0x0582B760>"
p37
sS'__dict__'
p38
S'{}'
p39
sS'__doc__'
p40
S"'Mapping key not found.'"
p41
sS'__init__'
p42
S"<method-wrapper '__init__' of exceptions.KeyError object at 0x0582B760>"
p43
sS'__new__'
p44
S'<built-in method __new__ of type object at 0x1E1CDFB8>'
p45
ssS'evalue'
p46
S"'echo'"
p47
sS'request'
p48
ccopy_reg
_reconstructor
p49
(cgluon.html
BEAUTIFY
p50
c__builtin__
object
p51
NtRp52
(dp53
S'attributes'
p54
(dp55
sS'components'
p56
(lp57
g49
(cgluon.html
TABLE
p58
g51
NtRp59
(dp60
g54
(dp61
S'level'
p62
I5
ssS'parent'
p63
Nsg56
(lp64
g49
(cgluon.html
TR
p65
g51
NtRp66
(dp67
g54
(dp68
sg63
g59
sg56
(lp69
g49
(cgluon.html
TD
p70
g51
NtRp71
(dp72
g54
(dp73
S'_style'
p74
S'font-weight:bold;vertical-align:top'
p75
ssg63
g66
sg56
(lp76
S'ajax'
p77
asbag49
(g70
g51
NtRp78
(dp79
g54
(dp80
S'_valign'
p81
S'top'
p82
ssg63
g66
sg56
(lp83
S':'
asbag49
(g70
g51
NtRp84
(dp85
g54
(dp86
sg63
g66
sg56
(lp87
g49
(g50
g51
NtRp88
(dp89
g54
(dp90
g62
I5
ssg63
g84
sg56
(lp91
S'True'
p92
asbasbasbag49
(g65
g51
NtRp93
(dp94
g54
(dp95
sg63
g59
sg56
(lp96
g49
(g70
g51
NtRp97
(dp98
g54
(dp99
g74
g75
ssg63
g93
sg56
(lp100
S'application'
p101
asbag49
(g70
g51
NtRp102
(dp103
g54
(dp104
g81
g82
ssg63
g93
sg56
(lp105
S':'
asbag49
(g70
g51
NtRp106
(dp107
g54
(dp108
sg63
g93
sg56
(lp109
g49
(g50
g51
NtRp110
(dp111
g54
(dp112
g62
I5
ssg63
g106
sg56
(lp113
S'sitsit'
p114
asbasbasbag49
(g65
g51
NtRp115
(dp116
g54
(dp117
sg63
g59
sg56
(lp118
g49
(g70
g51
NtRp119
(dp120
g54
(dp121
g74
g75
ssg63
g115
sg56
(lp122
g28
asbag49
(g70
g51
NtRp123
(dp124
g54
(dp125
g81
g82
ssg63
g115
sg56
(lp126
S':'
asbag49
(g70
g51
NtRp127
(dp128
g54
(dp129
sg63
g115
sg56
(lp130
g49
(g50
g51
NtRp131
(dp132
g54
(dp133
g62
I5
ssg63
g127
sg56
(lp134
g49
(g58
g51
NtRp135
(dp136
g54
(dp137
g62
I4
ssg63
Nsg56
(lp138
g49
(g65
g51
NtRp139
(dp140
g54
(dp141
sg63
g135
sg56
(lp142
g49
(g70
g51
NtRp143
(dp144
g54
(dp145
sg63
g139
sg56
(lp146
g49
(g50
g51
NtRp147
(dp148
g54
(dp149
g62
I4
ssg63
g143
sg56
(lp150
S'echo'
p151
asbasbasbasbasbasbasbag49
(g65
g51
NtRp152
(dp153
g54
(dp154
sg63
g59
sg56
(lp155
g49
(g70
g51
NtRp156
(dp157
g54
(dp158
g74
g75
ssg63
g152
sg56
(lp159
S'body'
p160
asbag49
(g70
g51
NtRp161
(dp162
g54
(dp163
g81
g82
ssg63
g152
sg56
(lp164
S':'
asbag49
(g70
g51
NtRp165
(dp166
g54
(dp167
sg63
g152
sg56
(lp168
g49
(g50
g51
NtRp169
(dp170
g54
(dp171
g62
I5
ssg63
g165
sg56
(lp172
S'<cStringIO.StringO object at 0x050E7C20>'
p173
asbasbasbag49
(g65
g51
NtRp174
(dp175
g54
(dp176
sg63
g59
sg56
(lp177
g49
(g70
g51
NtRp178
(dp179
g54
(dp180
g74
g75
ssg63
g174
sg56
(lp181
S'client'
p182
asbag49
(g70
g51
NtRp183
(dp184
g54
(dp185
g81
g82
ssg63
g174
sg56
(lp186
S':'
asbag49
(g70
g51
NtRp187
(dp188
g54
(dp189
sg63
g174
sg56
(lp190
g49
(g50
g51
NtRp191
(dp192
g54
(dp193
g62
I5
ssg63
g187
sg56
(lp194
S'127.0.0.1'
p195
asbasbasbag49
(g65
g51
NtRp196
(dp197
g54
(dp198
sg63
g59
sg56
(lp199
g49
(g70
g51
NtRp200
(dp201
g54
(dp202
g74
g75
ssg63
g196
sg56
(lp203
S'controller'
p204
asbag49
(g70
g51
NtRp205
(dp206
g54
(dp207
g81
g82
ssg63
g196
sg56
(lp208
S':'
asbag49
(g70
g51
NtRp209
(dp210
g54
(dp211
sg63
g196
sg56
(lp212
g49
(g50
g51
NtRp213
(dp214
g54
(dp215
g62
I5
ssg63
g209
sg56
(lp216
S'default'
p217
asbasbasbag49
(g65
g51
NtRp218
(dp219
g54
(dp220
sg63
g59
sg56
(lp221
g49
(g70
g51
NtRp222
(dp223
g54
(dp224
g74
g75
ssg63
g218
sg56
(lp225
S'cookies'
p226
asbag49
(g70
g51
NtRp227
(dp228
g54
(dp229
g81
g82
ssg63
g218
sg56
(lp230
S':'
asbag49
(g70
g51
NtRp231
(dp232
g54
(dp233
sg63
g218
sg56
(lp234
g49
(g50
g51
NtRp235
(dp236
g54
(dp237
g62
I5
ssg63
g231
sg56
(lp238
g49
(g58
g51
NtRp239
(dp240
g54
(dp241
g62
I4
ssg63
Nsg56
(lp242
g49
(g65
g51
NtRp243
(dp244
g54
(dp245
sg63
g239
sg56
(lp246
g49
(g70
g51
NtRp247
(dp248
g54
(dp249
g74
g75
ssg63
g243
sg56
(lp250
S'session_id_admin'
p251
asbag49
(g70
g51
NtRp252
(dp253
g54
(dp254
g81
g82
ssg63
g243
sg56
(lp255
S':'
asbag49
(g70
g51
NtRp256
(dp257
g54
(dp258
sg63
g243
sg56
(lp259
g49
(g50
g51
NtRp260
(dp261
g54
(dp262
g62
I4
ssg63
g256
sg56
(lp263
g49
(g58
g51
NtRp264
(dp265
g54
(dp266
g62
I3
ssg63
Nsg56
(lp267
g49
(g65
g51
NtRp268
(dp269
g54
(dp270
sg63
g264
sg56
(lp271
g49
(g70
g51
NtRp272
(dp273
g54
(dp274
g74
g75
ssg63
g268
sg56
(lp275
S'comment'
p276
asbag49
(g70
g51
NtRp277
(dp278
g54
(dp279
g81
g82
ssg63
g268
sg56
(lp280
S':'
asbag49
(g70
g51
NtRp281
(dp282
g54
(dp283
sg63
g268
sg56
(lp284
g49
(g50
g51
NtRp285
(dp286
g54
(dp287
g62
I3
ssg63
g281
sg56
(lp288
S''
asbasbasbag49
(g65
g51
NtRp289
(dp290
g54
(dp291
sg63
g264
sg56
(lp292
g49
(g70
g51
NtRp293
(dp294
g54
(dp295
g74
g75
ssg63
g289
sg56
(lp296
S'domain'
p297
asbag49
(g70
g51
NtRp298
(dp299
g54
(dp300
g81
g82
ssg63
g289
sg56
(lp301
S':'
asbag49
(g70
g51
NtRp302
(dp303
g54
(dp304
sg63
g289
sg56
(lp305
g49
(g50
g51
NtRp306
(dp307
g54
(dp308
g62
I3
ssg63
g302
sg56
(lp309
S''
asbasbasbag49
(g65
g51
NtRp310
(dp311
g54
(dp312
sg63
g264
sg56
(lp313
g49
(g70
g51
NtRp314
(dp315
g54
(dp316
g74
g75
ssg63
g310
sg56
(lp317
S'expires'
p318
asbag49
(g70
g51
NtRp319
(dp320
g54
(dp321
g81
g82
ssg63
g310
sg56
(lp322
S':'
asbag49
(g70
g51
NtRp323
(dp324
g54
(dp325
sg63
g310
sg56
(lp326
g49
(g50
g51
NtRp327
(dp328
g54
(dp329
g62
I3
ssg63
g323
sg56
(lp330
S''
asbasbasbag49
(g65
g51
NtRp331
(dp332
g54
(dp333
sg63
g264
sg56
(lp334
g49
(g70
g51
NtRp335
(dp336
g54
(dp337
g74
g75
ssg63
g331
sg56
(lp338
S'max-age'
p339
asbag49
(g70
g51
NtRp340
(dp341
g54
(dp342
g81
g82
ssg63
g331
sg56
(lp343
S':'
asbag49
(g70
g51
NtRp344
(dp345
g54
(dp346
sg63
g331
sg56
(lp347
g49
(g50
g51
NtRp348
(dp349
g54
(dp350
g62
I3
ssg63
g344
sg56
(lp351
S''
asbasbasbag49
(g65
g51
NtRp352
(dp353
g54
(dp354
sg63
g264
sg56
(lp355
g49
(g70
g51
NtRp356
(dp357
g54
(dp358
g74
g75
ssg63
g352
sg56
(lp359
S'path'
p360
asbag49
(g70
g51
NtRp361
(dp362
g54
(dp363
g81
g82
ssg63
g352
sg56
(lp364
S':'
asbag49
(g70
g51
NtRp365
(dp366
g54
(dp367
sg63
g352
sg56
(lp368
g49
(g50
g51
NtRp369
(dp370
g54
(dp371
g62
I3
ssg63
g365
sg56
(lp372
S''
asbasbasbag49
(g65
g51
NtRp373
(dp374
g54
(dp375
sg63
g264
sg56
(lp376
g49
(g70
g51
NtRp377
(dp378
g54
(dp379
g74
g75
ssg63
g373
sg56
(lp380
S'secure'
p381
asbag49
(g70
g51
NtRp382
(dp383
g54
(dp384
g81
g82
ssg63
g373
sg56
(lp385
S':'
asbag49
(g70
g51
NtRp386
(dp387
g54
(dp388
sg63
g373
sg56
(lp389
g49
(g50
g51
NtRp390
(dp391
g54
(dp392
g62
I3
ssg63
g386
sg56
(lp393
S''
asbasbasbag49
(g65
g51
NtRp394
(dp395
g54
(dp396
sg63
g264
sg56
(lp397
g49
(g70
g51
NtRp398
(dp399
g54
(dp400
g74
g75
ssg63
g394
sg56
(lp401
S'version'
p402
asbag49
(g70
g51
NtRp403
(dp404
g54
(dp405
g81
g82
ssg63
g394
sg56
(lp406
S':'
asbag49
(g70
g51
NtRp407
(dp408
g54
(dp409
sg63
g394
sg56
(lp410
g49
(g50
g51
NtRp411
(dp412
g54
(dp413
g62
I3
ssg63
g407
sg56
(lp414
S''
asbasbasbasbasbasbasbag49
(g65
g51
NtRp415
(dp416
g54
(dp417
sg63
g239
sg56
(lp418
g49
(g70
g51
NtRp419
(dp420
g54
(dp421
g74
g75
ssg63
g415
sg56
(lp422
S'session_id_sitsit'
p423
asbag49
(g70
g51
NtRp424
(dp425
g54
(dp426
g81
g82
ssg63
g415
sg56
(lp427
S':'
asbag49
(g70
g51
NtRp428
(dp429
g54
(dp430
sg63
g415
sg56
(lp431
g49
(g50
g51
NtRp432
(dp433
g54
(dp434
g62
I4
ssg63
g428
sg56
(lp435
g49
(g58
g51
NtRp436
(dp437
g54
(dp438
g62
I3
ssg63
Nsg56
(lp439
g49
(g65
g51
NtRp440
(dp441
g54
(dp442
sg63
g436
sg56
(lp443
g49
(g70
g51
NtRp444
(dp445
g54
(dp446
g74
g75
ssg63
g440
sg56
(lp447
g276
asbag49
(g70
g51
NtRp448
(dp449
g54
(dp450
g81
g82
ssg63
g440
sg56
(lp451
S':'
asbag49
(g70
g51
NtRp452
(dp453
g54
(dp454
sg63
g440
sg56
(lp455
g49
(g50
g51
NtRp456
(dp457
g54
(dp458
g62
I3
ssg63
g452
sg56
(lp459
S''
asbasbasbag49
(g65
g51
NtRp460
(dp461
g54
(dp462
sg63
g436
sg56
(lp463
g49
(g70
g51
NtRp464
(dp465
g54
(dp466
g74
g75
ssg63
g460
sg56
(lp467
g297
asbag49
(g70
g51
NtRp468
(dp469
g54
(dp470
g81
g82
ssg63
g460
sg56
(lp471
S':'
asbag49
(g70
g51
NtRp472
(dp473
g54
(dp474
sg63
g460
sg56
(lp475
g49
(g50
g51
NtRp476
(dp477
g54
(dp478
g62
I3
ssg63
g472
sg56
(lp479
S''
asbasbasbag49
(g65
g51
NtRp480
(dp481
g54
(dp482
sg63
g436
sg56
(lp483
g49
(g70
g51
NtRp484
(dp485
g54
(dp486
g74
g75
ssg63
g480
sg56
(lp487
g318
asbag49
(g70
g51
NtRp488
(dp489
g54
(dp490
g81
g82
ssg63
g480
sg56
(lp491
S':'
asbag49
(g70
g51
NtRp492
(dp493
g54
(dp494
sg63
g480
sg56
(lp495
g49
(g50
g51
NtRp496
(dp497
g54
(dp498
g62
I3
ssg63
g492
sg56
(lp499
S''
asbasbasbag49
(g65
g51
NtRp500
(dp501
g54
(dp502
sg63
g436
sg56
(lp503
g49
(g70
g51
NtRp504
(dp505
g54
(dp506
g74
g75
ssg63
g500
sg56
(lp507
g339
asbag49
(g70
g51
NtRp508
(dp509
g54
(dp510
g81
g82
ssg63
g500
sg56
(lp511
S':'
asbag49
(g70
g51
NtRp512
(dp513
g54
(dp514
sg63
g500
sg56
(lp515
g49
(g50
g51
NtRp516
(dp517
g54
(dp518
g62
I3
ssg63
g512
sg56
(lp519
S''
asbasbasbag49
(g65
g51
NtRp520
(dp521
g54
(dp522
sg63
g436
sg56
(lp523
g49
(g70
g51
NtRp524
(dp525
g54
(dp526
g74
g75
ssg63
g520
sg56
(lp527
g360
asbag49
(g70
g51
NtRp528
(dp529
g54
(dp530
g81
g82
ssg63
g520
sg56
(lp531
S':'
asbag49
(g70
g51
NtRp532
(dp533
g54
(dp534
sg63
g520
sg56
(lp535
g49
(g50
g51
NtRp536
(dp537
g54
(dp538
g62
I3
ssg63
g532
sg56
(lp539
S''
asbasbasbag49
(g65
g51
NtRp540
(dp541
g54
(dp542
sg63
g436
sg56
(lp543
g49
(g70
g51
NtRp544
(dp545
g54
(dp546
g74
g75
ssg63
g540
sg56
(lp547
g381
asbag49
(g70
g51
NtRp548
(dp549
g54
(dp550
g81
g82
ssg63
g540
sg56
(lp551
S':'
asbag49
(g70
g51
NtRp552
(dp553
g54
(dp554
sg63
g540
sg56
(lp555
g49
(g50
g51
NtRp556
(dp557
g54
(dp558
g62
I3
ssg63
g552
sg56
(lp559
S''
asbasbasbag49
(g65
g51
NtRp560
(dp561
g54
(dp562
sg63
g436
sg56
(lp563
g49
(g70
g51
NtRp564
(dp565
g54
(dp566
g74
g75
ssg63
g560
sg56
(lp567
g402
asbag49
(g70
g51
NtRp568
(dp569
g54
(dp570
g81
g82
ssg63
g560
sg56
(lp571
S':'
asbag49
(g70
g51
NtRp572
(dp573
g54
(dp574
sg63
g560
sg56
(lp575
g49
(g50
g51
NtRp576
(dp577
g54
(dp578
g62
I3
ssg63
g572
sg56
(lp579
S''
asbasbasbasbasbasbasbag49
(g65
g51
NtRp580
(dp581
g54
(dp582
sg63
g239
sg56
(lp583
g49
(g70
g51
NtRp584
(dp585
g54
(dp586
g74
g75
ssg63
g580
sg56
(lp587
S'session_id_welcome'
p588
asbag49
(g70
g51
NtRp589
(dp590
g54
(dp591
g81
g82
ssg63
g580
sg56
(lp592
S':'
asbag49
(g70
g51
NtRp593
(dp594
g54
(dp595
sg63
g580
sg56
(lp596
g49
(g50
g51
NtRp597
(dp598
g54
(dp599
g62
I4
ssg63
g593
sg56
(lp600
g49
(g58
g51
NtRp601
(dp602
g54
(dp603
g62
I3
ssg63
Nsg56
(lp604
g49
(g65
g51
NtRp605
(dp606
g54
(dp607
sg63
g601
sg56
(lp608
g49
(g70
g51
NtRp609
(dp610
g54
(dp611
g74
g75
ssg63
g605
sg56
(lp612
g276
asbag49
(g70
g51
NtRp613
(dp614
g54
(dp615
g81
g82
ssg63
g605
sg56
(lp616
S':'
asbag49
(g70
g51
NtRp617
(dp618
g54
(dp619
sg63
g605
sg56
(lp620
g49
(g50
g51
NtRp621
(dp622
g54
(dp623
g62
I3
ssg63
g617
sg56
(lp624
S''
asbasbasbag49
(g65
g51
NtRp625
(dp626
g54
(dp627
sg63
g601
sg56
(lp628
g49
(g70
g51
NtRp629
(dp630
g54
(dp631
g74
g75
ssg63
g625
sg56
(lp632
g297
asbag49
(g70
g51
NtRp633
(dp634
g54
(dp635
g81
g82
ssg63
g625
sg56
(lp636
S':'
asbag49
(g70
g51
NtRp637
(dp638
g54
(dp639
sg63
g625
sg56
(lp640
g49
(g50
g51
NtRp641
(dp642
g54
(dp643
g62
I3
ssg63
g637
sg56
(lp644
S''
asbasbasbag49
(g65
g51
NtRp645
(dp646
g54
(dp647
sg63
g601
sg56
(lp648
g49
(g70
g51
NtRp649
(dp650
g54
(dp651
g74
g75
ssg63
g645
sg56
(lp652
g318
asbag49
(g70
g51
NtRp653
(dp654
g54
(dp655
g81
g82
ssg63
g645
sg56
(lp656
S':'
asbag49
(g70
g51
NtRp657
(dp658
g54
(dp659
sg63
g645
sg56
(lp660
g49
(g50
g51
NtRp661
(dp662
g54
(dp663
g62
I3
ssg63
g657
sg56
(lp664
S''
asbasbasbag49
(g65
g51
NtRp665
(dp666
g54
(dp667
sg63
g601
sg56
(lp668
g49
(g70
g51
NtRp669
(dp670
g54
(dp671
g74
g75
ssg63
g665
sg56
(lp672
g339
asbag49
(g70
g51
NtRp673
(dp674
g54
(dp675
g81
g82
ssg63
g665
sg56
(lp676
S':'
asbag49
(g70
g51
NtRp677
(dp678
g54
(dp679
sg63
g665
sg56
(lp680
g49
(g50
g51
NtRp681
(dp682
g54
(dp683
g62
I3
ssg63
g677
sg56
(lp684
S''
asbasbasbag49
(g65
g51
NtRp685
(dp686
g54
(dp687
sg63
g601
sg56
(lp688
g49
(g70
g51
NtRp689
(dp690
g54
(dp691
g74
g75
ssg63
g685
sg56
(lp692
g360
asbag49
(g70
g51
NtRp693
(dp694
g54
(dp695
g81
g82
ssg63
g685
sg56
(lp696
S':'
asbag49
(g70
g51
NtRp697
(dp698
g54
(dp699
sg63
g685
sg56
(lp700
g49
(g50
g51
NtRp701
(dp702
g54
(dp703
g62
I3
ssg63
g697
sg56
(lp704
S''
asbasbasbag49
(g65
g51
NtRp705
(dp706
g54
(dp707
sg63
g601
sg56
(lp708
g49
(g70
g51
NtRp709
(dp710
g54
(dp711
g74
g75
ssg63
g705
sg56
(lp712
g381
asbag49
(g70
g51
NtRp713
(dp714
g54
(dp715
g81
g82
ssg63
g705
sg56
(lp716
S':'
asbag49
(g70
g51
NtRp717
(dp718
g54
(dp719
sg63
g705
sg56
(lp720
g49
(g50
g51
NtRp721
(dp722
g54
(dp723
g62
I3
ssg63
g717
sg56
(lp724
S''
asbasbasbag49
(g65
g51
NtRp725
(dp726
g54
(dp727
sg63
g601
sg56
(lp728
g49
(g70
g51
NtRp729
(dp730
g54
(dp731
g74
g75
ssg63
g725
sg56
(lp732
g402
asbag49
(g70
g51
NtRp733
(dp734
g54
(dp735
g81
g82
ssg63
g725
sg56
(lp736
S':'
asbag49
(g70
g51
NtRp737
(dp738
g54
(dp739
sg63
g725
sg56
(lp740
g49
(g50
g51
NtRp741
(dp742
g54
(dp743
g62
I3
ssg63
g737
sg56
(lp744
S''
asbasbasbasbasbasbasbasbasbasbasbag49
(g65
g51
NtRp745
(dp746
g54
(dp747
sg63
g59
sg56
(lp748
g49
(g70
g51
NtRp749
(dp750
g54
(dp751
g74
g75
ssg63
g745
sg56
(lp752
S'env'
p753
asbag49
(g70
g51
NtRp754
(dp755
g54
(dp756
g81
g82
ssg63
g745
sg56
(lp757
S':'
asbag49
(g70
g51
NtRp758
(dp759
g54
(dp760
sg63
g745
sg56
(lp761
g49
(g50
g51
NtRp762
(dp763
g54
(dp764
g62
I5
ssg63
g758
sg56
(lp765
g49
(g58
g51
NtRp766
(dp767
g54
(dp768
g62
I4
ssg63
Nsg56
(lp769
g49
(g65
g51
NtRp770
(dp771
g54
(dp772
sg63
g766
sg56
(lp773
g49
(g70
g51
NtRp774
(dp775
g54
(dp776
g74
g75
ssg63
g770
sg56
(lp777
S'app_folders'
p778
asbag49
(g70
g51
NtRp779
(dp780
g54
(dp781
g81
g82
ssg63
g770
sg56
(lp782
S':'
asbag49
(g70
g51
NtRp783
(dp784
g54
(dp785
sg63
g770
sg56
(lp786
g49
(g50
g51
NtRp787
(dp788
g54
(dp789
g62
I4
ssg63
g783
sg56
(lp790
S"set(['C:\\\\Users\\\\Osku\\\\koodaus\\\\web2py\\\\applications\\\\sitsit\\\\', 'C:\\\\Users\\\\Osku\\\\koodaus\\\\web2py\\\\applications\\\\welcome\\\\', 'C:\\\\Users\\\\Osku\\\\koodaus\\\\web2py\\\\applications\\\\admin\\\\'])"
p791
asbasbasbag49
(g65
g51
NtRp792
(dp793
g54
(dp794
sg63
g766
sg56
(lp795
g49
(g70
g51
NtRp796
(dp797
g54
(dp798
g74
g75
ssg63
g792
sg56
(lp799
S'applications_parent'
p800
asbag49
(g70
g51
NtRp801
(dp802
g54
(dp803
g81
g82
ssg63
g792
sg56
(lp804
S':'
asbag49
(g70
g51
NtRp805
(dp806
g54
(dp807
sg63
g792
sg56
(lp808
g49
(g50
g51
NtRp809
(dp810
g54
(dp811
g62
I4
ssg63
g805
sg56
(lp812
S'C:\\Users\\Osku\\koodaus\\web2py'
p813
asbasbasbag49
(g65
g51
NtRp814
(dp815
g54
(dp816
sg63
g766
sg56
(lp817
g49
(g70
g51
NtRp818
(dp819
g54
(dp820
g74
g75
ssg63
g814
sg56
(lp821
S'cmd_args'
p822
asbag49
(g70
g51
NtRp823
(dp824
g54
(dp825
g81
g82
ssg63
g814
sg56
(lp826
S':'
asbag49
(g70
g51
NtRp827
(dp828
g54
(dp829
sg63
g814
sg56
(lp830
g49
(g50
g51
NtRp831
(dp832
g54
(dp833
g62
I4
ssg63
g827
sg56
(lp834
g49
(g58
g51
NtRp835
(dp836
g54
(dp837
g62
I3
ssg63
Nsg56
(lp838
sbasbasbasbag49
(g65
g51
NtRp839
(dp840
g54
(dp841
sg63
g766
sg56
(lp842
g49
(g70
g51
NtRp843
(dp844
g54
(dp845
g74
g75
ssg63
g839
sg56
(lp846
S'cmd_options'
p847
asbag49
(g70
g51
NtRp848
(dp849
g54
(dp850
g81
g82
ssg63
g839
sg56
(lp851
S':'
asbag49
(g70
g51
NtRp852
(dp853
g54
(dp854
sg63
g839
sg56
(lp855
g49
(g50
g51
NtRp856
(dp857
g54
(dp858
g62
I4
ssg63
g852
sg56
(lp859
S"<Values at 0x2270030: {'verbose': False, 'ip': '127.0.0.1', 'shutdown_timeout': 5, 'taskbar': False, 'nocron': False, 'pid_filename': 'httpserver.pid', 'maxthreads': None, 'softcron': False, 'server_name': 'Osku-Kannettava', 'bpython': False, 'nogui': False, 'port': 8000, 'extcron': False, 'debuglevel': 30, 'test': None, 'folder': 'C:\\\\Users\\\\Osku\\\\koodaus\\\\web2py', 'config': '', 'import_models': False, 'winservice': '', 'shell': None, 'run': '', 'log_filename': 'httpserver.log', 'args': [''], 'socket_timeout': 5, 'ssl_ca_certificate': None, 'scheduler': None, 'profiler_filename': None, 'ssl_private_key': '', 'password': '<ask>', 'request_queue_size': 5, 'ssl_certificate': '', 'cronjob': False, 'numthreads': None, 'quiet': False, 'interfaces': None, 'minthreads': None, 'timeout': 10, 'plain': False, 'nobanner': False}>"
p860
asbasbasbag49
(g65
g51
NtRp861
(dp862
g54
(dp863
sg63
g766
sg56
(lp864
g49
(g70
g51
NtRp865
(dp866
g54
(dp867
g74
g75
ssg63
g861
sg56
(lp868
S'db_sessions'
p869
asbag49
(g70
g51
NtRp870
(dp871
g54
(dp872
g81
g82
ssg63
g861
sg56
(lp873
S':'
asbag49
(g70
g51
NtRp874
(dp875
g54
(dp876
sg63
g861
sg56
(lp877
g49
(g50
g51
NtRp878
(dp879
g54
(dp880
g62
I4
ssg63
g874
sg56
(lp881
S'set([])'
p882
asbasbasbag49
(g65
g51
NtRp883
(dp884
g54
(dp885
sg63
g766
sg56
(lp886
g49
(g70
g51
NtRp887
(dp888
g54
(dp889
g74
g75
ssg63
g883
sg56
(lp890
S'debugging'
p891
asbag49
(g70
g51
NtRp892
(dp893
g54
(dp894
g81
g82
ssg63
g883
sg56
(lp895
S':'
asbag49
(g70
g51
NtRp896
(dp897
g54
(dp898
sg63
g883
sg56
(lp899
g49
(g50
g51
NtRp900
(dp901
g54
(dp902
g62
I4
ssg63
g896
sg56
(lp903
S'False'
p904
asbasbasbag49
(g65
g51
NtRp905
(dp906
g54
(dp907
sg63
g766
sg56
(lp908
g49
(g70
g51
NtRp909
(dp910
g54
(dp911
g74
g75
ssg63
g905
sg56
(lp912
S'gluon_parent'
p913
asbag49
(g70
g51
NtRp914
(dp915
g54
(dp916
g81
g82
ssg63
g905
sg56
(lp917
S':'
asbag49
(g70
g51
NtRp918
(dp919
g54
(dp920
sg63
g905
sg56
(lp921
g49
(g50
g51
NtRp922
(dp923
g54
(dp924
g62
I4
ssg63
g918
sg56
(lp925
S'C:\\Users\\Osku\\koodaus\\web2py'
p926
asbasbasbag49
(g65
g51
NtRp927
(dp928
g54
(dp929
sg63
g766
sg56
(lp930
g49
(g70
g51
NtRp931
(dp932
g54
(dp933
g74
g75
ssg63
g927
sg56
(lp934
S'http_accept'
p935
asbag49
(g70
g51
NtRp936
(dp937
g54
(dp938
g81
g82
ssg63
g927
sg56
(lp939
S':'
asbag49
(g70
g51
NtRp940
(dp941
g54
(dp942
sg63
g927
sg56
(lp943
g49
(g50
g51
NtRp944
(dp945
g54
(dp946
g62
I4
ssg63
g940
sg56
(lp947
S'*/*'
p948
asbasbasbag49
(g65
g51
NtRp949
(dp950
g54
(dp951
sg63
g766
sg56
(lp952
g49
(g70
g51
NtRp953
(dp954
g54
(dp955
g74
g75
ssg63
g949
sg56
(lp956
S'http_accept_charset'
p957
asbag49
(g70
g51
NtRp958
(dp959
g54
(dp960
g81
g82
ssg63
g949
sg56
(lp961
S':'
asbag49
(g70
g51
NtRp962
(dp963
g54
(dp964
sg63
g949
sg56
(lp965
g49
(g50
g51
NtRp966
(dp967
g54
(dp968
g62
I4
ssg63
g962
sg56
(lp969
S'ISO-8859-1,utf-8;q=0.7,*;q=0.3'
p970
asbasbasbag49
(g65
g51
NtRp971
(dp972
g54
(dp973
sg63
g766
sg56
(lp974
g49
(g70
g51
NtRp975
(dp976
g54
(dp977
g74
g75
ssg63
g971
sg56
(lp978
S'http_accept_encoding'
p979
asbag49
(g70
g51
NtRp980
(dp981
g54
(dp982
g81
g82
ssg63
g971
sg56
(lp983
S':'
asbag49
(g70
g51
NtRp984
(dp985
g54
(dp986
sg63
g971
sg56
(lp987
g49
(g50
g51
NtRp988
(dp989
g54
(dp990
g62
I4
ssg63
g984
sg56
(lp991
S'gzip,deflate,sdch'
p992
asbasbasbag49
(g65
g51
NtRp993
(dp994
g54
(dp995
sg63
g766
sg56
(lp996
g49
(g70
g51
NtRp997
(dp998
g54
(dp999
g74
g75
ssg63
g993
sg56
(lp1000
S'http_accept_language'
p1001
asbag49
(g70
g51
NtRp1002
(dp1003
g54
(dp1004
g81
g82
ssg63
g993
sg56
(lp1005
S':'
asbag49
(g70
g51
NtRp1006
(dp1007
g54
(dp1008
sg63
g993
sg56
(lp1009
g49
(g50
g51
NtRp1010
(dp1011
g54
(dp1012
g62
I4
ssg63
g1006
sg56
(lp1013
S'en-GB,en-US;q=0.8,en;q=0.6,fi;q=0.4'
p1014
asbasbasbag49
(g65
g51
NtRp1015
(dp1016
g54
(dp1017
sg63
g766
sg56
(lp1018
g49
(g70
g51
NtRp1019
(dp1020
g54
(dp1021
g74
g75
ssg63
g1015
sg56
(lp1022
S'http_connection'
p1023
asbag49
(g70
g51
NtRp1024
(dp1025
g54
(dp1026
g81
g82
ssg63
g1015
sg56
(lp1027
S':'
asbag49
(g70
g51
NtRp1028
(dp1029
g54
(dp1030
sg63
g1015
sg56
(lp1031
g49
(g50
g51
NtRp1032
(dp1033
g54
(dp1034
g62
I4
ssg63
g1028
sg56
(lp1035
S'keep-alive'
p1036
asbasbasbag49
(g65
g51
NtRp1037
(dp1038
g54
(dp1039
sg63
g766
sg56
(lp1040
g49
(g70
g51
NtRp1041
(dp1042
g54
(dp1043
g74
g75
ssg63
g1037
sg56
(lp1044
S'http_cookie'
p1045
asbag49
(g70
g51
NtRp1046
(dp1047
g54
(dp1048
g81
g82
ssg63
g1037
sg56
(lp1049
S':'
asbag49
(g70
g51
NtRp1050
(dp1051
g54
(dp1052
sg63
g1037
sg56
(lp1053
g49
(g50
g51
NtRp1054
(dp1055
g54
(dp1056
g62
I4
ssg63
g1050
sg56
(lp1057
S'session_id_welcome=127.0.0.1-731960a1-ea7c-4af8-ac49-7798aa234dcd; session_id_admin=127.0.0.1-941ea7a4-a42e-46de-bdfb-3dd29fbb7e62; session_id_sitsit=127.0.0.1-ec2284ba-32fe-4a19-9a6f-e97c370381b5'
p1058
asbasbasbag49
(g65
g51
NtRp1059
(dp1060
g54
(dp1061
sg63
g766
sg56
(lp1062
g49
(g70
g51
NtRp1063
(dp1064
g54
(dp1065
g74
g75
ssg63
g1059
sg56
(lp1066
S'http_host'
p1067
asbag49
(g70
g51
NtRp1068
(dp1069
g54
(dp1070
g81
g82
ssg63
g1059
sg56
(lp1071
S':'
asbag49
(g70
g51
NtRp1072
(dp1073
g54
(dp1074
sg63
g1059
sg56
(lp1075
g49
(g50
g51
NtRp1076
(dp1077
g54
(dp1078
g62
I4
ssg63
g1072
sg56
(lp1079
S'127.0.0.1:8000'
p1080
asbasbasbag49
(g65
g51
NtRp1081
(dp1082
g54
(dp1083
sg63
g766
sg56
(lp1084
g49
(g70
g51
NtRp1085
(dp1086
g54
(dp1087
g74
g75
ssg63
g1081
sg56
(lp1088
S'http_referer'
p1089
asbag49
(g70
g51
NtRp1090
(dp1091
g54
(dp1092
g81
g82
ssg63
g1081
sg56
(lp1093
S':'
asbag49
(g70
g51
NtRp1094
(dp1095
g54
(dp1096
sg63
g1081
sg56
(lp1097
g49
(g50
g51
NtRp1098
(dp1099
g54
(dp1100
g62
I4
ssg63
g1094
sg56
(lp1101
S'http://127.0.0.1:8000/sitsit/default/sitsit/1'
p1102
asbasbasbag49
(g65
g51
NtRp1103
(dp1104
g54
(dp1105
sg63
g766
sg56
(lp1106
g49
(g70
g51
NtRp1107
(dp1108
g54
(dp1109
g74
g75
ssg63
g1103
sg56
(lp1110
S'http_user_agent'
p1111
asbag49
(g70
g51
NtRp1112
(dp1113
g54
(dp1114
g81
g82
ssg63
g1103
sg56
(lp1115
S':'
asbag49
(g70
g51
NtRp1116
(dp1117
g54
(dp1118
sg63
g1103
sg56
(lp1119
g49
(g50
g51
NtRp1120
(dp1121
g54
(dp1122
g62
I4
ssg63
g1116
sg56
(lp1123
S'Mozilla/5.0 (Windows NT 6.1) AppleWebKit/536.11 (KHTML, like Gecko) Chrome/20.0.1132.47 Safari/536.11'
p1124
asbasbasbag49
(g65
g51
NtRp1125
(dp1126
g54
(dp1127
sg63
g766
sg56
(lp1128
g49
(g70
g51
NtRp1129
(dp1130
g54
(dp1131
g74
g75
ssg63
g1125
sg56
(lp1132
S'http_x_requested_with'
p1133
asbag49
(g70
g51
NtRp1134
(dp1135
g54
(dp1136
g81
g82
ssg63
g1125
sg56
(lp1137
S':'
asbag49
(g70
g51
NtRp1138
(dp1139
g54
(dp1140
sg63
g1125
sg56
(lp1141
g49
(g50
g51
NtRp1142
(dp1143
g54
(dp1144
g62
I4
ssg63
g1138
sg56
(lp1145
S'XMLHttpRequest'
p1146
asbasbasbag49
(g65
g51
NtRp1147
(dp1148
g54
(dp1149
sg63
g766
sg56
(lp1150
g49
(g70
g51
NtRp1151
(dp1152
g54
(dp1153
g74
g75
ssg63
g1147
sg56
(lp1154
S'is_jython'
p1155
asbag49
(g70
g51
NtRp1156
(dp1157
g54
(dp1158
g81
g82
ssg63
g1147
sg56
(lp1159
S':'
asbag49
(g70
g51
NtRp1160
(dp1161
g54
(dp1162
sg63
g1147
sg56
(lp1163
g49
(g50
g51
NtRp1164
(dp1165
g54
(dp1166
g62
I4
ssg63
g1160
sg56
(lp1167
g904
asbasbasbag49
(g65
g51
NtRp1168
(dp1169
g54
(dp1170
sg63
g766
sg56
(lp1171
g49
(g70
g51
NtRp1172
(dp1173
g54
(dp1174
g74
g75
ssg63
g1168
sg56
(lp1175
S'is_pypy'
p1176
asbag49
(g70
g51
NtRp1177
(dp1178
g54
(dp1179
g81
g82
ssg63
g1168
sg56
(lp1180
S':'
asbag49
(g70
g51
NtRp1181
(dp1182
g54
(dp1183
sg63
g1168
sg56
(lp1184
g49
(g50
g51
NtRp1185
(dp1186
g54
(dp1187
g62
I4
ssg63
g1181
sg56
(lp1188
g904
asbasbasbag49
(g65
g51
NtRp1189
(dp1190
g54
(dp1191
sg63
g766
sg56
(lp1192
g49
(g70
g51
NtRp1193
(dp1194
g54
(dp1195
g74
g75
ssg63
g1189
sg56
(lp1196
S'path_info'
p1197
asbag49
(g70
g51
NtRp1198
(dp1199
g54
(dp1200
g81
g82
ssg63
g1189
sg56
(lp1201
S':'
asbag49
(g70
g51
NtRp1202
(dp1203
g54
(dp1204
sg63
g1189
sg56
(lp1205
g49
(g50
g51
NtRp1206
(dp1207
g54
(dp1208
g62
I4
ssg63
g1202
sg56
(lp1209
S'/sitsit/default/sitsit/echo'
p1210
asbasbasbag49
(g65
g51
NtRp1211
(dp1212
g54
(dp1213
sg63
g766
sg56
(lp1214
g49
(g70
g51
NtRp1215
(dp1216
g54
(dp1217
g74
g75
ssg63
g1211
sg56
(lp1218
S'query_string'
p1219
asbag49
(g70
g51
NtRp1220
(dp1221
g54
(dp1222
g81
g82
ssg63
g1211
sg56
(lp1223
S':'
asbag49
(g70
g51
NtRp1224
(dp1225
g54
(dp1226
sg63
g1211
sg56
(lp1227
g49
(g50
g51
NtRp1228
(dp1229
g54
(dp1230
g62
I4
ssg63
g1224
sg56
(lp1231
S''
asbasbasbag49
(g65
g51
NtRp1232
(dp1233
g54
(dp1234
sg63
g766
sg56
(lp1235
g49
(g70
g51
NtRp1236
(dp1237
g54
(dp1238
g74
g75
ssg63
g1232
sg56
(lp1239
S'remote_addr'
p1240
asbag49
(g70
g51
NtRp1241
(dp1242
g54
(dp1243
g81
g82
ssg63
g1232
sg56
(lp1244
S':'
asbag49
(g70
g51
NtRp1245
(dp1246
g54
(dp1247
sg63
g1232
sg56
(lp1248
g49
(g50
g51
NtRp1249
(dp1250
g54
(dp1251
g62
I4
ssg63
g1245
sg56
(lp1252
g195
asbasbasbag49
(g65
g51
NtRp1253
(dp1254
g54
(dp1255
sg63
g766
sg56
(lp1256
g49
(g70
g51
NtRp1257
(dp1258
g54
(dp1259
g74
g75
ssg63
g1253
sg56
(lp1260
S'remote_port'
p1261
asbag49
(g70
g51
NtRp1262
(dp1263
g54
(dp1264
g81
g82
ssg63
g1253
sg56
(lp1265
S':'
asbag49
(g70
g51
NtRp1266
(dp1267
g54
(dp1268
sg63
g1253
sg56
(lp1269
g49
(g50
g51
NtRp1270
(dp1271
g54
(dp1272
g62
I4
ssg63
g1266
sg56
(lp1273
S'58198'
p1274
asbasbasbag49
(g65
g51
NtRp1275
(dp1276
g54
(dp1277
sg63
g766
sg56
(lp1278
g49
(g70
g51
NtRp1279
(dp1280
g54
(dp1281
g74
g75
ssg63
g1275
sg56
(lp1282
S'request_method'
p1283
asbag49
(g70
g51
NtRp1284
(dp1285
g54
(dp1286
g81
g82
ssg63
g1275
sg56
(lp1287
S':'
asbag49
(g70
g51
NtRp1288
(dp1289
g54
(dp1290
sg63
g1275
sg56
(lp1291
g49
(g50
g51
NtRp1292
(dp1293
g54
(dp1294
g62
I4
ssg63
g1288
sg56
(lp1295
S'GET'
p1296
asbasbasbag49
(g65
g51
NtRp1297
(dp1298
g54
(dp1299
sg63
g766
sg56
(lp1300
g49
(g70
g51
NtRp1301
(dp1302
g54
(dp1303
g74
g75
ssg63
g1297
sg56
(lp1304
S'script_name'
p1305
asbag49
(g70
g51
NtRp1306
(dp1307
g54
(dp1308
g81
g82
ssg63
g1297
sg56
(lp1309
S':'
asbag49
(g70
g51
NtRp1310
(dp1311
g54
(dp1312
sg63
g1297
sg56
(lp1313
g49
(g50
g51
NtRp1314
(dp1315
g54
(dp1316
g62
I4
ssg63
g1310
sg56
(lp1317
S''
asbasbasbag49
(g65
g51
NtRp1318
(dp1319
g54
(dp1320
sg63
g766
sg56
(lp1321
g49
(g70
g51
NtRp1322
(dp1323
g54
(dp1324
g74
g75
ssg63
g1318
sg56
(lp1325
S'server_name'
p1326
asbag49
(g70
g51
NtRp1327
(dp1328
g54
(dp1329
g81
g82
ssg63
g1318
sg56
(lp1330
S':'
asbag49
(g70
g51
NtRp1331
(dp1332
g54
(dp1333
sg63
g1318
sg56
(lp1334
g49
(g50
g51
NtRp1335
(dp1336
g54
(dp1337
g62
I4
ssg63
g1331
sg56
(lp1338
S'Osku-Kannettava'
p1339
asbasbasbag49
(g65
g51
NtRp1340
(dp1341
g54
(dp1342
sg63
g766
sg56
(lp1343
g49
(g70
g51
NtRp1344
(dp1345
g54
(dp1346
g74
g75
ssg63
g1340
sg56
(lp1347
S'server_port'
p1348
asbag49
(g70
g51
NtRp1349
(dp1350
g54
(dp1351
g81
g82
ssg63
g1340
sg56
(lp1352
S':'
asbag49
(g70
g51
NtRp1353
(dp1354
g54
(dp1355
sg63
g1340
sg56
(lp1356
g49
(g50
g51
NtRp1357
(dp1358
g54
(dp1359
g62
I4
ssg63
g1353
sg56
(lp1360
S'8000'
p1361
asbasbasbag49
(g65
g51
NtRp1362
(dp1363
g54
(dp1364
sg63
g766
sg56
(lp1365
g49
(g70
g51
NtRp1366
(dp1367
g54
(dp1368
g74
g75
ssg63
g1362
sg56
(lp1369
S'server_protocol'
p1370
asbag49
(g70
g51
NtRp1371
(dp1372
g54
(dp1373
g81
g82
ssg63
g1362
sg56
(lp1374
S':'
asbag49
(g70
g51
NtRp1375
(dp1376
g54
(dp1377
sg63
g1362
sg56
(lp1378
g49
(g50
g51
NtRp1379
(dp1380
g54
(dp1381
g62
I4
ssg63
g1375
sg56
(lp1382
S'HTTP/1.1'
p1383
asbasbasbag49
(g65
g51
NtRp1384
(dp1385
g54
(dp1386
sg63
g766
sg56
(lp1387
g49
(g70
g51
NtRp1388
(dp1389
g54
(dp1390
g74
g75
ssg63
g1384
sg56
(lp1391
S'server_software'
p1392
asbag49
(g70
g51
NtRp1393
(dp1394
g54
(dp1395
g81
g82
ssg63
g1384
sg56
(lp1396
S':'
asbag49
(g70
g51
NtRp1397
(dp1398
g54
(dp1399
sg63
g1384
sg56
(lp1400
g49
(g50
g51
NtRp1401
(dp1402
g54
(dp1403
g62
I4
ssg63
g1397
sg56
(lp1404
S'Rocket 1.2.4'
p1405
asbasbasbag49
(g65
g51
NtRp1406
(dp1407
g54
(dp1408
sg63
g766
sg56
(lp1409
g49
(g70
g51
NtRp1410
(dp1411
g54
(dp1412
g74
g75
ssg63
g1406
sg56
(lp1413
S'web2py_crontype'
p1414
asbag49
(g70
g51
NtRp1415
(dp1416
g54
(dp1417
g81
g82
ssg63
g1406
sg56
(lp1418
S':'
asbag49
(g70
g51
NtRp1419
(dp1420
g54
(dp1421
sg63
g1406
sg56
(lp1422
g49
(g50
g51
NtRp1423
(dp1424
g54
(dp1425
g62
I4
ssg63
g1419
sg56
(lp1426
S'hard'
p1427
asbasbasbag49
(g65
g51
NtRp1428
(dp1429
g54
(dp1430
sg63
g766
sg56
(lp1431
g49
(g70
g51
NtRp1432
(dp1433
g54
(dp1434
g74
g75
ssg63
g1428
sg56
(lp1435
S'web2py_path'
p1436
asbag49
(g70
g51
NtRp1437
(dp1438
g54
(dp1439
g81
g82
ssg63
g1428
sg56
(lp1440
S':'
asbag49
(g70
g51
NtRp1441
(dp1442
g54
(dp1443
sg63
g1428
sg56
(lp1444
g49
(g50
g51
NtRp1445
(dp1446
g54
(dp1447
g62
I4
ssg63
g1441
sg56
(lp1448
g813
asbasbasbag49
(g65
g51
NtRp1449
(dp1450
g54
(dp1451
sg63
g766
sg56
(lp1452
g49
(g70
g51
NtRp1453
(dp1454
g54
(dp1455
g74
g75
ssg63
g1449
sg56
(lp1456
S'web2py_version'
p1457
asbag49
(g70
g51
NtRp1458
(dp1459
g54
(dp1460
g81
g82
ssg63
g1449
sg56
(lp1461
S':'
asbag49
(g70
g51
NtRp1462
(dp1463
g54
(dp1464
sg63
g1449
sg56
(lp1465
g49
(g50
g51
NtRp1466
(dp1467
g54
(dp1468
g62
I4
ssg63
g1462
sg56
(lp1469
g49
(g58
g51
NtRp1470
(dp1471
g54
(dp1472
g62
I3
ssg63
Nsg56
(lp1473
g49
(g65
g51
NtRp1474
(dp1475
g54
(dp1476
sg63
g1470
sg56
(lp1477
g49
(g70
g51
NtRp1478
(dp1479
g54
(dp1480
sg63
g1474
sg56
(lp1481
g49
(g50
g51
NtRp1482
(dp1483
g54
(dp1484
g62
I3
ssg63
g1478
sg56
(lp1485
S'1'
asbasbasbag49
(g65
g51
NtRp1486
(dp1487
g54
(dp1488
sg63
g1470
sg56
(lp1489
g49
(g70
g51
NtRp1490
(dp1491
g54
(dp1492
sg63
g1486
sg56
(lp1493
g49
(g50
g51
NtRp1494
(dp1495
g54
(dp1496
g62
I3
ssg63
g1490
sg56
(lp1497
S'99'
p1498
asbasbasbag49
(g65
g51
NtRp1499
(dp1500
g54
(dp1501
sg63
g1470
sg56
(lp1502
g49
(g70
g51
NtRp1503
(dp1504
g54
(dp1505
sg63
g1499
sg56
(lp1506
g49
(g50
g51
NtRp1507
(dp1508
g54
(dp1509
g62
I3
ssg63
g1503
sg56
(lp1510
S'7'
asbasbasbag49
(g65
g51
NtRp1511
(dp1512
g54
(dp1513
sg63
g1470
sg56
(lp1514
g49
(g70
g51
NtRp1515
(dp1516
g54
(dp1517
sg63
g1511
sg56
(lp1518
g49
(g50
g51
NtRp1519
(dp1520
g54
(dp1521
g62
I3
ssg63
g1515
sg56
(lp1522
S'datetime.datetime(2012, 3, 4, 22, 12, 8)'
p1523
asbasbasbag49
(g65
g51
NtRp1524
(dp1525
g54
(dp1526
sg63
g1470
sg56
(lp1527
g49
(g70
g51
NtRp1528
(dp1529
g54
(dp1530
sg63
g1524
sg56
(lp1531
g49
(g50
g51
NtRp1532
(dp1533
g54
(dp1534
g62
I3
ssg63
g1528
sg56
(lp1535
S'stable'
p1536
asbasbasbasbasbasbasbag49
(g65
g51
NtRp1537
(dp1538
g54
(dp1539
sg63
g766
sg56
(lp1540
g49
(g70
g51
NtRp1541
(dp1542
g54
(dp1543
g74
g75
ssg63
g1537
sg56
(lp1544
S'wsgi_errors'
p1545
asbag49
(g70
g51
NtRp1546
(dp1547
g54
(dp1548
g81
g82
ssg63
g1537
sg56
(lp1549
S':'
asbag49
(g70
g51
NtRp1550
(dp1551
g54
(dp1552
sg63
g1537
sg56
(lp1553
g49
(g50
g51
NtRp1554
(dp1555
g54
(dp1556
g62
I4
ssg63
g1550
sg56
(lp1557
S"<open file '<stderr>', mode 'w' at 0x014F00B0>"
p1558
asbasbasbag49
(g65
g51
NtRp1559
(dp1560
g54
(dp1561
sg63
g766
sg56
(lp1562
g49
(g70
g51
NtRp1563
(dp1564
g54
(dp1565
g74
g75
ssg63
g1559
sg56
(lp1566
S'wsgi_file_wrapper'
p1567
asbag49
(g70
g51
NtRp1568
(dp1569
g54
(dp1570
g81
g82
ssg63
g1559
sg56
(lp1571
S':'
asbag49
(g70
g51
NtRp1572
(dp1573
g54
(dp1574
sg63
g1559
sg56
(lp1575
g49
(g50
g51
NtRp1576
(dp1577
g54
(dp1578
g62
I4
ssg63
g1572
sg56
(lp1579
S'<class wsgiref.util.FileWrapper at 0x020041E0>'
p1580
asbasbasbag49
(g65
g51
NtRp1581
(dp1582
g54
(dp1583
sg63
g766
sg56
(lp1584
g49
(g70
g51
NtRp1585
(dp1586
g54
(dp1587
g74
g75
ssg63
g1581
sg56
(lp1588
S'wsgi_input'
p1589
asbag49
(g70
g51
NtRp1590
(dp1591
g54
(dp1592
g81
g82
ssg63
g1581
sg56
(lp1593
S':'
asbag49
(g70
g51
NtRp1594
(dp1595
g54
(dp1596
sg63
g1581
sg56
(lp1597
g49
(g50
g51
NtRp1598
(dp1599
g54
(dp1600
g62
I4
ssg63
g1594
sg56
(lp1601
S'<socket._fileobject object at 0x024589B0>'
p1602
asbasbasbag49
(g65
g51
NtRp1603
(dp1604
g54
(dp1605
sg63
g766
sg56
(lp1606
g49
(g70
g51
NtRp1607
(dp1608
g54
(dp1609
g74
g75
ssg63
g1603
sg56
(lp1610
S'wsgi_multiprocess'
p1611
asbag49
(g70
g51
NtRp1612
(dp1613
g54
(dp1614
g81
g82
ssg63
g1603
sg56
(lp1615
S':'
asbag49
(g70
g51
NtRp1616
(dp1617
g54
(dp1618
sg63
g1603
sg56
(lp1619
g49
(g50
g51
NtRp1620
(dp1621
g54
(dp1622
g62
I4
ssg63
g1616
sg56
(lp1623
g904
asbasbasbag49
(g65
g51
NtRp1624
(dp1625
g54
(dp1626
sg63
g766
sg56
(lp1627
g49
(g70
g51
NtRp1628
(dp1629
g54
(dp1630
g74
g75
ssg63
g1624
sg56
(lp1631
S'wsgi_multithread'
p1632
asbag49
(g70
g51
NtRp1633
(dp1634
g54
(dp1635
g81
g82
ssg63
g1624
sg56
(lp1636
S':'
asbag49
(g70
g51
NtRp1637
(dp1638
g54
(dp1639
sg63
g1624
sg56
(lp1640
g49
(g50
g51
NtRp1641
(dp1642
g54
(dp1643
g62
I4
ssg63
g1637
sg56
(lp1644
g92
asbasbasbag49
(g65
g51
NtRp1645
(dp1646
g54
(dp1647
sg63
g766
sg56
(lp1648
g49
(g70
g51
NtRp1649
(dp1650
g54
(dp1651
g74
g75
ssg63
g1645
sg56
(lp1652
S'wsgi_run_once'
p1653
asbag49
(g70
g51
NtRp1654
(dp1655
g54
(dp1656
g81
g82
ssg63
g1645
sg56
(lp1657
S':'
asbag49
(g70
g51
NtRp1658
(dp1659
g54
(dp1660
sg63
g1645
sg56
(lp1661
g49
(g50
g51
NtRp1662
(dp1663
g54
(dp1664
g62
I4
ssg63
g1658
sg56
(lp1665
g904
asbasbasbag49
(g65
g51
NtRp1666
(dp1667
g54
(dp1668
sg63
g766
sg56
(lp1669
g49
(g70
g51
NtRp1670
(dp1671
g54
(dp1672
g74
g75
ssg63
g1666
sg56
(lp1673
S'wsgi_url_scheme'
p1674
asbag49
(g70
g51
NtRp1675
(dp1676
g54
(dp1677
g81
g82
ssg63
g1666
sg56
(lp1678
S':'
asbag49
(g70
g51
NtRp1679
(dp1680
g54
(dp1681
sg63
g1666
sg56
(lp1682
g49
(g50
g51
NtRp1683
(dp1684
g54
(dp1685
g62
I4
ssg63
g1679
sg56
(lp1686
S'http'
p1687
asbasbasbag49
(g65
g51
NtRp1688
(dp1689
g54
(dp1690
sg63
g766
sg56
(lp1691
g49
(g70
g51
NtRp1692
(dp1693
g54
(dp1694
g74
g75
ssg63
g1688
sg56
(lp1695
S'wsgi_version'
p1696
asbag49
(g70
g51
NtRp1697
(dp1698
g54
(dp1699
g81
g82
ssg63
g1688
sg56
(lp1700
S':'
asbag49
(g70
g51
NtRp1701
(dp1702
g54
(dp1703
sg63
g1688
sg56
(lp1704
g49
(g50
g51
NtRp1705
(dp1706
g54
(dp1707
g62
I4
ssg63
g1701
sg56
(lp1708
g49
(g58
g51
NtRp1709
(dp1710
g54
(dp1711
g62
I3
ssg63
Nsg56
(lp1712
g49
(g65
g51
NtRp1713
(dp1714
g54
(dp1715
sg63
g1709
sg56
(lp1716
g49
(g70
g51
NtRp1717
(dp1718
g54
(dp1719
sg63
g1713
sg56
(lp1720
g49
(g50
g51
NtRp1721
(dp1722
g54
(dp1723
g62
I3
ssg63
g1717
sg56
(lp1724
S'1'
asbasbasbag49
(g65
g51
NtRp1725
(dp1726
g54
(dp1727
sg63
g1709
sg56
(lp1728
g49
(g70
g51
NtRp1729
(dp1730
g54
(dp1731
sg63
g1725
sg56
(lp1732
g49
(g50
g51
NtRp1733
(dp1734
g54
(dp1735
g62
I3
ssg63
g1729
sg56
(lp1736
S'0'
asbasbasbasbasbasbasbasbasbasbasbag49
(g65
g51
NtRp1737
(dp1738
g54
(dp1739
sg63
g59
sg56
(lp1740
g49
(g70
g51
NtRp1741
(dp1742
g54
(dp1743
g74
g75
ssg63
g1737
sg56
(lp1744
S'extension'
p1745
asbag49
(g70
g51
NtRp1746
(dp1747
g54
(dp1748
g81
g82
ssg63
g1737
sg56
(lp1749
S':'
asbag49
(g70
g51
NtRp1750
(dp1751
g54
(dp1752
sg63
g1737
sg56
(lp1753
g49
(g50
g51
NtRp1754
(dp1755
g54
(dp1756
g62
I5
ssg63
g1750
sg56
(lp1757
S'html'
p1758
asbasbasbag49
(g65
g51
NtRp1759
(dp1760
g54
(dp1761
sg63
g59
sg56
(lp1762
g49
(g70
g51
NtRp1763
(dp1764
g54
(dp1765
g74
g75
ssg63
g1759
sg56
(lp1766
S'folder'
p1767
asbag49
(g70
g51
NtRp1768
(dp1769
g54
(dp1770
g81
g82
ssg63
g1759
sg56
(lp1771
S':'
asbag49
(g70
g51
NtRp1772
(dp1773
g54
(dp1774
sg63
g1759
sg56
(lp1775
g49
(g50
g51
NtRp1776
(dp1777
g54
(dp1778
g62
I5
ssg63
g1772
sg56
(lp1779
S'C:\\Users\\Osku\\koodaus\\web2py\\applications\\sitsit\\'
p1780
asbasbasbag49
(g65
g51
NtRp1781
(dp1782
g54
(dp1783
sg63
g59
sg56
(lp1784
g49
(g70
g51
NtRp1785
(dp1786
g54
(dp1787
g74
g75
ssg63
g1781
sg56
(lp1788
S'function'
p1789
asbag49
(g70
g51
NtRp1790
(dp1791
g54
(dp1792
g81
g82
ssg63
g1781
sg56
(lp1793
S':'
asbag49
(g70
g51
NtRp1794
(dp1795
g54
(dp1796
sg63
g1781
sg56
(lp1797
g49
(g50
g51
NtRp1798
(dp1799
g54
(dp1800
g62
I5
ssg63
g1794
sg56
(lp1801
S'sitsit'
p1802
asbasbasbag49
(g65
g51
NtRp1803
(dp1804
g54
(dp1805
sg63
g59
sg56
(lp1806
g49
(g70
g51
NtRp1807
(dp1808
g54
(dp1809
g74
g75
ssg63
g1803
sg56
(lp1810
S'get_vars'
p1811
asbag49
(g70
g51
NtRp1812
(dp1813
g54
(dp1814
g81
g82
ssg63
g1803
sg56
(lp1815
S':'
asbag49
(g70
g51
NtRp1816
(dp1817
g54
(dp1818
sg63
g1803
sg56
(lp1819
g49
(g50
g51
NtRp1820
(dp1821
g54
(dp1822
g62
I5
ssg63
g1816
sg56
(lp1823
g49
(g58
g51
NtRp1824
(dp1825
g54
(dp1826
g62
I4
ssg63
Nsg56
(lp1827
sbasbasbasbag49
(g65
g51
NtRp1828
(dp1829
g54
(dp1830
sg63
g59
sg56
(lp1831
g49
(g70
g51
NtRp1832
(dp1833
g54
(dp1834
g74
g75
ssg63
g1828
sg56
(lp1835
S'global_settings'
p1836
asbag49
(g70
g51
NtRp1837
(dp1838
g54
(dp1839
g81
g82
ssg63
g1828
sg56
(lp1840
S':'
asbag49
(g70
g51
NtRp1841
(dp1842
g54
(dp1843
sg63
g1828
sg56
(lp1844
g49
(g50
g51
NtRp1845
(dp1846
g54
(dp1847
g62
I5
ssg63
g1841
sg56
(lp1848
g49
(g58
g51
NtRp1849
(dp1850
g54
(dp1851
g62
I4
ssg63
Nsg56
(lp1852
g49
(g65
g51
NtRp1853
(dp1854
g54
(dp1855
sg63
g1849
sg56
(lp1856
g49
(g70
g51
NtRp1857
(dp1858
g54
(dp1859
g74
g75
ssg63
g1853
sg56
(lp1860
g778
asbag49
(g70
g51
NtRp1861
(dp1862
g54
(dp1863
g81
g82
ssg63
g1853
sg56
(lp1864
S':'
asbag49
(g70
g51
NtRp1865
(dp1866
g54
(dp1867
sg63
g1853
sg56
(lp1868
g49
(g50
g51
NtRp1869
(dp1870
g54
(dp1871
g62
I4
ssg63
g1865
sg56
(lp1872
S"set(['C:\\\\Users\\\\Osku\\\\koodaus\\\\web2py\\\\applications\\\\sitsit\\\\', 'C:\\\\Users\\\\Osku\\\\koodaus\\\\web2py\\\\applications\\\\welcome\\\\', 'C:\\\\Users\\\\Osku\\\\koodaus\\\\web2py\\\\applications\\\\admin\\\\'])"
p1873
asbasbasbag49
(g65
g51
NtRp1874
(dp1875
g54
(dp1876
sg63
g1849
sg56
(lp1877
g49
(g70
g51
NtRp1878
(dp1879
g54
(dp1880
g74
g75
ssg63
g1874
sg56
(lp1881
g800
asbag49
(g70
g51
NtRp1882
(dp1883
g54
(dp1884
g81
g82
ssg63
g1874
sg56
(lp1885
S':'
asbag49
(g70
g51
NtRp1886
(dp1887
g54
(dp1888
sg63
g1874
sg56
(lp1889
g49
(g50
g51
NtRp1890
(dp1891
g54
(dp1892
g62
I4
ssg63
g1886
sg56
(lp1893
g813
asbasbasbag49
(g65
g51
NtRp1894
(dp1895
g54
(dp1896
sg63
g1849
sg56
(lp1897
g49
(g70
g51
NtRp1898
(dp1899
g54
(dp1900
g74
g75
ssg63
g1894
sg56
(lp1901
g822
asbag49
(g70
g51
NtRp1902
(dp1903
g54
(dp1904
g81
g82
ssg63
g1894
sg56
(lp1905
S':'
asbag49
(g70
g51
NtRp1906
(dp1907
g54
(dp1908
sg63
g1894
sg56
(lp1909
g49
(g50
g51
NtRp1910
(dp1911
g54
(dp1912
g62
I4
ssg63
g1906
sg56
(lp1913
g49
(g58
g51
NtRp1914
(dp1915
g54
(dp1916
g62
I3
ssg63
Nsg56
(lp1917
sbasbasbasbag49
(g65
g51
NtRp1918
(dp1919
g54
(dp1920
sg63
g1849
sg56
(lp1921
g49
(g70
g51
NtRp1922
(dp1923
g54
(dp1924
g74
g75
ssg63
g1918
sg56
(lp1925
g847
asbag49
(g70
g51
NtRp1926
(dp1927
g54
(dp1928
g81
g82
ssg63
g1918
sg56
(lp1929
S':'
asbag49
(g70
g51
NtRp1930
(dp1931
g54
(dp1932
sg63
g1918
sg56
(lp1933
g49
(g50
g51
NtRp1934
(dp1935
g54
(dp1936
g62
I4
ssg63
g1930
sg56
(lp1937
S"<Values at 0x2270030: {'verbose': False, 'ip': '127.0.0.1', 'shutdown_timeout': 5, 'taskbar': False, 'nocron': False, 'pid_filename': 'httpserver.pid', 'maxthreads': None, 'softcron': False, 'server_name': 'Osku-Kannettava', 'bpython': False, 'nogui': False, 'port': 8000, 'extcron': False, 'debuglevel': 30, 'test': None, 'folder': 'C:\\\\Users\\\\Osku\\\\koodaus\\\\web2py', 'config': '', 'import_models': False, 'winservice': '', 'shell': None, 'run': '', 'log_filename': 'httpserver.log', 'args': [''], 'socket_timeout': 5, 'ssl_ca_certificate': None, 'scheduler': None, 'profiler_filename': None, 'ssl_private_key': '', 'password': '<ask>', 'request_queue_size': 5, 'ssl_certificate': '', 'cronjob': False, 'numthreads': None, 'quiet': False, 'interfaces': None, 'minthreads': None, 'timeout': 10, 'plain': False, 'nobanner': False}>"
p1938
asbasbasbag49
(g65
g51
NtRp1939
(dp1940
g54
(dp1941
sg63
g1849
sg56
(lp1942
g49
(g70
g51
NtRp1943
(dp1944
g54
(dp1945
g74
g75
ssg63
g1939
sg56
(lp1946
g869
asbag49
(g70
g51
NtRp1947
(dp1948
g54
(dp1949
g81
g82
ssg63
g1939
sg56
(lp1950
S':'
asbag49
(g70
g51
NtRp1951
(dp1952
g54
(dp1953
sg63
g1939
sg56
(lp1954
g49
(g50
g51
NtRp1955
(dp1956
g54
(dp1957
g62
I4
ssg63
g1951
sg56
(lp1958
S'set([])'
p1959
asbasbasbag49
(g65
g51
NtRp1960
(dp1961
g54
(dp1962
sg63
g1849
sg56
(lp1963
g49
(g70
g51
NtRp1964
(dp1965
g54
(dp1966
g74
g75
ssg63
g1960
sg56
(lp1967
g891
asbag49
(g70
g51
NtRp1968
(dp1969
g54
(dp1970
g81
g82
ssg63
g1960
sg56
(lp1971
S':'
asbag49
(g70
g51
NtRp1972
(dp1973
g54
(dp1974
sg63
g1960
sg56
(lp1975
g49
(g50
g51
NtRp1976
(dp1977
g54
(dp1978
g62
I4
ssg63
g1972
sg56
(lp1979
g904
asbasbasbag49
(g65
g51
NtRp1980
(dp1981
g54
(dp1982
sg63
g1849
sg56
(lp1983
g49
(g70
g51
NtRp1984
(dp1985
g54
(dp1986
g74
g75
ssg63
g1980
sg56
(lp1987
g913
asbag49
(g70
g51
NtRp1988
(dp1989
g54
(dp1990
g81
g82
ssg63
g1980
sg56
(lp1991
S':'
asbag49
(g70
g51
NtRp1992
(dp1993
g54
(dp1994
sg63
g1980
sg56
(lp1995
g49
(g50
g51
NtRp1996
(dp1997
g54
(dp1998
g62
I4
ssg63
g1992
sg56
(lp1999
g926
asbasbasbag49
(g65
g51
NtRp2000
(dp2001
g54
(dp2002
sg63
g1849
sg56
(lp2003
g49
(g70
g51
NtRp2004
(dp2005
g54
(dp2006
g74
g75
ssg63
g2000
sg56
(lp2007
g1155
asbag49
(g70
g51
NtRp2008
(dp2009
g54
(dp2010
g81
g82
ssg63
g2000
sg56
(lp2011
S':'
asbag49
(g70
g51
NtRp2012
(dp2013
g54
(dp2014
sg63
g2000
sg56
(lp2015
g49
(g50
g51
NtRp2016
(dp2017
g54
(dp2018
g62
I4
ssg63
g2012
sg56
(lp2019
g904
asbasbasbag49
(g65
g51
NtRp2020
(dp2021
g54
(dp2022
sg63
g1849
sg56
(lp2023
g49
(g70
g51
NtRp2024
(dp2025
g54
(dp2026
g74
g75
ssg63
g2020
sg56
(lp2027
g1176
asbag49
(g70
g51
NtRp2028
(dp2029
g54
(dp2030
g81
g82
ssg63
g2020
sg56
(lp2031
S':'
asbag49
(g70
g51
NtRp2032
(dp2033
g54
(dp2034
sg63
g2020
sg56
(lp2035
g49
(g50
g51
NtRp2036
(dp2037
g54
(dp2038
g62
I4
ssg63
g2032
sg56
(lp2039
g904
asbasbasbag49
(g65
g51
NtRp2040
(dp2041
g54
(dp2042
sg63
g1849
sg56
(lp2043
g49
(g70
g51
NtRp2044
(dp2045
g54
(dp2046
g74
g75
ssg63
g2040
sg56
(lp2047
g1414
asbag49
(g70
g51
NtRp2048
(dp2049
g54
(dp2050
g81
g82
ssg63
g2040
sg56
(lp2051
S':'
asbag49
(g70
g51
NtRp2052
(dp2053
g54
(dp2054
sg63
g2040
sg56
(lp2055
g49
(g50
g51
NtRp2056
(dp2057
g54
(dp2058
g62
I4
ssg63
g2052
sg56
(lp2059
g1427
asbasbasbag49
(g65
g51
NtRp2060
(dp2061
g54
(dp2062
sg63
g1849
sg56
(lp2063
g49
(g70
g51
NtRp2064
(dp2065
g54
(dp2066
g74
g75
ssg63
g2060
sg56
(lp2067
g1457
asbag49
(g70
g51
NtRp2068
(dp2069
g54
(dp2070
g81
g82
ssg63
g2060
sg56
(lp2071
S':'
asbag49
(g70
g51
NtRp2072
(dp2073
g54
(dp2074
sg63
g2060
sg56
(lp2075
g49
(g50
g51
NtRp2076
(dp2077
g54
(dp2078
g62
I4
ssg63
g2072
sg56
(lp2079
g49
(g58
g51
NtRp2080
(dp2081
g54
(dp2082
g62
I3
ssg63
Nsg56
(lp2083
g49
(g65
g51
NtRp2084
(dp2085
g54
(dp2086
sg63
g2080
sg56
(lp2087
g49
(g70
g51
NtRp2088
(dp2089
g54
(dp2090
sg63
g2084
sg56
(lp2091
g49
(g50
g51
NtRp2092
(dp2093
g54
(dp2094
g62
I3
ssg63
g2088
sg56
(lp2095
S'1'
asbasbasbag49
(g65
g51
NtRp2096
(dp2097
g54
(dp2098
sg63
g2080
sg56
(lp2099
g49
(g70
g51
NtRp2100
(dp2101
g54
(dp2102
sg63
g2096
sg56
(lp2103
g49
(g50
g51
NtRp2104
(dp2105
g54
(dp2106
g62
I3
ssg63
g2100
sg56
(lp2107
S'99'
p2108
asbasbasbag49
(g65
g51
NtRp2109
(dp2110
g54
(dp2111
sg63
g2080
sg56
(lp2112
g49
(g70
g51
NtRp2113
(dp2114
g54
(dp2115
sg63
g2109
sg56
(lp2116
g49
(g50
g51
NtRp2117
(dp2118
g54
(dp2119
g62
I3
ssg63
g2113
sg56
(lp2120
S'7'
asbasbasbag49
(g65
g51
NtRp2121
(dp2122
g54
(dp2123
sg63
g2080
sg56
(lp2124
g49
(g70
g51
NtRp2125
(dp2126
g54
(dp2127
sg63
g2121
sg56
(lp2128
g49
(g50
g51
NtRp2129
(dp2130
g54
(dp2131
g62
I3
ssg63
g2125
sg56
(lp2132
S'datetime.datetime(2012, 3, 4, 22, 12, 8)'
p2133
asbasbasbag49
(g65
g51
NtRp2134
(dp2135
g54
(dp2136
sg63
g2080
sg56
(lp2137
g49
(g70
g51
NtRp2138
(dp2139
g54
(dp2140
sg63
g2134
sg56
(lp2141
g49
(g50
g51
NtRp2142
(dp2143
g54
(dp2144
g62
I3
ssg63
g2138
sg56
(lp2145
g1536
asbasbasbasbasbasbasbasbasbasbasbag49
(g65
g51
NtRp2146
(dp2147
g54
(dp2148
sg63
g59
sg56
(lp2149
g49
(g70
g51
NtRp2150
(dp2151
g54
(dp2152
g74
g75
ssg63
g2146
sg56
(lp2153
S'is_https'
p2154
asbag49
(g70
g51
NtRp2155
(dp2156
g54
(dp2157
g81
g82
ssg63
g2146
sg56
(lp2158
S':'
asbag49
(g70
g51
NtRp2159
(dp2160
g54
(dp2161
sg63
g2146
sg56
(lp2162
g49
(g50
g51
NtRp2163
(dp2164
g54
(dp2165
g62
I5
ssg63
g2159
sg56
(lp2166
g904
asbasbasbag49
(g65
g51
NtRp2167
(dp2168
g54
(dp2169
sg63
g59
sg56
(lp2170
g49
(g70
g51
NtRp2171
(dp2172
g54
(dp2173
g74
g75
ssg63
g2167
sg56
(lp2174
S'is_local'
p2175
asbag49
(g70
g51
NtRp2176
(dp2177
g54
(dp2178
g81
g82
ssg63
g2167
sg56
(lp2179
S':'
asbag49
(g70
g51
NtRp2180
(dp2181
g54
(dp2182
sg63
g2167
sg56
(lp2183
g49
(g50
g51
NtRp2184
(dp2185
g54
(dp2186
g62
I5
ssg63
g2180
sg56
(lp2187
g92
asbasbasbag49
(g65
g51
NtRp2188
(dp2189
g54
(dp2190
sg63
g59
sg56
(lp2191
g49
(g70
g51
NtRp2192
(dp2193
g54
(dp2194
g74
g75
ssg63
g2188
sg56
(lp2195
S'is_restful'
p2196
asbag49
(g70
g51
NtRp2197
(dp2198
g54
(dp2199
g81
g82
ssg63
g2188
sg56
(lp2200
S':'
asbag49
(g70
g51
NtRp2201
(dp2202
g54
(dp2203
sg63
g2188
sg56
(lp2204
g49
(g50
g51
NtRp2205
(dp2206
g54
(dp2207
g62
I5
ssg63
g2201
sg56
(lp2208
g904
asbasbasbag49
(g65
g51
NtRp2209
(dp2210
g54
(dp2211
sg63
g59
sg56
(lp2212
g49
(g70
g51
NtRp2213
(dp2214
g54
(dp2215
g74
g75
ssg63
g2209
sg56
(lp2216
S'now'
p2217
asbag49
(g70
g51
NtRp2218
(dp2219
g54
(dp2220
g81
g82
ssg63
g2209
sg56
(lp2221
S':'
asbag49
(g70
g51
NtRp2222
(dp2223
g54
(dp2224
sg63
g2209
sg56
(lp2225
g49
(g50
g51
NtRp2226
(dp2227
g54
(dp2228
g62
I5
ssg63
g2222
sg56
(lp2229
S'datetime.datetime(2012, 7, 6, 23, 45, 52, 639000)'
p2230
asbasbasbag49
(g65
g51
NtRp2231
(dp2232
g54
(dp2233
sg63
g59
sg56
(lp2234
g49
(g70
g51
NtRp2235
(dp2236
g54
(dp2237
g74
g75
ssg63
g2231
sg56
(lp2238
S'post_vars'
p2239
asbag49
(g70
g51
NtRp2240
(dp2241
g54
(dp2242
g81
g82
ssg63
g2231
sg56
(lp2243
S':'
asbag49
(g70
g51
NtRp2244
(dp2245
g54
(dp2246
sg63
g2231
sg56
(lp2247
g49
(g50
g51
NtRp2248
(dp2249
g54
(dp2250
g62
I5
ssg63
g2244
sg56
(lp2251
g49
(g58
g51
NtRp2252
(dp2253
g54
(dp2254
g62
I4
ssg63
Nsg56
(lp2255
sbasbasbasbag49
(g65
g51
NtRp2256
(dp2257
g54
(dp2258
sg63
g59
sg56
(lp2259
g49
(g70
g51
NtRp2260
(dp2261
g54
(dp2262
g74
g75
ssg63
g2256
sg56
(lp2263
S'raw_args'
p2264
asbag49
(g70
g51
NtRp2265
(dp2266
g54
(dp2267
g81
g82
ssg63
g2256
sg56
(lp2268
S':'
asbag49
(g70
g51
NtRp2269
(dp2270
g54
(dp2271
sg63
g2256
sg56
(lp2272
g49
(g50
g51
NtRp2273
(dp2274
g54
(dp2275
g62
I5
ssg63
g2269
sg56
(lp2276
S'echo'
p2277
asbasbasbag49
(g65
g51
NtRp2278
(dp2279
g54
(dp2280
sg63
g59
sg56
(lp2281
g49
(g70
g51
NtRp2282
(dp2283
g54
(dp2284
g74
g75
ssg63
g2278
sg56
(lp2285
S'url'
p2286
asbag49
(g70
g51
NtRp2287
(dp2288
g54
(dp2289
g81
g82
ssg63
g2278
sg56
(lp2290
S':'
asbag49
(g70
g51
NtRp2291
(dp2292
g54
(dp2293
sg63
g2278
sg56
(lp2294
g49
(g50
g51
NtRp2295
(dp2296
g54
(dp2297
g62
I5
ssg63
g2291
sg56
(lp2298
S'/sitsit/default/sitsit/echo'
p2299
asbasbasbag49
(g65
g51
NtRp2300
(dp2301
g54
(dp2302
sg63
g59
sg56
(lp2303
g49
(g70
g51
NtRp2304
(dp2305
g54
(dp2306
g74
g75
ssg63
g2300
sg56
(lp2307
S'utcnow'
p2308
asbag49
(g70
g51
NtRp2309
(dp2310
g54
(dp2311
g81
g82
ssg63
g2300
sg56
(lp2312
S':'
asbag49
(g70
g51
NtRp2313
(dp2314
g54
(dp2315
sg63
g2300
sg56
(lp2316
g49
(g50
g51
NtRp2317
(dp2318
g54
(dp2319
g62
I5
ssg63
g2313
sg56
(lp2320
S'datetime.datetime(2012, 7, 6, 21, 45, 52, 639000)'
p2321
asbasbasbag49
(g65
g51
NtRp2322
(dp2323
g54
(dp2324
sg63
g59
sg56
(lp2325
g49
(g70
g51
NtRp2326
(dp2327
g54
(dp2328
g74
g75
ssg63
g2322
sg56
(lp2329
S'uuid'
p2330
asbag49
(g70
g51
NtRp2331
(dp2332
g54
(dp2333
g81
g82
ssg63
g2322
sg56
(lp2334
S':'
asbag49
(g70
g51
NtRp2335
(dp2336
g54
(dp2337
sg63
g2322
sg56
(lp2338
g49
(g50
g51
NtRp2339
(dp2340
g54
(dp2341
g62
I5
ssg63
g2335
sg56
(lp2342
S'sitsit/127.0.0.1.2012-07-06.23-45-52.64b671c6-b23e-4957-a1ba-61624a18d83b'
p2343
asbasbasbag49
(g65
g51
NtRp2344
(dp2345
g54
(dp2346
sg63
g59
sg56
(lp2347
g49
(g70
g51
NtRp2348
(dp2349
g54
(dp2350
g74
g75
ssg63
g2344
sg56
(lp2351
S'vars'
p2352
asbag49
(g70
g51
NtRp2353
(dp2354
g54
(dp2355
g81
g82
ssg63
g2344
sg56
(lp2356
S':'
asbag49
(g70
g51
NtRp2357
(dp2358
g54
(dp2359
sg63
g2344
sg56
(lp2360
g49
(g50
g51
NtRp2361
(dp2362
g54
(dp2363
g62
I5
ssg63
g2357
sg56
(lp2364
g49
(g58
g51
NtRp2365
(dp2366
g54
(dp2367
g62
I4
ssg63
Nsg56
(lp2368
sbasbasbasbag49
(g65
g51
NtRp2369
(dp2370
g54
(dp2371
sg63
g59
sg56
(lp2372
g49
(g70
g51
NtRp2373
(dp2374
g54
(dp2375
g74
g75
ssg63
g2369
sg56
(lp2376
S'wsgi'
p2377
asbag49
(g70
g51
NtRp2378
(dp2379
g54
(dp2380
g81
g82
ssg63
g2369
sg56
(lp2381
S':'
asbag49
(g70
g51
NtRp2382
(dp2383
g54
(dp2384
sg63
g2369
sg56
(lp2385
g49
(g50
g51
NtRp2386
(dp2387
g54
(dp2388
g62
I5
ssg63
g2382
sg56
(lp2389
g49
(g58
g51
NtRp2390
(dp2391
g54
(dp2392
g62
I4
ssg63
Nsg56
(lp2393
g49
(g65
g51
NtRp2394
(dp2395
g54
(dp2396
sg63
g2390
sg56
(lp2397
g49
(g70
g51
NtRp2398
(dp2399
g54
(dp2400
g74
g75
ssg63
g2394
sg56
(lp2401
S'environ'
p2402
asbag49
(g70
g51
NtRp2403
(dp2404
g54
(dp2405
g81
g82
ssg63
g2394
sg56
(lp2406
S':'
asbag49
(g70
g51
NtRp2407
(dp2408
g54
(dp2409
sg63
g2394
sg56
(lp2410
g49
(g50
g51
NtRp2411
(dp2412
g54
(dp2413
g62
I4
ssg63
g2407
sg56
(lp2414
g49
(g58
g51
NtRp2415
(dp2416
g54
(dp2417
g62
I3
ssg63
Nsg56
(lp2418
g49
(g65
g51
NtRp2419
(dp2420
g54
(dp2421
sg63
g2415
sg56
(lp2422
g49
(g70
g51
NtRp2423
(dp2424
g54
(dp2425
g74
g75
ssg63
g2419
sg56
(lp2426
S'HTTP_ACCEPT'
p2427
asbag49
(g70
g51
NtRp2428
(dp2429
g54
(dp2430
g81
g82
ssg63
g2419
sg56
(lp2431
S':'
asbag49
(g70
g51
NtRp2432
(dp2433
g54
(dp2434
sg63
g2419
sg56
(lp2435
g49
(g50
g51
NtRp2436
(dp2437
g54
(dp2438
g62
I3
ssg63
g2432
sg56
(lp2439
g948
asbasbasbag49
(g65
g51
NtRp2440
(dp2441
g54
(dp2442
sg63
g2415
sg56
(lp2443
g49
(g70
g51
NtRp2444
(dp2445
g54
(dp2446
g74
g75
ssg63
g2440
sg56
(lp2447
S'HTTP_ACCEPT_CHARSET'
p2448
asbag49
(g70
g51
NtRp2449
(dp2450
g54
(dp2451
g81
g82
ssg63
g2440
sg56
(lp2452
S':'
asbag49
(g70
g51
NtRp2453
(dp2454
g54
(dp2455
sg63
g2440
sg56
(lp2456
g49
(g50
g51
NtRp2457
(dp2458
g54
(dp2459
g62
I3
ssg63
g2453
sg56
(lp2460
g970
asbasbasbag49
(g65
g51
NtRp2461
(dp2462
g54
(dp2463
sg63
g2415
sg56
(lp2464
g49
(g70
g51
NtRp2465
(dp2466
g54
(dp2467
g74
g75
ssg63
g2461
sg56
(lp2468
S'HTTP_ACCEPT_ENCODING'
p2469
asbag49
(g70
g51
NtRp2470
(dp2471
g54
(dp2472
g81
g82
ssg63
g2461
sg56
(lp2473
S':'
asbag49
(g70
g51
NtRp2474
(dp2475
g54
(dp2476
sg63
g2461
sg56
(lp2477
g49
(g50
g51
NtRp2478
(dp2479
g54
(dp2480
g62
I3
ssg63
g2474
sg56
(lp2481
g992
asbasbasbag49
(g65
g51
NtRp2482
(dp2483
g54
(dp2484
sg63
g2415
sg56
(lp2485
g49
(g70
g51
NtRp2486
(dp2487
g54
(dp2488
g74
g75
ssg63
g2482
sg56
(lp2489
S'HTTP_ACCEPT_LANGUAGE'
p2490
asbag49
(g70
g51
NtRp2491
(dp2492
g54
(dp2493
g81
g82
ssg63
g2482
sg56
(lp2494
S':'
asbag49
(g70
g51
NtRp2495
(dp2496
g54
(dp2497
sg63
g2482
sg56
(lp2498
g49
(g50
g51
NtRp2499
(dp2500
g54
(dp2501
g62
I3
ssg63
g2495
sg56
(lp2502
g1014
asbasbasbag49
(g65
g51
NtRp2503
(dp2504
g54
(dp2505
sg63
g2415
sg56
(lp2506
g49
(g70
g51
NtRp2507
(dp2508
g54
(dp2509
g74
g75
ssg63
g2503
sg56
(lp2510
S'HTTP_CONNECTION'
p2511
asbag49
(g70
g51
NtRp2512
(dp2513
g54
(dp2514
g81
g82
ssg63
g2503
sg56
(lp2515
S':'
asbag49
(g70
g51
NtRp2516
(dp2517
g54
(dp2518
sg63
g2503
sg56
(lp2519
g49
(g50
g51
NtRp2520
(dp2521
g54
(dp2522
g62
I3
ssg63
g2516
sg56
(lp2523
g1036
asbasbasbag49
(g65
g51
NtRp2524
(dp2525
g54
(dp2526
sg63
g2415
sg56
(lp2527
g49
(g70
g51
NtRp2528
(dp2529
g54
(dp2530
g74
g75
ssg63
g2524
sg56
(lp2531
S'HTTP_COOKIE'
p2532
asbag49
(g70
g51
NtRp2533
(dp2534
g54
(dp2535
g81
g82
ssg63
g2524
sg56
(lp2536
S':'
asbag49
(g70
g51
NtRp2537
(dp2538
g54
(dp2539
sg63
g2524
sg56
(lp2540
g49
(g50
g51
NtRp2541
(dp2542
g54
(dp2543
g62
I3
ssg63
g2537
sg56
(lp2544
g1058
asbasbasbag49
(g65
g51
NtRp2545
(dp2546
g54
(dp2547
sg63
g2415
sg56
(lp2548
g49
(g70
g51
NtRp2549
(dp2550
g54
(dp2551
g74
g75
ssg63
g2545
sg56
(lp2552
S'HTTP_HOST'
p2553
asbag49
(g70
g51
NtRp2554
(dp2555
g54
(dp2556
g81
g82
ssg63
g2545
sg56
(lp2557
S':'
asbag49
(g70
g51
NtRp2558
(dp2559
g54
(dp2560
sg63
g2545
sg56
(lp2561
g49
(g50
g51
NtRp2562
(dp2563
g54
(dp2564
g62
I3
ssg63
g2558
sg56
(lp2565
g1080
asbasbasbag49
(g65
g51
NtRp2566
(dp2567
g54
(dp2568
sg63
g2415
sg56
(lp2569
g49
(g70
g51
NtRp2570
(dp2571
g54
(dp2572
g74
g75
ssg63
g2566
sg56
(lp2573
S'HTTP_REFERER'
p2574
asbag49
(g70
g51
NtRp2575
(dp2576
g54
(dp2577
g81
g82
ssg63
g2566
sg56
(lp2578
S':'
asbag49
(g70
g51
NtRp2579
(dp2580
g54
(dp2581
sg63
g2566
sg56
(lp2582
g49
(g50
g51
NtRp2583
(dp2584
g54
(dp2585
g62
I3
ssg63
g2579
sg56
(lp2586
g1102
asbasbasbag49
(g65
g51
NtRp2587
(dp2588
g54
(dp2589
sg63
g2415
sg56
(lp2590
g49
(g70
g51
NtRp2591
(dp2592
g54
(dp2593
g74
g75
ssg63
g2587
sg56
(lp2594
S'HTTP_USER_AGENT'
p2595
asbag49
(g70
g51
NtRp2596
(dp2597
g54
(dp2598
g81
g82
ssg63
g2587
sg56
(lp2599
S':'
asbag49
(g70
g51
NtRp2600
(dp2601
g54
(dp2602
sg63
g2587
sg56
(lp2603
g49
(g50
g51
NtRp2604
(dp2605
g54
(dp2606
g62
I3
ssg63
g2600
sg56
(lp2607
g1124
asbasbasbag49
(g65
g51
NtRp2608
(dp2609
g54
(dp2610
sg63
g2415
sg56
(lp2611
g49
(g70
g51
NtRp2612
(dp2613
g54
(dp2614
g74
g75
ssg63
g2608
sg56
(lp2615
S'HTTP_X_REQUESTED_WITH'
p2616
asbag49
(g70
g51
NtRp2617
(dp2618
g54
(dp2619
g81
g82
ssg63
g2608
sg56
(lp2620
S':'
asbag49
(g70
g51
NtRp2621
(dp2622
g54
(dp2623
sg63
g2608
sg56
(lp2624
g49
(g50
g51
NtRp2625
(dp2626
g54
(dp2627
g62
I3
ssg63
g2621
sg56
(lp2628
g1146
asbasbasbag49
(g65
g51
NtRp2629
(dp2630
g54
(dp2631
sg63
g2415
sg56
(lp2632
g49
(g70
g51
NtRp2633
(dp2634
g54
(dp2635
g74
g75
ssg63
g2629
sg56
(lp2636
S'PATH_INFO'
p2637
asbag49
(g70
g51
NtRp2638
(dp2639
g54
(dp2640
g81
g82
ssg63
g2629
sg56
(lp2641
S':'
asbag49
(g70
g51
NtRp2642
(dp2643
g54
(dp2644
sg63
g2629
sg56
(lp2645
g49
(g50
g51
NtRp2646
(dp2647
g54
(dp2648
g62
I3
ssg63
g2642
sg56
(lp2649
g1210
asbasbasbag49
(g65
g51
NtRp2650
(dp2651
g54
(dp2652
sg63
g2415
sg56
(lp2653
g49
(g70
g51
NtRp2654
(dp2655
g54
(dp2656
g74
g75
ssg63
g2650
sg56
(lp2657
S'QUERY_STRING'
p2658
asbag49
(g70
g51
NtRp2659
(dp2660
g54
(dp2661
g81
g82
ssg63
g2650
sg56
(lp2662
S':'
asbag49
(g70
g51
NtRp2663
(dp2664
g54
(dp2665
sg63
g2650
sg56
(lp2666
g49
(g50
g51
NtRp2667
(dp2668
g54
(dp2669
g62
I3
ssg63
g2663
sg56
(lp2670
S''
asbasbasbag49
(g65
g51
NtRp2671
(dp2672
g54
(dp2673
sg63
g2415
sg56
(lp2674
g49
(g70
g51
NtRp2675
(dp2676
g54
(dp2677
g74
g75
ssg63
g2671
sg56
(lp2678
S'REMOTE_ADDR'
p2679
asbag49
(g70
g51
NtRp2680
(dp2681
g54
(dp2682
g81
g82
ssg63
g2671
sg56
(lp2683
S':'
asbag49
(g70
g51
NtRp2684
(dp2685
g54
(dp2686
sg63
g2671
sg56
(lp2687
g49
(g50
g51
NtRp2688
(dp2689
g54
(dp2690
g62
I3
ssg63
g2684
sg56
(lp2691
g195
asbasbasbag49
(g65
g51
NtRp2692
(dp2693
g54
(dp2694
sg63
g2415
sg56
(lp2695
g49
(g70
g51
NtRp2696
(dp2697
g54
(dp2698
g74
g75
ssg63
g2692
sg56
(lp2699
S'REMOTE_PORT'
p2700
asbag49
(g70
g51
NtRp2701
(dp2702
g54
(dp2703
g81
g82
ssg63
g2692
sg56
(lp2704
S':'
asbag49
(g70
g51
NtRp2705
(dp2706
g54
(dp2707
sg63
g2692
sg56
(lp2708
g49
(g50
g51
NtRp2709
(dp2710
g54
(dp2711
g62
I3
ssg63
g2705
sg56
(lp2712
g1274
asbasbasbag49
(g65
g51
NtRp2713
(dp2714
g54
(dp2715
sg63
g2415
sg56
(lp2716
g49
(g70
g51
NtRp2717
(dp2718
g54
(dp2719
g74
g75
ssg63
g2713
sg56
(lp2720
S'REQUEST_METHOD'
p2721
asbag49
(g70
g51
NtRp2722
(dp2723
g54
(dp2724
g81
g82
ssg63
g2713
sg56
(lp2725
S':'
asbag49
(g70
g51
NtRp2726
(dp2727
g54
(dp2728
sg63
g2713
sg56
(lp2729
g49
(g50
g51
NtRp2730
(dp2731
g54
(dp2732
g62
I3
ssg63
g2726
sg56
(lp2733
g1296
asbasbasbag49
(g65
g51
NtRp2734
(dp2735
g54
(dp2736
sg63
g2415
sg56
(lp2737
g49
(g70
g51
NtRp2738
(dp2739
g54
(dp2740
g74
g75
ssg63
g2734
sg56
(lp2741
S'SCRIPT_NAME'
p2742
asbag49
(g70
g51
NtRp2743
(dp2744
g54
(dp2745
g81
g82
ssg63
g2734
sg56
(lp2746
S':'
asbag49
(g70
g51
NtRp2747
(dp2748
g54
(dp2749
sg63
g2734
sg56
(lp2750
g49
(g50
g51
NtRp2751
(dp2752
g54
(dp2753
g62
I3
ssg63
g2747
sg56
(lp2754
S''
asbasbasbag49
(g65
g51
NtRp2755
(dp2756
g54
(dp2757
sg63
g2415
sg56
(lp2758
g49
(g70
g51
NtRp2759
(dp2760
g54
(dp2761
g74
g75
ssg63
g2755
sg56
(lp2762
S'SERVER_NAME'
p2763
asbag49
(g70
g51
NtRp2764
(dp2765
g54
(dp2766
g81
g82
ssg63
g2755
sg56
(lp2767
S':'
asbag49
(g70
g51
NtRp2768
(dp2769
g54
(dp2770
sg63
g2755
sg56
(lp2771
g49
(g50
g51
NtRp2772
(dp2773
g54
(dp2774
g62
I3
ssg63
g2768
sg56
(lp2775
g1339
asbasbasbag49
(g65
g51
NtRp2776
(dp2777
g54
(dp2778
sg63
g2415
sg56
(lp2779
g49
(g70
g51
NtRp2780
(dp2781
g54
(dp2782
g74
g75
ssg63
g2776
sg56
(lp2783
S'SERVER_PORT'
p2784
asbag49
(g70
g51
NtRp2785
(dp2786
g54
(dp2787
g81
g82
ssg63
g2776
sg56
(lp2788
S':'
asbag49
(g70
g51
NtRp2789
(dp2790
g54
(dp2791
sg63
g2776
sg56
(lp2792
g49
(g50
g51
NtRp2793
(dp2794
g54
(dp2795
g62
I3
ssg63
g2789
sg56
(lp2796
g1361
asbasbasbag49
(g65
g51
NtRp2797
(dp2798
g54
(dp2799
sg63
g2415
sg56
(lp2800
g49
(g70
g51
NtRp2801
(dp2802
g54
(dp2803
g74
g75
ssg63
g2797
sg56
(lp2804
S'SERVER_PROTOCOL'
p2805
asbag49
(g70
g51
NtRp2806
(dp2807
g54
(dp2808
g81
g82
ssg63
g2797
sg56
(lp2809
S':'
asbag49
(g70
g51
NtRp2810
(dp2811
g54
(dp2812
sg63
g2797
sg56
(lp2813
g49
(g50
g51
NtRp2814
(dp2815
g54
(dp2816
g62
I3
ssg63
g2810
sg56
(lp2817
g1383
asbasbasbag49
(g65
g51
NtRp2818
(dp2819
g54
(dp2820
sg63
g2415
sg56
(lp2821
g49
(g70
g51
NtRp2822
(dp2823
g54
(dp2824
g74
g75
ssg63
g2818
sg56
(lp2825
S'SERVER_SOFTWARE'
p2826
asbag49
(g70
g51
NtRp2827
(dp2828
g54
(dp2829
g81
g82
ssg63
g2818
sg56
(lp2830
S':'
asbag49
(g70
g51
NtRp2831
(dp2832
g54
(dp2833
sg63
g2818
sg56
(lp2834
g49
(g50
g51
NtRp2835
(dp2836
g54
(dp2837
g62
I3
ssg63
g2831
sg56
(lp2838
g1405
asbasbasbag49
(g65
g51
NtRp2839
(dp2840
g54
(dp2841
sg63
g2415
sg56
(lp2842
g49
(g70
g51
NtRp2843
(dp2844
g54
(dp2845
g74
g75
ssg63
g2839
sg56
(lp2846
S'wsgi.errors'
p2847
asbag49
(g70
g51
NtRp2848
(dp2849
g54
(dp2850
g81
g82
ssg63
g2839
sg56
(lp2851
S':'
asbag49
(g70
g51
NtRp2852
(dp2853
g54
(dp2854
sg63
g2839
sg56
(lp2855
g49
(g50
g51
NtRp2856
(dp2857
g54
(dp2858
g62
I3
ssg63
g2852
sg56
(lp2859
S"<open file '<stderr>', mode 'w' at 0x014F00B0>"
p2860
asbasbasbag49
(g65
g51
NtRp2861
(dp2862
g54
(dp2863
sg63
g2415
sg56
(lp2864
g49
(g70
g51
NtRp2865
(dp2866
g54
(dp2867
g74
g75
ssg63
g2861
sg56
(lp2868
S'wsgi.file_wrapper'
p2869
asbag49
(g70
g51
NtRp2870
(dp2871
g54
(dp2872
g81
g82
ssg63
g2861
sg56
(lp2873
S':'
asbag49
(g70
g51
NtRp2874
(dp2875
g54
(dp2876
sg63
g2861
sg56
(lp2877
g49
(g50
g51
NtRp2878
(dp2879
g54
(dp2880
g62
I3
ssg63
g2874
sg56
(lp2881
S'<class wsgiref.util.FileWrapper at 0x020041E0>'
p2882
asbasbasbag49
(g65
g51
NtRp2883
(dp2884
g54
(dp2885
sg63
g2415
sg56
(lp2886
g49
(g70
g51
NtRp2887
(dp2888
g54
(dp2889
g74
g75
ssg63
g2883
sg56
(lp2890
S'wsgi.input'
p2891
asbag49
(g70
g51
NtRp2892
(dp2893
g54
(dp2894
g81
g82
ssg63
g2883
sg56
(lp2895
S':'
asbag49
(g70
g51
NtRp2896
(dp2897
g54
(dp2898
sg63
g2883
sg56
(lp2899
g49
(g50
g51
NtRp2900
(dp2901
g54
(dp2902
g62
I3
ssg63
g2896
sg56
(lp2903
S'<cStringIO.StringO object at 0x050E7C20>'
p2904
asbasbasbag49
(g65
g51
NtRp2905
(dp2906
g54
(dp2907
sg63
g2415
sg56
(lp2908
g49
(g70
g51
NtRp2909
(dp2910
g54
(dp2911
g74
g75
ssg63
g2905
sg56
(lp2912
S'wsgi.multiprocess'
p2913
asbag49
(g70
g51
NtRp2914
(dp2915
g54
(dp2916
g81
g82
ssg63
g2905
sg56
(lp2917
S':'
asbag49
(g70
g51
NtRp2918
(dp2919
g54
(dp2920
sg63
g2905
sg56
(lp2921
g49
(g50
g51
NtRp2922
(dp2923
g54
(dp2924
g62
I3
ssg63
g2918
sg56
(lp2925
g904
asbasbasbag49
(g65
g51
NtRp2926
(dp2927
g54
(dp2928
sg63
g2415
sg56
(lp2929
g49
(g70
g51
NtRp2930
(dp2931
g54
(dp2932
g74
g75
ssg63
g2926
sg56
(lp2933
S'wsgi.multithread'
p2934
asbag49
(g70
g51
NtRp2935
(dp2936
g54
(dp2937
g81
g82
ssg63
g2926
sg56
(lp2938
S':'
asbag49
(g70
g51
NtRp2939
(dp2940
g54
(dp2941
sg63
g2926
sg56
(lp2942
g49
(g50
g51
NtRp2943
(dp2944
g54
(dp2945
g62
I3
ssg63
g2939
sg56
(lp2946
g92
asbasbasbag49
(g65
g51
NtRp2947
(dp2948
g54
(dp2949
sg63
g2415
sg56
(lp2950
g49
(g70
g51
NtRp2951
(dp2952
g54
(dp2953
g74
g75
ssg63
g2947
sg56
(lp2954
S'wsgi.run_once'
p2955
asbag49
(g70
g51
NtRp2956
(dp2957
g54
(dp2958
g81
g82
ssg63
g2947
sg56
(lp2959
S':'
asbag49
(g70
g51
NtRp2960
(dp2961
g54
(dp2962
sg63
g2947
sg56
(lp2963
g49
(g50
g51
NtRp2964
(dp2965
g54
(dp2966
g62
I3
ssg63
g2960
sg56
(lp2967
g904
asbasbasbag49
(g65
g51
NtRp2968
(dp2969
g54
(dp2970
sg63
g2415
sg56
(lp2971
g49
(g70
g51
NtRp2972
(dp2973
g54
(dp2974
g74
g75
ssg63
g2968
sg56
(lp2975
S'wsgi.url_scheme'
p2976
asbag49
(g70
g51
NtRp2977
(dp2978
g54
(dp2979
g81
g82
ssg63
g2968
sg56
(lp2980
S':'
asbag49
(g70
g51
NtRp2981
(dp2982
g54
(dp2983
sg63
g2968
sg56
(lp2984
g49
(g50
g51
NtRp2985
(dp2986
g54
(dp2987
g62
I3
ssg63
g2981
sg56
(lp2988
g1687
asbasbasbag49
(g65
g51
NtRp2989
(dp2990
g54
(dp2991
sg63
g2415
sg56
(lp2992
g49
(g70
g51
NtRp2993
(dp2994
g54
(dp2995
g74
g75
ssg63
g2989
sg56
(lp2996
S'wsgi.version'
p2997
asbag49
(g70
g51
NtRp2998
(dp2999
g54
(dp3000
g81
g82
ssg63
g2989
sg56
(lp3001
S':'
asbag49
(g70
g51
NtRp3002
(dp3003
g54
(dp3004
sg63
g2989
sg56
(lp3005
g49
(g50
g51
NtRp3006
(dp3007
g54
(dp3008
g62
I3
ssg63
g3002
sg56
(lp3009
S'1'
asbasbasbasbasbasbasbasbasbasbasbasbasbsS'frames'
p3010
(lp3011
(dp3012
S'file'
p3013
S'C:\\Users\\Osku\\koodaus\\web2py\\gluon\\restricted.py'
p3014
sS'dump'
p3015
(dp3016
sS'lnum'
p3017
I205
sS'lines'
p3018
(dp3019
sS'call'
p3020
S"(code='# -*- coding: utf-8 -*-\\n# this file is released ...rud())\\n\\n\\nresponse._vars=response._caller(sitsit)\\n', environment={'A': <class 'gluon.html.A'>, 'Auth': <class 'gluon.tools.Auth'>, 'B': <class 'gluon.html.B'>, 'BEAUTIFY': <class 'gluon.html.BEAUTIFY'>, 'BODY': <class 'gluon.html.BODY'>, 'BR': <class 'gluon.html.BR'>, 'BUTTON': <class 'gluon.html.BUTTON'>, 'CAT': <class 'gluon.html.CAT'>, 'CENTER': <class 'gluon.html.CENTER'>, 'CLEANUP': <class 'gluon.validators.CLEANUP'>, ...}, layer=r'C:\\Users\\Osku\\koodaus\\web2py\\applications\\sitsit\\controllers/default.py')"
p3021
sS'func'
p3022
S'restricted'
p3023
sa(dp3024
g3013
S'C:\\Users\\Osku\\koodaus\\web2py\\applications\\sitsit\\controllers\\default.py'
p3025
sg3015
(dp3026
sg3017
I97
sg3018
(dp3027
I86
S'    http://..../[app]/default/data/delete/[table]/[id]'
p3028
sI87
S'    http://..../[app]/default/data/select/[table]'
p3029
sI88
S'    http://..../[app]/default/data/search/[table]'
p3030
sI89
S'    but URLs must be signed, i.e. linked with'
p3031
sI90
S"      A('table',_href=URL('data/tables',user_signature=True))"
p3032
sI91
S'    or with the signed load operator'
p3033
sI92
S"      LOAD('default','data.load',args='tables',ajax=True,user_signature=True)"
p3034
sI93
S'    """'
p3035
sI94
S'    return dict(form=crud())'
p3036
sI95
S''
ssg3020
S'()'
p3037
sg3022
S'<module>'
p3038
sa(dp3039
g3013
S'C:\\Users\\Osku\\koodaus\\web2py\\gluon\\globals.py'
p3040
sg3015
(dp3041
sg3017
I173
sg3018
(dp3042
sg3020
S'(f=<function sitsit at 0x04DF4B70>)'
p3043
sg3022
S'<lambda>'
p3044
sa(dp3045
g3013
S'C:\\Users\\Osku\\koodaus\\web2py\\applications\\sitsit\\controllers\\default.py'
p3046
sg3015
(dp3047
sg3017
I30
sg3018
(dp3048
I32
S'\t\towner=False'
p3049
sI33
S'\t\tif auth.is_logged_in():'
p3050
sI34
S'\t\t\tif auth.user.id == sitsi.owner:'
p3051
sI25
S'\t\tif form.process().accepted:'
p3052
sI26
S'\t\t\treturn redirect(URL(args=form.vars.id))'
p3053
sI27
S'\t\treturn dict(form=form)'
p3054
sI28
S'\tif len(request.args):'
p3055
sI29
S'\t\tsitsiID = request.args[0]'
p3056
sI30
S'\t\tsitsi = db.party[sitsiID]'
p3057
sI31
S'\t\tpeople = db(db.guest_party_attending.party == sitsiID).select().as_dict()'
p3058
ssg3020
S'()'
p3059
sg3022
S'sitsit'
p3060
sa(dp3061
g3013
S'C:\\Users\\Osku\\koodaus\\web2py\\gluon\\dal.py'
p3062
sg3015
(dp3063
sg3017
I6714
sg3018
(dp3064
sg3020
S"(self=<Table {'_db': <DAL {'auth_event': <Table {'orig..., '_id': <gluon.dal.Field object at 0x024466D0>}>, key='echo')"
p3065
sg3022
g20
sasS'pyver'
p3066
S'Python 2.5.4: C:\\Users\\Osku\\koodaus\\web2py\\web2py.exe'
p3067
sS'session'
p3068
g49
(g50
g51
NtRp3069
(dp3070
g54
(dp3071
sg56
(lp3072
g49
(g58
g51
NtRp3073
(dp3074
g54
(dp3075
g62
I5
ssg63
Nsg56
(lp3076
g49
(g65
g51
NtRp3077
(dp3078
g54
(dp3079
sg63
g3073
sg56
(lp3080
g49
(g70
g51
NtRp3081
(dp3082
g54
(dp3083
g74
g75
ssg63
g3077
sg56
(lp3084
S'auth'
p3085
asbag49
(g70
g51
NtRp3086
(dp3087
g54
(dp3088
g81
g82
ssg63
g3077
sg56
(lp3089
S':'
asbag49
(g70
g51
NtRp3090
(dp3091
g54
(dp3092
sg63
g3077
sg56
(lp3093
g49
(g50
g51
NtRp3094
(dp3095
g54
(dp3096
g62
I5
ssg63
g3090
sg56
(lp3097
g49
(g58
g51
NtRp3098
(dp3099
g54
(dp3100
g62
I4
ssg63
Nsg56
(lp3101
g49
(g65
g51
NtRp3102
(dp3103
g54
(dp3104
sg63
g3098
sg56
(lp3105
g49
(g70
g51
NtRp3106
(dp3107
g54
(dp3108
g74
g75
ssg63
g3102
sg56
(lp3109
S'expiration'
p3110
asbag49
(g70
g51
NtRp3111
(dp3112
g54
(dp3113
g81
g82
ssg63
g3102
sg56
(lp3114
S':'
asbag49
(g70
g51
NtRp3115
(dp3116
g54
(dp3117
sg63
g3102
sg56
(lp3118
g49
(g50
g51
NtRp3119
(dp3120
g54
(dp3121
g62
I4
ssg63
g3115
sg56
(lp3122
S'3600'
p3123
asbasbasbag49
(g65
g51
NtRp3124
(dp3125
g54
(dp3126
sg63
g3098
sg56
(lp3127
g49
(g70
g51
NtRp3128
(dp3129
g54
(dp3130
g74
g75
ssg63
g3124
sg56
(lp3131
S'hmac_key'
p3132
asbag49
(g70
g51
NtRp3133
(dp3134
g54
(dp3135
g81
g82
ssg63
g3124
sg56
(lp3136
S':'
asbag49
(g70
g51
NtRp3137
(dp3138
g54
(dp3139
sg63
g3124
sg56
(lp3140
g49
(g50
g51
NtRp3141
(dp3142
g54
(dp3143
g62
I4
ssg63
g3137
sg56
(lp3144
S'871ae63d-f3e0-499f-bd79-a2b724d0a3d4'
p3145
asbasbasbag49
(g65
g51
NtRp3146
(dp3147
g54
(dp3148
sg63
g3098
sg56
(lp3149
g49
(g70
g51
NtRp3150
(dp3151
g54
(dp3152
g74
g75
ssg63
g3146
sg56
(lp3153
S'last_visit'
p3154
asbag49
(g70
g51
NtRp3155
(dp3156
g54
(dp3157
g81
g82
ssg63
g3146
sg56
(lp3158
S':'
asbag49
(g70
g51
NtRp3159
(dp3160
g54
(dp3161
sg63
g3146
sg56
(lp3162
g49
(g50
g51
NtRp3163
(dp3164
g54
(dp3165
g62
I4
ssg63
g3159
sg56
(lp3166
S'datetime.datetime(2012, 7, 6, 23, 43, 5, 309000)'
p3167
asbasbasbag49
(g65
g51
NtRp3168
(dp3169
g54
(dp3170
sg63
g3098
sg56
(lp3171
g49
(g70
g51
NtRp3172
(dp3173
g54
(dp3174
g74
g75
ssg63
g3168
sg56
(lp3175
S'user'
p3176
asbag49
(g70
g51
NtRp3177
(dp3178
g54
(dp3179
g81
g82
ssg63
g3168
sg56
(lp3180
S':'
asbag49
(g70
g51
NtRp3181
(dp3182
g54
(dp3183
sg63
g3168
sg56
(lp3184
g49
(g50
g51
NtRp3185
(dp3186
g54
(dp3187
g62
I4
ssg63
g3181
sg56
(lp3188
g49
(g58
g51
NtRp3189
(dp3190
g54
(dp3191
g62
I3
ssg63
Nsg56
(lp3192
g49
(g65
g51
NtRp3193
(dp3194
g54
(dp3195
sg63
g3189
sg56
(lp3196
g49
(g70
g51
NtRp3197
(dp3198
g54
(dp3199
g74
g75
ssg63
g3193
sg56
(lp3200
S'birthdate'
p3201
asbag49
(g70
g51
NtRp3202
(dp3203
g54
(dp3204
g81
g82
ssg63
g3193
sg56
(lp3205
S':'
asbag49
(g70
g51
NtRp3206
(dp3207
g54
(dp3208
sg63
g3193
sg56
(lp3209
g49
(g50
g51
NtRp3210
(dp3211
g54
(dp3212
g62
I3
ssg63
g3206
sg56
(lp3213
S'None'
p3214
asbasbasbag49
(g65
g51
NtRp3215
(dp3216
g54
(dp3217
sg63
g3189
sg56
(lp3218
g49
(g70
g51
NtRp3219
(dp3220
g54
(dp3221
g74
g75
ssg63
g3215
sg56
(lp3222
S'email'
p3223
asbag49
(g70
g51
NtRp3224
(dp3225
g54
(dp3226
g81
g82
ssg63
g3215
sg56
(lp3227
S':'
asbag49
(g70
g51
NtRp3228
(dp3229
g54
(dp3230
sg63
g3215
sg56
(lp3231
g49
(g50
g51
NtRp3232
(dp3233
g54
(dp3234
g62
I3
ssg63
g3228
sg56
(lp3235
S'oskari.petas@gmail.com'
p3236
asbasbasbag49
(g65
g51
NtRp3237
(dp3238
g54
(dp3239
sg63
g3189
sg56
(lp3240
g49
(g70
g51
NtRp3241
(dp3242
g54
(dp3243
g74
g75
ssg63
g3237
sg56
(lp3244
S'first_name'
p3245
asbag49
(g70
g51
NtRp3246
(dp3247
g54
(dp3248
g81
g82
ssg63
g3237
sg56
(lp3249
S':'
asbag49
(g70
g51
NtRp3250
(dp3251
g54
(dp3252
sg63
g3237
sg56
(lp3253
g49
(g50
g51
NtRp3254
(dp3255
g54
(dp3256
g62
I3
ssg63
g3250
sg56
(lp3257
S'Oskari'
p3258
asbasbasbag49
(g65
g51
NtRp3259
(dp3260
g54
(dp3261
sg63
g3189
sg56
(lp3262
g49
(g70
g51
NtRp3263
(dp3264
g54
(dp3265
g74
g75
ssg63
g3259
sg56
(lp3266
S'id'
p3267
asbag49
(g70
g51
NtRp3268
(dp3269
g54
(dp3270
g81
g82
ssg63
g3259
sg56
(lp3271
S':'
asbag49
(g70
g51
NtRp3272
(dp3273
g54
(dp3274
sg63
g3259
sg56
(lp3275
g49
(g50
g51
NtRp3276
(dp3277
g54
(dp3278
g62
I3
ssg63
g3272
sg56
(lp3279
S'1'
asbasbasbag49
(g65
g51
NtRp3280
(dp3281
g54
(dp3282
sg63
g3189
sg56
(lp3283
g49
(g70
g51
NtRp3284
(dp3285
g54
(dp3286
g74
g75
ssg63
g3280
sg56
(lp3287
S'last_name'
p3288
asbag49
(g70
g51
NtRp3289
(dp3290
g54
(dp3291
g81
g82
ssg63
g3280
sg56
(lp3292
S':'
asbag49
(g70
g51
NtRp3293
(dp3294
g54
(dp3295
sg63
g3280
sg56
(lp3296
g49
(g50
g51
NtRp3297
(dp3298
g54
(dp3299
g62
I3
ssg63
g3293
sg56
(lp3300
S'Petas'
p3301
asbasbasbag49
(g65
g51
NtRp3302
(dp3303
g54
(dp3304
sg63
g3189
sg56
(lp3305
g49
(g70
g51
NtRp3306
(dp3307
g54
(dp3308
g74
g75
ssg63
g3302
sg56
(lp3309
S'password'
p3310
asbag49
(g70
g51
NtRp3311
(dp3312
g54
(dp3313
g81
g82
ssg63
g3302
sg56
(lp3314
S':'
asbag49
(g70
g51
NtRp3315
(dp3316
g54
(dp3317
sg63
g3302
sg56
(lp3318
g49
(g50
g51
NtRp3319
(dp3320
g54
(dp3321
g62
I3
ssg63
g3315
sg56
(lp3322
S'b11d7fe42f4ed95554a3bb1f580d7880'
p3323
asbasbasbag49
(g65
g51
NtRp3324
(dp3325
g54
(dp3326
sg63
g3189
sg56
(lp3327
g49
(g70
g51
NtRp3328
(dp3329
g54
(dp3330
g74
g75
ssg63
g3324
sg56
(lp3331
S'registration_id'
p3332
asbag49
(g70
g51
NtRp3333
(dp3334
g54
(dp3335
g81
g82
ssg63
g3324
sg56
(lp3336
S':'
asbag49
(g70
g51
NtRp3337
(dp3338
g54
(dp3339
sg63
g3324
sg56
(lp3340
g49
(g50
g51
NtRp3341
(dp3342
g54
(dp3343
g62
I3
ssg63
g3337
sg56
(lp3344
S''
asbasbasbag49
(g65
g51
NtRp3345
(dp3346
g54
(dp3347
sg63
g3189
sg56
(lp3348
g49
(g70
g51
NtRp3349
(dp3350
g54
(dp3351
g74
g75
ssg63
g3345
sg56
(lp3352
S'registration_key'
p3353
asbag49
(g70
g51
NtRp3354
(dp3355
g54
(dp3356
g81
g82
ssg63
g3345
sg56
(lp3357
S':'
asbag49
(g70
g51
NtRp3358
(dp3359
g54
(dp3360
sg63
g3345
sg56
(lp3361
g49
(g50
g51
NtRp3362
(dp3363
g54
(dp3364
g62
I3
ssg63
g3358
sg56
(lp3365
S''
asbasbasbag49
(g65
g51
NtRp3366
(dp3367
g54
(dp3368
sg63
g3189
sg56
(lp3369
g49
(g70
g51
NtRp3370
(dp3371
g54
(dp3372
g74
g75
ssg63
g3366
sg56
(lp3373
S'representation'
p3374
asbag49
(g70
g51
NtRp3375
(dp3376
g54
(dp3377
g81
g82
ssg63
g3366
sg56
(lp3378
S':'
asbag49
(g70
g51
NtRp3379
(dp3380
g54
(dp3381
sg63
g3366
sg56
(lp3382
g49
(g50
g51
NtRp3383
(dp3384
g54
(dp3385
g62
I3
ssg63
g3379
sg56
(lp3386
S'AS'
p3387
asbasbasbag49
(g65
g51
NtRp3388
(dp3389
g54
(dp3390
sg63
g3189
sg56
(lp3391
g49
(g70
g51
NtRp3392
(dp3393
g54
(dp3394
g74
g75
ssg63
g3388
sg56
(lp3395
S'reset_password_key'
p3396
asbag49
(g70
g51
NtRp3397
(dp3398
g54
(dp3399
g81
g82
ssg63
g3388
sg56
(lp3400
S':'
asbag49
(g70
g51
NtRp3401
(dp3402
g54
(dp3403
sg63
g3388
sg56
(lp3404
g49
(g50
g51
NtRp3405
(dp3406
g54
(dp3407
g62
I3
ssg63
g3401
sg56
(lp3408
S''
asbasbasbasbasbasbasbag49
(g65
g51
NtRp3409
(dp3410
g54
(dp3411
sg63
g3098
sg56
(lp3412
g49
(g70
g51
NtRp3413
(dp3414
g54
(dp3415
g74
g75
ssg63
g3409
sg56
(lp3416
S'user_groups'
p3417
asbag49
(g70
g51
NtRp3418
(dp3419
g54
(dp3420
g81
g82
ssg63
g3409
sg56
(lp3421
S':'
asbag49
(g70
g51
NtRp3422
(dp3423
g54
(dp3424
sg63
g3409
sg56
(lp3425
g49
(g50
g51
NtRp3426
(dp3427
g54
(dp3428
g62
I4
ssg63
g3422
sg56
(lp3429
g49
(g58
g51
NtRp3430
(dp3431
g54
(dp3432
g62
I3
ssg63
Nsg56
(lp3433
g49
(g65
g51
NtRp3434
(dp3435
g54
(dp3436
sg63
g3430
sg56
(lp3437
g49
(g70
g51
NtRp3438
(dp3439
g54
(dp3440
g74
g75
ssg63
g3434
sg56
(lp3441
S'1'
asbag49
(g70
g51
NtRp3442
(dp3443
g54
(dp3444
g81
g82
ssg63
g3434
sg56
(lp3445
S':'
asbag49
(g70
g51
NtRp3446
(dp3447
g54
(dp3448
sg63
g3434
sg56
(lp3449
g49
(g50
g51
NtRp3450
(dp3451
g54
(dp3452
g62
I3
ssg63
g3446
sg56
(lp3453
S'user_1'
p3454
asbasbasbasbasbasbasbasbasbasbasbasbasbsS'etype'
p3455
S"<type 'exceptions.KeyError'>"
p3456
sS'date'
p3457
S'Fri Jul 06 23:45:52 2012'
p3458
sS'response'
p3459
g49
(g50
g51
NtRp3460
(dp3461
g54
(dp3462
sg56
(lp3463
g49
(g58
g51
NtRp3464
(dp3465
g54
(dp3466
g62
I5
ssg63
Nsg56
(lp3467
g49
(g65
g51
NtRp3468
(dp3469
g54
(dp3470
sg63
g3464
sg56
(lp3471
g49
(g70
g51
NtRp3472
(dp3473
g54
(dp3474
g74
g75
ssg63
g3468
sg56
(lp3475
g160
asbag49
(g70
g51
NtRp3476
(dp3477
g54
(dp3478
g81
g82
ssg63
g3468
sg56
(lp3479
S':'
asbag49
(g70
g51
NtRp3480
(dp3481
g54
(dp3482
sg63
g3468
sg56
(lp3483
g49
(g50
g51
NtRp3484
(dp3485
g54
(dp3486
g62
I5
ssg63
g3480
sg56
(lp3487
S'<cStringIO.StringO object at 0x0534F2C0>'
p3488
asbasbasbag49
(g65
g51
NtRp3489
(dp3490
g54
(dp3491
sg63
g3464
sg56
(lp3492
g49
(g70
g51
NtRp3493
(dp3494
g54
(dp3495
g74
g75
ssg63
g3489
sg56
(lp3496
g226
asbag49
(g70
g51
NtRp3497
(dp3498
g54
(dp3499
g81
g82
ssg63
g3489
sg56
(lp3500
S':'
asbag49
(g70
g51
NtRp3501
(dp3502
g54
(dp3503
sg63
g3489
sg56
(lp3504
g49
(g50
g51
NtRp3505
(dp3506
g54
(dp3507
g62
I5
ssg63
g3501
sg56
(lp3508
g49
(g58
g51
NtRp3509
(dp3510
g54
(dp3511
g62
I4
ssg63
Nsg56
(lp3512
g49
(g65
g51
NtRp3513
(dp3514
g54
(dp3515
sg63
g3509
sg56
(lp3516
g49
(g70
g51
NtRp3517
(dp3518
g54
(dp3519
g74
g75
ssg63
g3513
sg56
(lp3520
S'session_id_sitsit'
p3521
asbag49
(g70
g51
NtRp3522
(dp3523
g54
(dp3524
g81
g82
ssg63
g3513
sg56
(lp3525
S':'
asbag49
(g70
g51
NtRp3526
(dp3527
g54
(dp3528
sg63
g3513
sg56
(lp3529
g49
(g50
g51
NtRp3530
(dp3531
g54
(dp3532
g62
I4
ssg63
g3526
sg56
(lp3533
g49
(g58
g51
NtRp3534
(dp3535
g54
(dp3536
g62
I3
ssg63
Nsg56
(lp3537
g49
(g65
g51
NtRp3538
(dp3539
g54
(dp3540
sg63
g3534
sg56
(lp3541
g49
(g70
g51
NtRp3542
(dp3543
g54
(dp3544
g74
g75
ssg63
g3538
sg56
(lp3545
g276
asbag49
(g70
g51
NtRp3546
(dp3547
g54
(dp3548
g81
g82
ssg63
g3538
sg56
(lp3549
S':'
asbag49
(g70
g51
NtRp3550
(dp3551
g54
(dp3552
sg63
g3538
sg56
(lp3553
g49
(g50
g51
NtRp3554
(dp3555
g54
(dp3556
g62
I3
ssg63
g3550
sg56
(lp3557
S''
asbasbasbag49
(g65
g51
NtRp3558
(dp3559
g54
(dp3560
sg63
g3534
sg56
(lp3561
g49
(g70
g51
NtRp3562
(dp3563
g54
(dp3564
g74
g75
ssg63
g3558
sg56
(lp3565
g297
asbag49
(g70
g51
NtRp3566
(dp3567
g54
(dp3568
g81
g82
ssg63
g3558
sg56
(lp3569
S':'
asbag49
(g70
g51
NtRp3570
(dp3571
g54
(dp3572
sg63
g3558
sg56
(lp3573
g49
(g50
g51
NtRp3574
(dp3575
g54
(dp3576
g62
I3
ssg63
g3570
sg56
(lp3577
S''
asbasbasbag49
(g65
g51
NtRp3578
(dp3579
g54
(dp3580
sg63
g3534
sg56
(lp3581
g49
(g70
g51
NtRp3582
(dp3583
g54
(dp3584
g74
g75
ssg63
g3578
sg56
(lp3585
g318
asbag49
(g70
g51
NtRp3586
(dp3587
g54
(dp3588
g81
g82
ssg63
g3578
sg56
(lp3589
S':'
asbag49
(g70
g51
NtRp3590
(dp3591
g54
(dp3592
sg63
g3578
sg56
(lp3593
g49
(g50
g51
NtRp3594
(dp3595
g54
(dp3596
g62
I3
ssg63
g3590
sg56
(lp3597
S''
asbasbasbag49
(g65
g51
NtRp3598
(dp3599
g54
(dp3600
sg63
g3534
sg56
(lp3601
g49
(g70
g51
NtRp3602
(dp3603
g54
(dp3604
g74
g75
ssg63
g3598
sg56
(lp3605
g339
asbag49
(g70
g51
NtRp3606
(dp3607
g54
(dp3608
g81
g82
ssg63
g3598
sg56
(lp3609
S':'
asbag49
(g70
g51
NtRp3610
(dp3611
g54
(dp3612
sg63
g3598
sg56
(lp3613
g49
(g50
g51
NtRp3614
(dp3615
g54
(dp3616
g62
I3
ssg63
g3610
sg56
(lp3617
S''
asbasbasbag49
(g65
g51
NtRp3618
(dp3619
g54
(dp3620
sg63
g3534
sg56
(lp3621
g49
(g70
g51
NtRp3622
(dp3623
g54
(dp3624
g74
g75
ssg63
g3618
sg56
(lp3625
g360
asbag49
(g70
g51
NtRp3626
(dp3627
g54
(dp3628
g81
g82
ssg63
g3618
sg56
(lp3629
S':'
asbag49
(g70
g51
NtRp3630
(dp3631
g54
(dp3632
sg63
g3618
sg56
(lp3633
g49
(g50
g51
NtRp3634
(dp3635
g54
(dp3636
g62
I3
ssg63
g3630
sg56
(lp3637
S'/'
asbasbasbag49
(g65
g51
NtRp3638
(dp3639
g54
(dp3640
sg63
g3534
sg56
(lp3641
g49
(g70
g51
NtRp3642
(dp3643
g54
(dp3644
g74
g75
ssg63
g3638
sg56
(lp3645
g381
asbag49
(g70
g51
NtRp3646
(dp3647
g54
(dp3648
g81
g82
ssg63
g3638
sg56
(lp3649
S':'
asbag49
(g70
g51
NtRp3650
(dp3651
g54
(dp3652
sg63
g3638
sg56
(lp3653
g49
(g50
g51
NtRp3654
(dp3655
g54
(dp3656
g62
I3
ssg63
g3650
sg56
(lp3657
S''
asbasbasbag49
(g65
g51
NtRp3658
(dp3659
g54
(dp3660
sg63
g3534
sg56
(lp3661
g49
(g70
g51
NtRp3662
(dp3663
g54
(dp3664
g74
g75
ssg63
g3658
sg56
(lp3665
g402
asbag49
(g70
g51
NtRp3666
(dp3667
g54
(dp3668
g81
g82
ssg63
g3658
sg56
(lp3669
S':'
asbag49
(g70
g51
NtRp3670
(dp3671
g54
(dp3672
sg63
g3658
sg56
(lp3673
g49
(g50
g51
NtRp3674
(dp3675
g54
(dp3676
g62
I3
ssg63
g3670
sg56
(lp3677
S''
asbasbasbasbasbasbasbasbasbasbasbag49
(g65
g51
NtRp3678
(dp3679
g54
(dp3680
sg63
g3464
sg56
(lp3681
g49
(g70
g51
NtRp3682
(dp3683
g54
(dp3684
g74
g75
ssg63
g3678
sg56
(lp3685
S'delimiters'
p3686
asbag49
(g70
g51
NtRp3687
(dp3688
g54
(dp3689
g81
g82
ssg63
g3678
sg56
(lp3690
S':'
asbag49
(g70
g51
NtRp3691
(dp3692
g54
(dp3693
sg63
g3678
sg56
(lp3694
g49
(g50
g51
NtRp3695
(dp3696
g54
(dp3697
g62
I5
ssg63
g3691
sg56
(lp3698
g49
(g58
g51
NtRp3699
(dp3700
g54
(dp3701
g62
I4
ssg63
Nsg56
(lp3702
g49
(g65
g51
NtRp3703
(dp3704
g54
(dp3705
sg63
g3699
sg56
(lp3706
g49
(g70
g51
NtRp3707
(dp3708
g54
(dp3709
sg63
g3703
sg56
(lp3710
g49
(g50
g51
NtRp3711
(dp3712
g54
(dp3713
g62
I4
ssg63
g3707
sg56
(lp3714
S'{{'
p3715
asbasbasbag49
(g65
g51
NtRp3716
(dp3717
g54
(dp3718
sg63
g3699
sg56
(lp3719
g49
(g70
g51
NtRp3720
(dp3721
g54
(dp3722
sg63
g3716
sg56
(lp3723
g49
(g50
g51
NtRp3724
(dp3725
g54
(dp3726
g62
I4
ssg63
g3720
sg56
(lp3727
S'}}'
p3728
asbasbasbasbasbasbasbag49
(g65
g51
NtRp3729
(dp3730
g54
(dp3731
sg63
g3464
sg56
(lp3732
g49
(g70
g51
NtRp3733
(dp3734
g54
(dp3735
g74
g75
ssg63
g3729
sg56
(lp3736
S'files'
p3737
asbag49
(g70
g51
NtRp3738
(dp3739
g54
(dp3740
g81
g82
ssg63
g3729
sg56
(lp3741
S':'
asbag49
(g70
g51
NtRp3742
(dp3743
g54
(dp3744
sg63
g3729
sg56
(lp3745
g49
(g50
g51
NtRp3746
(dp3747
g54
(dp3748
g62
I5
ssg63
g3742
sg56
(lp3749
g49
(g58
g51
NtRp3750
(dp3751
g54
(dp3752
g62
I4
ssg63
Nsg56
(lp3753
sbasbasbasbag49
(g65
g51
NtRp3754
(dp3755
g54
(dp3756
sg63
g3464
sg56
(lp3757
g49
(g70
g51
NtRp3758
(dp3759
g54
(dp3760
g74
g75
ssg63
g3754
sg56
(lp3761
S'flash'
p3762
asbag49
(g70
g51
NtRp3763
(dp3764
g54
(dp3765
g81
g82
ssg63
g3754
sg56
(lp3766
S':'
asbag49
(g70
g51
NtRp3767
(dp3768
g54
(dp3769
sg63
g3754
sg56
(lp3770
g49
(g50
g51
NtRp3771
(dp3772
g54
(dp3773
g62
I5
ssg63
g3767
sg56
(lp3774
S''
asbasbasbag49
(g65
g51
NtRp3775
(dp3776
g54
(dp3777
sg63
g3464
sg56
(lp3778
g49
(g70
g51
NtRp3779
(dp3780
g54
(dp3781
g74
g75
ssg63
g3775
sg56
(lp3782
S'generic_patterns'
p3783
asbag49
(g70
g51
NtRp3784
(dp3785
g54
(dp3786
g81
g82
ssg63
g3775
sg56
(lp3787
S':'
asbag49
(g70
g51
NtRp3788
(dp3789
g54
(dp3790
sg63
g3775
sg56
(lp3791
g49
(g50
g51
NtRp3792
(dp3793
g54
(dp3794
g62
I5
ssg63
g3788
sg56
(lp3795
g49
(g58
g51
NtRp3796
(dp3797
g54
(dp3798
g62
I4
ssg63
Nsg56
(lp3799
g49
(g65
g51
NtRp3800
(dp3801
g54
(dp3802
sg63
g3796
sg56
(lp3803
g49
(g70
g51
NtRp3804
(dp3805
g54
(dp3806
sg63
g3800
sg56
(lp3807
g49
(g50
g51
NtRp3808
(dp3809
g54
(dp3810
g62
I4
ssg63
g3804
sg56
(lp3811
S'*'
asbasbasbasbasbasbasbag49
(g65
g51
NtRp3812
(dp3813
g54
(dp3814
sg63
g3464
sg56
(lp3815
g49
(g70
g51
NtRp3816
(dp3817
g54
(dp3818
g74
g75
ssg63
g3812
sg56
(lp3819
S'headers'
p3820
asbag49
(g70
g51
NtRp3821
(dp3822
g54
(dp3823
g81
g82
ssg63
g3812
sg56
(lp3824
S':'
asbag49
(g70
g51
NtRp3825
(dp3826
g54
(dp3827
sg63
g3812
sg56
(lp3828
g49
(g50
g51
NtRp3829
(dp3830
g54
(dp3831
g62
I5
ssg63
g3825
sg56
(lp3832
g49
(g58
g51
NtRp3833
(dp3834
g54
(dp3835
g62
I4
ssg63
Nsg56
(lp3836
g49
(g65
g51
NtRp3837
(dp3838
g54
(dp3839
sg63
g3833
sg56
(lp3840
g49
(g70
g51
NtRp3841
(dp3842
g54
(dp3843
g74
g75
ssg63
g3837
sg56
(lp3844
S'Cache-Control'
p3845
asbag49
(g70
g51
NtRp3846
(dp3847
g54
(dp3848
g81
g82
ssg63
g3837
sg56
(lp3849
S':'
asbag49
(g70
g51
NtRp3850
(dp3851
g54
(dp3852
sg63
g3837
sg56
(lp3853
g49
(g50
g51
NtRp3854
(dp3855
g54
(dp3856
g62
I4
ssg63
g3850
sg56
(lp3857
S'no-store, no-cache, must-revalidate, post-check=0, pre-check=0'
p3858
asbasbasbag49
(g65
g51
NtRp3859
(dp3860
g54
(dp3861
sg63
g3833
sg56
(lp3862
g49
(g70
g51
NtRp3863
(dp3864
g54
(dp3865
g74
g75
ssg63
g3859
sg56
(lp3866
S'Content-Type'
p3867
asbag49
(g70
g51
NtRp3868
(dp3869
g54
(dp3870
g81
g82
ssg63
g3859
sg56
(lp3871
S':'
asbag49
(g70
g51
NtRp3872
(dp3873
g54
(dp3874
sg63
g3859
sg56
(lp3875
g49
(g50
g51
NtRp3876
(dp3877
g54
(dp3878
g62
I4
ssg63
g3872
sg56
(lp3879
S'text/html; charset=utf-8'
p3880
asbasbasbag49
(g65
g51
NtRp3881
(dp3882
g54
(dp3883
sg63
g3833
sg56
(lp3884
g49
(g70
g51
NtRp3885
(dp3886
g54
(dp3887
g74
g75
ssg63
g3881
sg56
(lp3888
S'Expires'
p3889
asbag49
(g70
g51
NtRp3890
(dp3891
g54
(dp3892
g81
g82
ssg63
g3881
sg56
(lp3893
S':'
asbag49
(g70
g51
NtRp3894
(dp3895
g54
(dp3896
sg63
g3881
sg56
(lp3897
g49
(g50
g51
NtRp3898
(dp3899
g54
(dp3900
g62
I4
ssg63
g3894
sg56
(lp3901
S'Fri, 06 Jul 2012 21:45:52 GMT'
p3902
asbasbasbag49
(g65
g51
NtRp3903
(dp3904
g54
(dp3905
sg63
g3833
sg56
(lp3906
g49
(g70
g51
NtRp3907
(dp3908
g54
(dp3909
g74
g75
ssg63
g3903
sg56
(lp3910
S'Pragma'
p3911
asbag49
(g70
g51
NtRp3912
(dp3913
g54
(dp3914
g81
g82
ssg63
g3903
sg56
(lp3915
S':'
asbag49
(g70
g51
NtRp3916
(dp3917
g54
(dp3918
sg63
g3903
sg56
(lp3919
g49
(g50
g51
NtRp3920
(dp3921
g54
(dp3922
g62
I4
ssg63
g3916
sg56
(lp3923
S'no-cache'
p3924
asbasbasbag49
(g65
g51
NtRp3925
(dp3926
g54
(dp3927
sg63
g3833
sg56
(lp3928
g49
(g70
g51
NtRp3929
(dp3930
g54
(dp3931
g74
g75
ssg63
g3925
sg56
(lp3932
S'X-Powered-By'
p3933
asbag49
(g70
g51
NtRp3934
(dp3935
g54
(dp3936
g81
g82
ssg63
g3925
sg56
(lp3937
S':'
asbag49
(g70
g51
NtRp3938
(dp3939
g54
(dp3940
sg63
g3925
sg56
(lp3941
g49
(g50
g51
NtRp3942
(dp3943
g54
(dp3944
g62
I4
ssg63
g3938
sg56
(lp3945
S'web2py'
p3946
asbasbasbasbasbasbasbag49
(g65
g51
NtRp3947
(dp3948
g54
(dp3949
sg63
g3464
sg56
(lp3950
g49
(g70
g51
NtRp3951
(dp3952
g54
(dp3953
g74
g75
ssg63
g3947
sg56
(lp3954
S'menu'
p3955
asbag49
(g70
g51
NtRp3956
(dp3957
g54
(dp3958
g81
g82
ssg63
g3947
sg56
(lp3959
S':'
asbag49
(g70
g51
NtRp3960
(dp3961
g54
(dp3962
sg63
g3947
sg56
(lp3963
g49
(g50
g51
NtRp3964
(dp3965
g54
(dp3966
g62
I5
ssg63
g3960
sg56
(lp3967
g49
(g58
g51
NtRp3968
(dp3969
g54
(dp3970
g62
I4
ssg63
Nsg56
(lp3971
g49
(g65
g51
NtRp3972
(dp3973
g54
(dp3974
sg63
g3968
sg56
(lp3975
g49
(g70
g51
NtRp3976
(dp3977
g54
(dp3978
sg63
g3972
sg56
(lp3979
g49
(g50
g51
NtRp3980
(dp3981
g54
(dp3982
g62
I4
ssg63
g3976
sg56
(lp3983
g49
(g58
g51
NtRp3984
(dp3985
g54
(dp3986
g62
I3
ssg63
Nsg56
(lp3987
g49
(g65
g51
NtRp3988
(dp3989
g54
(dp3990
sg63
g3984
sg56
(lp3991
g49
(g70
g51
NtRp3992
(dp3993
g54
(dp3994
sg63
g3988
sg56
(lp3995
g49
(g50
g51
NtRp3996
(dp3997
g54
(dp3998
g62
I3
ssg63
g3992
sg56
(lp3999
cgluon.languages
lazyT_unpickle
p4000
(S's\x04\x00\x00\x00Home'
tRp4001
asbasbasbag49
(g65
g51
NtRp4002
(dp4003
g54
(dp4004
sg63
g3984
sg56
(lp4005
g49
(g70
g51
NtRp4006
(dp4007
g54
(dp4008
sg63
g4002
sg56
(lp4009
g49
(g50
g51
NtRp4010
(dp4011
g54
(dp4012
g62
I3
ssg63
g4006
sg56
(lp4013
g904
asbasbasbag49
(g65
g51
NtRp4014
(dp4015
g54
(dp4016
sg63
g3984
sg56
(lp4017
g49
(g70
g51
NtRp4018
(dp4019
g54
(dp4020
sg63
g4014
sg56
(lp4021
g49
(g50
g51
NtRp4022
(dp4023
g54
(dp4024
g62
I3
ssg63
g4018
sg56
(lp4025
S'/sitsit/default/index'
p4026
asbasbasbag49
(g65
g51
NtRp4027
(dp4028
g54
(dp4029
sg63
g3984
sg56
(lp4030
g49
(g70
g51
NtRp4031
(dp4032
g54
(dp4033
sg63
g4027
sg56
(lp4034
g49
(g50
g51
NtRp4035
(dp4036
g54
(dp4037
g62
I3
ssg63
g4031
sg56
(lp4038
g49
(g58
g51
NtRp4039
(dp4040
g54
(dp4041
g62
I2
ssg63
Nsg56
(lp4042
sbasbasbasbasbasbasbasbag49
(g65
g51
NtRp4043
(dp4044
g54
(dp4045
sg63
g3968
sg56
(lp4046
g49
(g70
g51
NtRp4047
(dp4048
g54
(dp4049
sg63
g4043
sg56
(lp4050
g49
(g50
g51
NtRp4051
(dp4052
g54
(dp4053
g62
I4
ssg63
g4047
sg56
(lp4054
g49
(g58
g51
NtRp4055
(dp4056
g54
(dp4057
g62
I3
ssg63
Nsg56
(lp4058
g49
(g65
g51
NtRp4059
(dp4060
g54
(dp4061
sg63
g4055
sg56
(lp4062
g49
(g70
g51
NtRp4063
(dp4064
g54
(dp4065
sg63
g4059
sg56
(lp4066
g49
(g50
g51
NtRp4067
(dp4068
g54
(dp4069
g62
I3
ssg63
g4063
sg56
(lp4070
g49
(cgluon.html
SPAN
p4071
g51
NtRp4072
(dp4073
g54
(dp4074
g74
S'color:yellow'
p4075
ssg63
Nsg56
(lp4076
g3946
asbasbasbasbag49
(g65
g51
NtRp4077
(dp4078
g54
(dp4079
sg63
g4055
sg56
(lp4080
g49
(g70
g51
NtRp4081
(dp4082
g54
(dp4083
sg63
g4077
sg56
(lp4084
g49
(g50
g51
NtRp4085
(dp4086
g54
(dp4087
g62
I3
ssg63
g4081
sg56
(lp4088
g904
asbasbasbag49
(g65
g51
NtRp4089
(dp4090
g54
(dp4091
sg63
g4055
sg56
(lp4092
g49
(g70
g51
NtRp4093
(dp4094
g54
(dp4095
sg63
g4089
sg56
(lp4096
g49
(g50
g51
NtRp4097
(dp4098
g54
(dp4099
g62
I3
ssg63
g4093
sg56
(lp4100
S'None'
p4101
asbasbasbag49
(g65
g51
NtRp4102
(dp4103
g54
(dp4104
sg63
g4055
sg56
(lp4105
g49
(g70
g51
NtRp4106
(dp4107
g54
(dp4108
sg63
g4102
sg56
(lp4109
g49
(g50
g51
NtRp4110
(dp4111
g54
(dp4112
g62
I3
ssg63
g4106
sg56
(lp4113
g49
(g58
g51
NtRp4114
(dp4115
g54
(dp4116
g62
I2
ssg63
Nsg56
(lp4117
g49
(g65
g51
NtRp4118
(dp4119
g54
(dp4120
sg63
g4114
sg56
(lp4121
g49
(g70
g51
NtRp4122
(dp4123
g54
(dp4124
sg63
g4118
sg56
(lp4125
g49
(g50
g51
NtRp4126
(dp4127
g54
(dp4128
g62
I2
ssg63
g4122
sg56
(lp4129
g49
(g58
g51
NtRp4130
(dp4131
g54
(dp4132
g62
I1
ssg63
Nsg56
(lp4133
g49
(g65
g51
NtRp4134
(dp4135
g54
(dp4136
sg63
g4130
sg56
(lp4137
g49
(g70
g51
NtRp4138
(dp4139
g54
(dp4140
sg63
g4134
sg56
(lp4141
g49
(g50
g51
NtRp4142
(dp4143
g54
(dp4144
g62
I1
ssg63
g4138
sg56
(lp4145
g4000
(S's\x08\x00\x00\x00My Sites'
tRp4146
asbasbasbag49
(g65
g51
NtRp4147
(dp4148
g54
(dp4149
sg63
g4130
sg56
(lp4150
g49
(g70
g51
NtRp4151
(dp4152
g54
(dp4153
sg63
g4147
sg56
(lp4154
g49
(g50
g51
NtRp4155
(dp4156
g54
(dp4157
g62
I1
ssg63
g4151
sg56
(lp4158
I00
asbasbasbag49
(g65
g51
NtRp4159
(dp4160
g54
(dp4161
sg63
g4130
sg56
(lp4162
g49
(g70
g51
NtRp4163
(dp4164
g54
(dp4165
sg63
g4159
sg56
(lp4166
g49
(g50
g51
NtRp4167
(dp4168
g54
(dp4169
g62
I1
ssg63
g4163
sg56
(lp4170
S'/admin/default/site'
p4171
asbasbasbasbasbasbasbag49
(g65
g51
NtRp4172
(dp4173
g54
(dp4174
sg63
g4114
sg56
(lp4175
g49
(g70
g51
NtRp4176
(dp4177
g54
(dp4178
sg63
g4172
sg56
(lp4179
g49
(g50
g51
NtRp4180
(dp4181
g54
(dp4182
g62
I2
ssg63
g4176
sg56
(lp4183
g49
(g58
g51
NtRp4184
(dp4185
g54
(dp4186
g62
I1
ssg63
Nsg56
(lp4187
g49
(g65
g51
NtRp4188
(dp4189
g54
(dp4190
sg63
g4184
sg56
(lp4191
g49
(g70
g51
NtRp4192
(dp4193
g54
(dp4194
sg63
g4188
sg56
(lp4195
g49
(g50
g51
NtRp4196
(dp4197
g54
(dp4198
g62
I1
ssg63
g4192
sg56
(lp4199
g4000
(S's\x08\x00\x00\x00This App'
tRp4200
asbasbasbag49
(g65
g51
NtRp4201
(dp4202
g54
(dp4203
sg63
g4184
sg56
(lp4204
g49
(g70
g51
NtRp4205
(dp4206
g54
(dp4207
sg63
g4201
sg56
(lp4208
g49
(g50
g51
NtRp4209
(dp4210
g54
(dp4211
g62
I1
ssg63
g4205
sg56
(lp4212
I00
asbasbasbag49
(g65
g51
NtRp4213
(dp4214
g54
(dp4215
sg63
g4184
sg56
(lp4216
g49
(g70
g51
NtRp4217
(dp4218
g54
(dp4219
sg63
g4213
sg56
(lp4220
g49
(g50
g51
NtRp4221
(dp4222
g54
(dp4223
g62
I1
ssg63
g4217
sg56
(lp4224
S'/admin/default/design/sitsit'
p4225
asbasbasbag49
(g65
g51
NtRp4226
(dp4227
g54
(dp4228
sg63
g4184
sg56
(lp4229
g49
(g70
g51
NtRp4230
(dp4231
g54
(dp4232
sg63
g4226
sg56
(lp4233
g49
(g50
g51
NtRp4234
(dp4235
g54
(dp4236
g62
I1
ssg63
g4230
sg56
(lp4237
(lp4238
(g4000
(S's\n\x00\x00\x00Controller'
tRp4239
I00
S'/admin/default/edit/sitsit/controllers/default.py'
tp4240
a(g4000
(S's\x04\x00\x00\x00View'
tRp4241
I00
S'/admin/default/edit/sitsit/views/default/sitsit.html'
tp4242
a(g4000
(S's\x06\x00\x00\x00Layout'
tRp4243
I00
S'/admin/default/edit/sitsit/views/layout.html'
tp4244
a(g4000
(S's\n\x00\x00\x00Stylesheet'
tRp4245
I00
S'/admin/default/edit/sitsit/static/css/web2py.css'
tp4246
a(g4000
(S's\x08\x00\x00\x00DB Model'
tRp4247
I00
S'/admin/default/edit/sitsit/models/db.py'
tp4248
a(g4000
(S's\n\x00\x00\x00Menu Model'
tRp4249
I00
S'/admin/default/edit/sitsit/models/menu.py'
tp4250
a(g4000
(S's\x08\x00\x00\x00Database'
tRp4251
I00
S'/sitsit/appadmin/index'
tp4252
a(g4000
(S's\x06\x00\x00\x00Errors'
tRp4253
I00
S'/admin/default/errors/sitsit'
tp4254
a(g4000
(S's\x05\x00\x00\x00About'
tRp4255
I00
S'/admin/default/about/sitsit'
tp4256
aasbasbasbasbasbasbasbag49
(g65
g51
NtRp4257
(dp4258
g54
(dp4259
sg63
g4114
sg56
(lp4260
g49
(g70
g51
NtRp4261
(dp4262
g54
(dp4263
sg63
g4257
sg56
(lp4264
g49
(g50
g51
NtRp4265
(dp4266
g54
(dp4267
g62
I2
ssg63
g4261
sg56
(lp4268
g49
(g58
g51
NtRp4269
(dp4270
g54
(dp4271
g62
I1
ssg63
Nsg56
(lp4272
g49
(g65
g51
NtRp4273
(dp4274
g54
(dp4275
sg63
g4269
sg56
(lp4276
g49
(g70
g51
NtRp4277
(dp4278
g54
(dp4279
sg63
g4273
sg56
(lp4280
g49
(g50
g51
NtRp4281
(dp4282
g54
(dp4283
g62
I1
ssg63
g4277
sg56
(lp4284
S'web2py.com'
p4285
asbasbasbag49
(g65
g51
NtRp4286
(dp4287
g54
(dp4288
sg63
g4269
sg56
(lp4289
g49
(g70
g51
NtRp4290
(dp4291
g54
(dp4292
sg63
g4286
sg56
(lp4293
g49
(g50
g51
NtRp4294
(dp4295
g54
(dp4296
g62
I1
ssg63
g4290
sg56
(lp4297
I00
asbasbasbag49
(g65
g51
NtRp4298
(dp4299
g54
(dp4300
sg63
g4269
sg56
(lp4301
g49
(g70
g51
NtRp4302
(dp4303
g54
(dp4304
sg63
g4298
sg56
(lp4305
g49
(g50
g51
NtRp4306
(dp4307
g54
(dp4308
g62
I1
ssg63
g4302
sg56
(lp4309
S'http://www.web2py.com'
p4310
asbasbasbag49
(g65
g51
NtRp4311
(dp4312
g54
(dp4313
sg63
g4269
sg56
(lp4314
g49
(g70
g51
NtRp4315
(dp4316
g54
(dp4317
sg63
g4311
sg56
(lp4318
g49
(g50
g51
NtRp4319
(dp4320
g54
(dp4321
g62
I1
ssg63
g4315
sg56
(lp4322
(lp4323
(g4000
(S's\x08\x00\x00\x00Download'
tRp4324
I00
S'http://www.web2py.com/examples/default/download'
p4325
tp4326
a(g4000
(S's\x07\x00\x00\x00Support'
tRp4327
I00
S'http://www.web2py.com/examples/default/support'
p4328
tp4329
a(g4000
(S's\x04\x00\x00\x00Demo'
tRp4330
I00
S'http://web2py.com/demo_admin'
p4331
tp4332
a(g4000
(S's\x0e\x00\x00\x00Quick Examples'
tRp4333
I00
S'http://web2py.com/examples/default/examples'
p4334
tp4335
a(g4000
(S's\x03\x00\x00\x00FAQ'
tRp4336
I00
S'http://web2py.com/AlterEgo'
p4337
tp4338
a(g4000
(S's\x06\x00\x00\x00Videos'
tRp4339
I00
S'http://www.web2py.com/examples/default/videos/'
p4340
tp4341
a(g4000
(S's\x11\x00\x00\x00Free Applications'
tRp4342
I00
S'http://web2py.com/appliances'
p4343
tp4344
a(g4000
(S's\x07\x00\x00\x00Plugins'
tRp4345
I00
S'http://web2py.com/plugins'
p4346
tp4347
a(g4000
(S's\x07\x00\x00\x00Layouts'
tRp4348
I00
S'http://web2py.com/layouts'
p4349
tp4350
a(g4000
(S's\x07\x00\x00\x00Recipes'
tRp4351
I00
S'http://web2pyslices.com/'
p4352
tp4353
a(g4000
(S's\x08\x00\x00\x00Semantic'
tRp4354
I00
S'http://web2py.com/semantic'
p4355
tp4356
aasbasbasbasbasbasbasbag49
(g65
g51
NtRp4357
(dp4358
g54
(dp4359
sg63
g4114
sg56
(lp4360
g49
(g70
g51
NtRp4361
(dp4362
g54
(dp4363
sg63
g4357
sg56
(lp4364
g49
(g50
g51
NtRp4365
(dp4366
g54
(dp4367
g62
I2
ssg63
g4361
sg56
(lp4368
g49
(g58
g51
NtRp4369
(dp4370
g54
(dp4371
g62
I1
ssg63
Nsg56
(lp4372
g49
(g65
g51
NtRp4373
(dp4374
g54
(dp4375
sg63
g4369
sg56
(lp4376
g49
(g70
g51
NtRp4377
(dp4378
g54
(dp4379
sg63
g4373
sg56
(lp4380
g49
(g50
g51
NtRp4381
(dp4382
g54
(dp4383
g62
I1
ssg63
g4377
sg56
(lp4384
g4000
(S's\r\x00\x00\x00Documentation'
tRp4385
asbasbasbag49
(g65
g51
NtRp4386
(dp4387
g54
(dp4388
sg63
g4369
sg56
(lp4389
g49
(g70
g51
NtRp4390
(dp4391
g54
(dp4392
sg63
g4386
sg56
(lp4393
g49
(g50
g51
NtRp4394
(dp4395
g54
(dp4396
g62
I1
ssg63
g4390
sg56
(lp4397
I00
asbasbasbag49
(g65
g51
NtRp4398
(dp4399
g54
(dp4400
sg63
g4369
sg56
(lp4401
g49
(g70
g51
NtRp4402
(dp4403
g54
(dp4404
sg63
g4398
sg56
(lp4405
g49
(g50
g51
NtRp4406
(dp4407
g54
(dp4408
g62
I1
ssg63
g4402
sg56
(lp4409
S'http://www.web2py.com/book'
p4410
asbasbasbag49
(g65
g51
NtRp4411
(dp4412
g54
(dp4413
sg63
g4369
sg56
(lp4414
g49
(g70
g51
NtRp4415
(dp4416
g54
(dp4417
sg63
g4411
sg56
(lp4418
g49
(g50
g51
NtRp4419
(dp4420
g54
(dp4421
g62
I1
ssg63
g4415
sg56
(lp4422
(lp4423
(g4000
(S's\x07\x00\x00\x00Preface'
tRp4424
I00
S'http://www.web2py.com/book/default/chapter/00'
p4425
tp4426
a(g4000
(S's\x0c\x00\x00\x00Introduction'
tRp4427
I00
S'http://www.web2py.com/book/default/chapter/01'
p4428
tp4429
a(g4000
(S's\x06\x00\x00\x00Python'
tRp4430
I00
S'http://www.web2py.com/book/default/chapter/02'
p4431
tp4432
a(g4000
(S's\x08\x00\x00\x00Overview'
tRp4433
I00
S'http://www.web2py.com/book/default/chapter/03'
p4434
tp4435
a(g4000
(S's\x08\x00\x00\x00The Core'
tRp4436
I00
S'http://www.web2py.com/book/default/chapter/04'
p4437
tp4438
a(g4000
(S's\t\x00\x00\x00The Views'
tRp4439
I00
S'http://www.web2py.com/book/default/chapter/05'
p4440
tp4441
a(g4000
(S's\x08\x00\x00\x00Database'
tRp4442
I00
S'http://www.web2py.com/book/default/chapter/06'
p4443
tp4444
a(g4000
(S's\x14\x00\x00\x00Forms and Validators'
tRp4445
I00
S'http://www.web2py.com/book/default/chapter/07'
p4446
tp4447
a(g4000
(S's\r\x00\x00\x00Email and SMS'
tRp4448
I00
S'http://www.web2py.com/book/default/chapter/08'
p4449
tp4450
a(g4000
(S's\x0e\x00\x00\x00Access Control'
tRp4451
I00
S'http://www.web2py.com/book/default/chapter/09'
p4452
tp4453
a(g4000
(S's\x08\x00\x00\x00Services'
tRp4454
I00
S'http://www.web2py.com/book/default/chapter/10'
p4455
tp4456
a(g4000
(S's\x0c\x00\x00\x00Ajax Recipes'
tRp4457
I00
S'http://www.web2py.com/book/default/chapter/11'
p4458
tp4459
a(g4000
(S's\x16\x00\x00\x00Components and Plugins'
tRp4460
I00
S'http://www.web2py.com/book/default/chapter/12'
p4461
tp4462
a(g4000
(S's\x12\x00\x00\x00Deployment Recipes'
tRp4463
I00
S'http://www.web2py.com/book/default/chapter/13'
p4464
tp4465
a(g4000
(S's\r\x00\x00\x00Other Recipes'
tRp4466
I00
S'http://www.web2py.com/book/default/chapter/14'
p4467
tp4468
a(g4000
(S's\r\x00\x00\x00Buy this book'
tRp4469
I00
S'http://stores.lulu.com/web2py'
p4470
tp4471
aasbasbasbasbasbasbasbag49
(g65
g51
NtRp4472
(dp4473
g54
(dp4474
sg63
g4114
sg56
(lp4475
g49
(g70
g51
NtRp4476
(dp4477
g54
(dp4478
sg63
g4472
sg56
(lp4479
g49
(g50
g51
NtRp4480
(dp4481
g54
(dp4482
g62
I2
ssg63
g4476
sg56
(lp4483
g49
(g58
g51
NtRp4484
(dp4485
g54
(dp4486
g62
I1
ssg63
Nsg56
(lp4487
g49
(g65
g51
NtRp4488
(dp4489
g54
(dp4490
sg63
g4484
sg56
(lp4491
g49
(g70
g51
NtRp4492
(dp4493
g54
(dp4494
sg63
g4488
sg56
(lp4495
g49
(g50
g51
NtRp4496
(dp4497
g54
(dp4498
g62
I1
ssg63
g4492
sg56
(lp4499
g4000
(S's\t\x00\x00\x00Community'
tRp4500
asbasbasbag49
(g65
g51
NtRp4501
(dp4502
g54
(dp4503
sg63
g4484
sg56
(lp4504
g49
(g70
g51
NtRp4505
(dp4506
g54
(dp4507
sg63
g4501
sg56
(lp4508
g49
(g50
g51
NtRp4509
(dp4510
g54
(dp4511
g62
I1
ssg63
g4505
sg56
(lp4512
I00
asbasbasbag49
(g65
g51
NtRp4513
(dp4514
g54
(dp4515
sg63
g4484
sg56
(lp4516
g49
(g70
g51
NtRp4517
(dp4518
g54
(dp4519
sg63
g4513
sg56
(lp4520
g49
(g50
g51
NtRp4521
(dp4522
g54
(dp4523
g62
I1
ssg63
g4517
sg56
(lp4524
Nasbasbasbag49
(g65
g51
NtRp4525
(dp4526
g54
(dp4527
sg63
g4484
sg56
(lp4528
g49
(g70
g51
NtRp4529
(dp4530
g54
(dp4531
sg63
g4525
sg56
(lp4532
g49
(g50
g51
NtRp4533
(dp4534
g54
(dp4535
g62
I1
ssg63
g4529
sg56
(lp4536
(lp4537
(g4000
(S's\x06\x00\x00\x00Groups'
tRp4538
I00
S'http://www.web2py.com/examples/default/usergroups'
p4539
tp4540
a(g4000
(S's\x07\x00\x00\x00Twitter'
tRp4541
I00
S'http://twitter.com/web2py'
p4542
tp4543
a(g4000
(S's\t\x00\x00\x00Live Chat'
tRp4544
I00
S'http://webchat.freenode.net/?channels=web2py'
p4545
tp4546
aasbasbasbasbasbasbasbag49
(g65
g51
NtRp4547
(dp4548
g54
(dp4549
sg63
g4114
sg56
(lp4550
g49
(g70
g51
NtRp4551
(dp4552
g54
(dp4553
sg63
g4547
sg56
(lp4554
g49
(g50
g51
NtRp4555
(dp4556
g54
(dp4557
g62
I2
ssg63
g4551
sg56
(lp4558
g49
(g58
g51
NtRp4559
(dp4560
g54
(dp4561
g62
I1
ssg63
Nsg56
(lp4562
g49
(g65
g51
NtRp4563
(dp4564
g54
(dp4565
sg63
g4559
sg56
(lp4566
g49
(g70
g51
NtRp4567
(dp4568
g54
(dp4569
sg63
g4563
sg56
(lp4570
g49
(g50
g51
NtRp4571
(dp4572
g54
(dp4573
g62
I1
ssg63
g4567
sg56
(lp4574
g4000
(S's\x07\x00\x00\x00Plugins'
tRp4575
asbasbasbag49
(g65
g51
NtRp4576
(dp4577
g54
(dp4578
sg63
g4559
sg56
(lp4579
g49
(g70
g51
NtRp4580
(dp4581
g54
(dp4582
sg63
g4576
sg56
(lp4583
g49
(g50
g51
NtRp4584
(dp4585
g54
(dp4586
g62
I1
ssg63
g4580
sg56
(lp4587
I00
asbasbasbag49
(g65
g51
NtRp4588
(dp4589
g54
(dp4590
sg63
g4559
sg56
(lp4591
g49
(g70
g51
NtRp4592
(dp4593
g54
(dp4594
sg63
g4588
sg56
(lp4595
g49
(g50
g51
NtRp4596
(dp4597
g54
(dp4598
g62
I1
ssg63
g4592
sg56
(lp4599
Nasbasbasbag49
(g65
g51
NtRp4600
(dp4601
g54
(dp4602
sg63
g4559
sg56
(lp4603
g49
(g70
g51
NtRp4604
(dp4605
g54
(dp4606
sg63
g4600
sg56
(lp4607
g49
(g50
g51
NtRp4608
(dp4609
g54
(dp4610
g62
I1
ssg63
g4604
sg56
(lp4611
(lp4612
(S'plugin_wiki'
p4613
I00
S'http://web2py.com/examples/default/download'
p4614
tp4615
a(g4000
(S's\r\x00\x00\x00Other Plugins'
tRp4616
I00
g4346
tp4617
a(g4000
(S's\x0e\x00\x00\x00Layout Plugins'
tRp4618
I00
g4349
tp4619
aasbasbasbasbasbasbasbasbasbasbasbasbasbasbasbasbasbasbasbag49
(g65
g51
NtRp4620
(dp4621
g54
(dp4622
sg63
g3464
sg56
(lp4623
g49
(g70
g51
NtRp4624
(dp4625
g54
(dp4626
g74
g75
ssg63
g4620
sg56
(lp4627
S'meta'
p4628
asbag49
(g70
g51
NtRp4629
(dp4630
g54
(dp4631
g81
g82
ssg63
g4620
sg56
(lp4632
S':'
asbag49
(g70
g51
NtRp4633
(dp4634
g54
(dp4635
sg63
g4620
sg56
(lp4636
g49
(g50
g51
NtRp4637
(dp4638
g54
(dp4639
g62
I5
ssg63
g4633
sg56
(lp4640
g49
(g58
g51
NtRp4641
(dp4642
g54
(dp4643
g62
I4
ssg63
Nsg56
(lp4644
g49
(g65
g51
NtRp4645
(dp4646
g54
(dp4647
sg63
g4641
sg56
(lp4648
g49
(g70
g51
NtRp4649
(dp4650
g54
(dp4651
g74
g75
ssg63
g4645
sg56
(lp4652
S'author'
p4653
asbag49
(g70
g51
NtRp4654
(dp4655
g54
(dp4656
g81
g82
ssg63
g4645
sg56
(lp4657
S':'
asbag49
(g70
g51
NtRp4658
(dp4659
g54
(dp4660
sg63
g4645
sg56
(lp4661
g49
(g50
g51
NtRp4662
(dp4663
g54
(dp4664
g62
I4
ssg63
g4658
sg56
(lp4665
S'Your Name <you@example.com>'
p4666
asbasbasbag49
(g65
g51
NtRp4667
(dp4668
g54
(dp4669
sg63
g4641
sg56
(lp4670
g49
(g70
g51
NtRp4671
(dp4672
g54
(dp4673
g74
g75
ssg63
g4667
sg56
(lp4674
S'copyright'
p4675
asbag49
(g70
g51
NtRp4676
(dp4677
g54
(dp4678
g81
g82
ssg63
g4667
sg56
(lp4679
S':'
asbag49
(g70
g51
NtRp4680
(dp4681
g54
(dp4682
sg63
g4667
sg56
(lp4683
g49
(g50
g51
NtRp4684
(dp4685
g54
(dp4686
g62
I4
ssg63
g4680
sg56
(lp4687
S'Copyright 2011'
p4688
asbasbasbag49
(g65
g51
NtRp4689
(dp4690
g54
(dp4691
sg63
g4641
sg56
(lp4692
g49
(g70
g51
NtRp4693
(dp4694
g54
(dp4695
g74
g75
ssg63
g4689
sg56
(lp4696
S'description'
p4697
asbag49
(g70
g51
NtRp4698
(dp4699
g54
(dp4700
g81
g82
ssg63
g4689
sg56
(lp4701
S':'
asbag49
(g70
g51
NtRp4702
(dp4703
g54
(dp4704
sg63
g4689
sg56
(lp4705
g49
(g50
g51
NtRp4706
(dp4707
g54
(dp4708
g62
I4
ssg63
g4702
sg56
(lp4709
S'a cool new app'
p4710
asbasbasbag49
(g65
g51
NtRp4711
(dp4712
g54
(dp4713
sg63
g4641
sg56
(lp4714
g49
(g70
g51
NtRp4715
(dp4716
g54
(dp4717
g74
g75
ssg63
g4711
sg56
(lp4718
S'generator'
p4719
asbag49
(g70
g51
NtRp4720
(dp4721
g54
(dp4722
g81
g82
ssg63
g4711
sg56
(lp4723
S':'
asbag49
(g70
g51
NtRp4724
(dp4725
g54
(dp4726
sg63
g4711
sg56
(lp4727
g49
(g50
g51
NtRp4728
(dp4729
g54
(dp4730
g62
I4
ssg63
g4724
sg56
(lp4731
S'Web2py Web Framework'
p4732
asbasbasbag49
(g65
g51
NtRp4733
(dp4734
g54
(dp4735
sg63
g4641
sg56
(lp4736
g49
(g70
g51
NtRp4737
(dp4738
g54
(dp4739
g74
g75
ssg63
g4733
sg56
(lp4740
S'keywords'
p4741
asbag49
(g70
g51
NtRp4742
(dp4743
g54
(dp4744
g81
g82
ssg63
g4733
sg56
(lp4745
S':'
asbag49
(g70
g51
NtRp4746
(dp4747
g54
(dp4748
sg63
g4733
sg56
(lp4749
g49
(g50
g51
NtRp4750
(dp4751
g54
(dp4752
g62
I4
ssg63
g4746
sg56
(lp4753
S'web2py, python, framework'
p4754
asbasbasbasbasbasbasbag49
(g65
g51
NtRp4755
(dp4756
g54
(dp4757
sg63
g3464
sg56
(lp4758
g49
(g70
g51
NtRp4759
(dp4760
g54
(dp4761
g74
g75
ssg63
g4755
sg56
(lp4762
S'postprocessing'
p4763
asbag49
(g70
g51
NtRp4764
(dp4765
g54
(dp4766
g81
g82
ssg63
g4755
sg56
(lp4767
S':'
asbag49
(g70
g51
NtRp4768
(dp4769
g54
(dp4770
sg63
g4755
sg56
(lp4771
g49
(g50
g51
NtRp4772
(dp4773
g54
(dp4774
g62
I5
ssg63
g4768
sg56
(lp4775
g49
(g58
g51
NtRp4776
(dp4777
g54
(dp4778
g62
I4
ssg63
Nsg56
(lp4779
sbasbasbasbag49
(g65
g51
NtRp4780
(dp4781
g54
(dp4782
sg63
g3464
sg56
(lp4783
g49
(g70
g51
NtRp4784
(dp4785
g54
(dp4786
g74
g75
ssg63
g4780
sg56
(lp4787
S'session_file'
p4788
asbag49
(g70
g51
NtRp4789
(dp4790
g54
(dp4791
g81
g82
ssg63
g4780
sg56
(lp4792
S':'
asbag49
(g70
g51
NtRp4793
(dp4794
g54
(dp4795
sg63
g4780
sg56
(lp4796
g49
(g50
g51
NtRp4797
(dp4798
g54
(dp4799
g62
I5
ssg63
g4793
sg56
(lp4800
S"<open file 'C:\\Users\\Osku\\koodaus\\web2py\\applications\\sitsit\\sessions\\127.0.0.1-ec2284ba-32fe-4a19-9a6f-e97c370381b5', mode 'rb+' at 0x04E10530>"
p4801
asbasbasbag49
(g65
g51
NtRp4802
(dp4803
g54
(dp4804
sg63
g3464
sg56
(lp4805
g49
(g70
g51
NtRp4806
(dp4807
g54
(dp4808
g74
g75
ssg63
g4802
sg56
(lp4809
S'session_filename'
p4810
asbag49
(g70
g51
NtRp4811
(dp4812
g54
(dp4813
g81
g82
ssg63
g4802
sg56
(lp4814
S':'
asbag49
(g70
g51
NtRp4815
(dp4816
g54
(dp4817
sg63
g4802
sg56
(lp4818
g49
(g50
g51
NtRp4819
(dp4820
g54
(dp4821
g62
I5
ssg63
g4815
sg56
(lp4822
S'C:\\Users\\Osku\\koodaus\\web2py\\applications\\sitsit\\sessions\\127.0.0.1-ec2284ba-32fe-4a19-9a6f-e97c370381b5'
p4823
asbasbasbag49
(g65
g51
NtRp4824
(dp4825
g54
(dp4826
sg63
g3464
sg56
(lp4827
g49
(g70
g51
NtRp4828
(dp4829
g54
(dp4830
g74
g75
ssg63
g4824
sg56
(lp4831
S'session_id'
p4832
asbag49
(g70
g51
NtRp4833
(dp4834
g54
(dp4835
g81
g82
ssg63
g4824
sg56
(lp4836
S':'
asbag49
(g70
g51
NtRp4837
(dp4838
g54
(dp4839
sg63
g4824
sg56
(lp4840
g49
(g50
g51
NtRp4841
(dp4842
g54
(dp4843
g62
I5
ssg63
g4837
sg56
(lp4844
S'127.0.0.1-ec2284ba-32fe-4a19-9a6f-e97c370381b5'
p4845
asbasbasbag49
(g65
g51
NtRp4846
(dp4847
g54
(dp4848
sg63
g3464
sg56
(lp4849
g49
(g70
g51
NtRp4850
(dp4851
g54
(dp4852
g74
g75
ssg63
g4846
sg56
(lp4853
S'session_id_name'
p4854
asbag49
(g70
g51
NtRp4855
(dp4856
g54
(dp4857
g81
g82
ssg63
g4846
sg56
(lp4858
S':'
asbag49
(g70
g51
NtRp4859
(dp4860
g54
(dp4861
sg63
g4846
sg56
(lp4862
g49
(g50
g51
NtRp4863
(dp4864
g54
(dp4865
g62
I5
ssg63
g4859
sg56
(lp4866
g3521
asbasbasbag49
(g65
g51
NtRp4867
(dp4868
g54
(dp4869
sg63
g3464
sg56
(lp4870
g49
(g70
g51
NtRp4871
(dp4872
g54
(dp4873
g74
g75
ssg63
g4867
sg56
(lp4874
S'session_locked'
p4875
asbag49
(g70
g51
NtRp4876
(dp4877
g54
(dp4878
g81
g82
ssg63
g4867
sg56
(lp4879
S':'
asbag49
(g70
g51
NtRp4880
(dp4881
g54
(dp4882
sg63
g4867
sg56
(lp4883
g49
(g50
g51
NtRp4884
(dp4885
g54
(dp4886
g62
I5
ssg63
g4880
sg56
(lp4887
g92
asbasbasbag49
(g65
g51
NtRp4888
(dp4889
g54
(dp4890
sg63
g3464
sg56
(lp4891
g49
(g70
g51
NtRp4892
(dp4893
g54
(dp4894
g74
g75
ssg63
g4888
sg56
(lp4895
S'session_new'
p4896
asbag49
(g70
g51
NtRp4897
(dp4898
g54
(dp4899
g81
g82
ssg63
g4888
sg56
(lp4900
S':'
asbag49
(g70
g51
NtRp4901
(dp4902
g54
(dp4903
sg63
g4888
sg56
(lp4904
g49
(g50
g51
NtRp4905
(dp4906
g54
(dp4907
g62
I5
ssg63
g4901
sg56
(lp4908
g904
asbasbasbag49
(g65
g51
NtRp4909
(dp4910
g54
(dp4911
sg63
g3464
sg56
(lp4912
g49
(g70
g51
NtRp4913
(dp4914
g54
(dp4915
g74
g75
ssg63
g4909
sg56
(lp4916
S'status'
p4917
asbag49
(g70
g51
NtRp4918
(dp4919
g54
(dp4920
g81
g82
ssg63
g4909
sg56
(lp4921
S':'
asbag49
(g70
g51
NtRp4922
(dp4923
g54
(dp4924
sg63
g4909
sg56
(lp4925
g49
(g50
g51
NtRp4926
(dp4927
g54
(dp4928
g62
I5
ssg63
g4922
sg56
(lp4929
S'200'
p4930
asbasbasbag49
(g65
g51
NtRp4931
(dp4932
g54
(dp4933
sg63
g3464
sg56
(lp4934
g49
(g70
g51
NtRp4935
(dp4936
g54
(dp4937
g74
g75
ssg63
g4931
sg56
(lp4938
S'subtitle'
p4939
asbag49
(g70
g51
NtRp4940
(dp4941
g54
(dp4942
g81
g82
ssg63
g4931
sg56
(lp4943
S':'
asbag49
(g70
g51
NtRp4944
(dp4945
g54
(dp4946
sg63
g4931
sg56
(lp4947
g49
(g50
g51
NtRp4948
(dp4949
g54
(dp4950
g62
I5
ssg63
g4944
sg56
(lp4951
g4000
(S's\r\x00\x00\x00customize me!'
tRp4952
asbasbasbag49
(g65
g51
NtRp4953
(dp4954
g54
(dp4955
sg63
g3464
sg56
(lp4956
g49
(g70
g51
NtRp4957
(dp4958
g54
(dp4959
g74
g75
ssg63
g4953
sg56
(lp4960
S'title'
p4961
asbag49
(g70
g51
NtRp4962
(dp4963
g54
(dp4964
g81
g82
ssg63
g4953
sg56
(lp4965
S':'
asbag49
(g70
g51
NtRp4966
(dp4967
g54
(dp4968
sg63
g4953
sg56
(lp4969
g49
(g50
g51
NtRp4970
(dp4971
g54
(dp4972
g62
I5
ssg63
g4966
sg56
(lp4973
S'Sitsit'
p4974
asbasbasbag49
(g65
g51
NtRp4975
(dp4976
g54
(dp4977
sg63
g3464
sg56
(lp4978
g49
(g70
g51
NtRp4979
(dp4980
g54
(dp4981
g74
g75
ssg63
g4975
sg56
(lp4982
g2330
asbag49
(g70
g51
NtRp4983
(dp4984
g54
(dp4985
g81
g82
ssg63
g4975
sg56
(lp4986
S':'
asbag49
(g70
g51
NtRp4987
(dp4988
g54
(dp4989
sg63
g4975
sg56
(lp4990
g49
(g50
g51
NtRp4991
(dp4992
g54
(dp4993
g62
I5
ssg63
g4987
sg56
(lp4994
g2343
asbasbasbag49
(g65
g51
NtRp4995
(dp4996
g54
(dp4997
sg63
g3464
sg56
(lp4998
g49
(g70
g51
NtRp4999
(dp5000
g54
(dp5001
g74
g75
ssg63
g4995
sg56
(lp5002
S'view'
p5003
asbag49
(g70
g51
NtRp5004
(dp5005
g54
(dp5006
g81
g82
ssg63
g4995
sg56
(lp5007
S':'
asbag49
(g70
g51
NtRp5008
(dp5009
g54
(dp5010
sg63
g4995
sg56
(lp5011
g49
(g50
g51
NtRp5012
(dp5013
g54
(dp5014
g62
I5
ssg63
g5008
sg56
(lp5015
S'default/sitsit.html'
p5016
asbasbasbasbasbsS'locals'
p5017
(dp5018
S'self'
p5019
S"<Table {'_db': <DAL {'auth_event': <Table {'orig..., '_id': <gluon.dal.Field object at 0x024466D0>}>"
p5020
sS'key'
p5021
S"'echo'"
p5022
sssS'traceback'
p5023
S'Traceback (most recent call last):\n  File "gluon/restricted.py", line 205, in restricted\n  File "C:\\Users\\Osku\\koodaus\\web2py\\applications\\sitsit\\controllers/default.py", line 97, in <module>\n  File "gluon/globals.py", line 173, in <lambda>\n  File "C:\\Users\\Osku\\koodaus\\web2py\\applications\\sitsit\\controllers/default.py", line 30, in sitsit\n  File "gluon/dal.py", line 6714, in __getitem__\nKeyError: \'echo\'\n'
p5024
s.