(dp1
S'output'
p2
S"<type 'exceptions.AttributeError'> 'NoneType' object has no attribute 'owner'"
p3
sS'layer'
p4
S'C:\\Users\\Osku\\koodaus\\web2py\\applications\\sitsit\\controllers/default.py'
p5
sS'code'
p6
S'# -*- coding: utf-8 -*-\n# this file is released under public domain and you can use without limitations\n\n#########################################################################\n## This is a samples controller\n## - index is the default action of any application\n## - user is required for authentication and authorization\n## - download is for downloading files uploaded in the db (does streaming)\n## - call exposes all registered services (none by default)\n#########################################################################\n\ndef index():\n    """\n    example action using the internationalization operator T and flash\n    rendered by views/default/index.html or views/generic.html\n    """\n    response.flash = "Welcome to web2py!"\n    return dict(message=T(\'Hello World\'))\n\n\ndef sitsit(): \n\tif len(request.args) == 0:\n\t\tresponse.view = "%s/%s.%s" % (request.controller, request.function+"new", request.extension)\n\t\tform = SQLFORM(db.party)\n\t\tif form.process().accepted:\n\t\t\treturn redirect(URL(args=form.vars.id))\n\t\treturn dict(form=form)\n\tif len(request.args):\n\t\tsitsiID = request.args[0]\n\t\tsitsi = db.party[sitsiID]\n\t\tpeople = db(db.guest_party_attending.party == sitsiID).select().as_dict()\n\t\towner=False\n\t\tif auth.is_logged_in():\n\t\t\tif auth.user.id == sitsi.owner:\n\t\t\t\towner=True\n\t\tif sitsit:\n\t\t\treturn dict(sitsi=sitsi.as_dict(),found=True,people=people,owner=owner)\n\t\telse:\n\t\t\treturn dict(found=False)\n\ndef user():\n    """\n    exposes:\n    http://..../[app]/default/user/login\n    http://..../[app]/default/user/logout\n    http://..../[app]/default/user/register\n    http://..../[app]/default/user/profile\n    http://..../[app]/default/user/retrieve_password\n    http://..../[app]/default/user/change_password\n    use @auth.requires_login()\n        @auth.requires_membership(\'group name\')\n        @auth.requires_permission(\'read\',\'table name\',record_id)\n    to decorate functions that need access control\n    """\n    return dict(form=auth())\n\n\ndef download():\n    """\n    allows downloading of uploaded files\n    http://..../[app]/default/download/[filename]\n    """\n    return response.download(request,db)\n\n\ndef call():\n    """\n    exposes services. for example:\n    http://..../[app]/default/call/jsonrpc\n    decorate with @services.jsonrpc the functions to expose\n    supports xml, json, xmlrpc, jsonrpc, amfrpc, rss, csv\n    """\n    return service()\n\n\n@auth.requires_signature()\ndef data():\n    """\n    http://..../[app]/default/data/tables\n    http://..../[app]/default/data/create/[table]\n    http://..../[app]/default/data/read/[table]/[id]\n    http://..../[app]/default/data/update/[table]/[id]\n    http://..../[app]/default/data/delete/[table]/[id]\n    http://..../[app]/default/data/select/[table]\n    http://..../[app]/default/data/search/[table]\n    but URLs must be signed, i.e. linked with\n      A(\'table\',_href=URL(\'data/tables\',user_signature=True))\n    or with the signed load operator\n      LOAD(\'default\',\'data.load\',args=\'tables\',ajax=True,user_signature=True)\n    """\n    return dict(form=crud())\n\n\nresponse._vars=response._caller(sitsit)\n'
p7
sS'snapshot'
p8
(dp9
S'exception'
p10
(dp11
S'__hash__'
p12
S"<method-wrapper '__hash__' of exceptions.AttributeError object at 0x04ED3B48>"
p13
sS'__setattr__'
p14
S"<method-wrapper '__setattr__' of exceptions.AttributeError object at 0x04ED3B48>"
p15
sS'__reduce_ex__'
p16
S'<built-in method __reduce_ex__ of exceptions.AttributeError object at 0x04ED3B48>'
p17
sS'__getslice__'
p18
S"<method-wrapper '__getslice__' of exceptions.AttributeError object at 0x04ED3B48>"
p19
sS'__getitem__'
p20
S"<method-wrapper '__getitem__' of exceptions.AttributeError object at 0x04ED3B48>"
p21
sS'__setstate__'
p22
S'<built-in method __setstate__ of exceptions.AttributeError object at 0x04ED3B48>'
p23
sS'__reduce__'
p24
S'<built-in method __reduce__ of exceptions.AttributeError object at 0x04ED3B48>'
p25
sS'__str__'
p26
S"<method-wrapper '__str__' of exceptions.AttributeError object at 0x04ED3B48>"
p27
sS'args'
p28
S'("\'NoneType\' object has no attribute \'owner\'",)'
p29
sS'__getattribute__'
p30
S"<method-wrapper '__getattribute__' of exceptions.AttributeError object at 0x04ED3B48>"
p31
sS'__class__'
p32
S"<type 'exceptions.AttributeError'>"
p33
sS'__delattr__'
p34
S"<method-wrapper '__delattr__' of exceptions.AttributeError object at 0x04ED3B48>"
p35
sS'__repr__'
p36
S"<method-wrapper '__repr__' of exceptions.AttributeError object at 0x04ED3B48>"
p37
sS'__dict__'
p38
S'{}'
p39
sS'__doc__'
p40
S"'Attribute not found.'"
p41
sS'__init__'
p42
S"<method-wrapper '__init__' of exceptions.AttributeError object at 0x04ED3B48>"
p43
sS'__new__'
p44
S'<built-in method __new__ of type object at 0x1E1CDA68>'
p45
ssS'evalue'
p46
S"'NoneType' object has no attribute 'owner'"
p47
sS'request'
p48
ccopy_reg
_reconstructor
p49
(cgluon.html
BEAUTIFY
p50
c__builtin__
object
p51
NtRp52
(dp53
S'attributes'
p54
(dp55
sS'components'
p56
(lp57
g49
(cgluon.html
TABLE
p58
g51
NtRp59
(dp60
g54
(dp61
S'level'
p62
I5
ssS'parent'
p63
Nsg56
(lp64
g49
(cgluon.html
TR
p65
g51
NtRp66
(dp67
g54
(dp68
sg63
g59
sg56
(lp69
g49
(cgluon.html
TD
p70
g51
NtRp71
(dp72
g54
(dp73
S'_style'
p74
S'font-weight:bold;vertical-align:top'
p75
ssg63
g66
sg56
(lp76
S'ajax'
p77
asbag49
(g70
g51
NtRp78
(dp79
g54
(dp80
S'_valign'
p81
S'top'
p82
ssg63
g66
sg56
(lp83
S':'
asbag49
(g70
g51
NtRp84
(dp85
g54
(dp86
sg63
g66
sg56
(lp87
g49
(g50
g51
NtRp88
(dp89
g54
(dp90
g62
I5
ssg63
g84
sg56
(lp91
S'False'
p92
asbasbasbag49
(g65
g51
NtRp93
(dp94
g54
(dp95
sg63
g59
sg56
(lp96
g49
(g70
g51
NtRp97
(dp98
g54
(dp99
g74
g75
ssg63
g93
sg56
(lp100
S'application'
p101
asbag49
(g70
g51
NtRp102
(dp103
g54
(dp104
g81
g82
ssg63
g93
sg56
(lp105
S':'
asbag49
(g70
g51
NtRp106
(dp107
g54
(dp108
sg63
g93
sg56
(lp109
g49
(g50
g51
NtRp110
(dp111
g54
(dp112
g62
I5
ssg63
g106
sg56
(lp113
S'sitsit'
p114
asbasbasbag49
(g65
g51
NtRp115
(dp116
g54
(dp117
sg63
g59
sg56
(lp118
g49
(g70
g51
NtRp119
(dp120
g54
(dp121
g74
g75
ssg63
g115
sg56
(lp122
g28
asbag49
(g70
g51
NtRp123
(dp124
g54
(dp125
g81
g82
ssg63
g115
sg56
(lp126
S':'
asbag49
(g70
g51
NtRp127
(dp128
g54
(dp129
sg63
g115
sg56
(lp130
g49
(g50
g51
NtRp131
(dp132
g54
(dp133
g62
I5
ssg63
g127
sg56
(lp134
g49
(g58
g51
NtRp135
(dp136
g54
(dp137
g62
I4
ssg63
Nsg56
(lp138
g49
(g65
g51
NtRp139
(dp140
g54
(dp141
sg63
g135
sg56
(lp142
g49
(g70
g51
NtRp143
(dp144
g54
(dp145
sg63
g139
sg56
(lp146
g49
(g50
g51
NtRp147
(dp148
g54
(dp149
g62
I4
ssg63
g143
sg56
(lp150
S'10'
p151
asbasbasbasbasbasbasbag49
(g65
g51
NtRp152
(dp153
g54
(dp154
sg63
g59
sg56
(lp155
g49
(g70
g51
NtRp156
(dp157
g54
(dp158
g74
g75
ssg63
g152
sg56
(lp159
S'body'
p160
asbag49
(g70
g51
NtRp161
(dp162
g54
(dp163
g81
g82
ssg63
g152
sg56
(lp164
S':'
asbag49
(g70
g51
NtRp165
(dp166
g54
(dp167
sg63
g152
sg56
(lp168
g49
(g50
g51
NtRp169
(dp170
g54
(dp171
g62
I5
ssg63
g165
sg56
(lp172
S'<cStringIO.StringO object at 0x0580A060>'
p173
asbasbasbag49
(g65
g51
NtRp174
(dp175
g54
(dp176
sg63
g59
sg56
(lp177
g49
(g70
g51
NtRp178
(dp179
g54
(dp180
g74
g75
ssg63
g174
sg56
(lp181
S'client'
p182
asbag49
(g70
g51
NtRp183
(dp184
g54
(dp185
g81
g82
ssg63
g174
sg56
(lp186
S':'
asbag49
(g70
g51
NtRp187
(dp188
g54
(dp189
sg63
g174
sg56
(lp190
g49
(g50
g51
NtRp191
(dp192
g54
(dp193
g62
I5
ssg63
g187
sg56
(lp194
S'127.0.0.1'
p195
asbasbasbag49
(g65
g51
NtRp196
(dp197
g54
(dp198
sg63
g59
sg56
(lp199
g49
(g70
g51
NtRp200
(dp201
g54
(dp202
g74
g75
ssg63
g196
sg56
(lp203
S'controller'
p204
asbag49
(g70
g51
NtRp205
(dp206
g54
(dp207
g81
g82
ssg63
g196
sg56
(lp208
S':'
asbag49
(g70
g51
NtRp209
(dp210
g54
(dp211
sg63
g196
sg56
(lp212
g49
(g50
g51
NtRp213
(dp214
g54
(dp215
g62
I5
ssg63
g209
sg56
(lp216
S'default'
p217
asbasbasbag49
(g65
g51
NtRp218
(dp219
g54
(dp220
sg63
g59
sg56
(lp221
g49
(g70
g51
NtRp222
(dp223
g54
(dp224
g74
g75
ssg63
g218
sg56
(lp225
S'cookies'
p226
asbag49
(g70
g51
NtRp227
(dp228
g54
(dp229
g81
g82
ssg63
g218
sg56
(lp230
S':'
asbag49
(g70
g51
NtRp231
(dp232
g54
(dp233
sg63
g218
sg56
(lp234
g49
(g50
g51
NtRp235
(dp236
g54
(dp237
g62
I5
ssg63
g231
sg56
(lp238
g49
(g58
g51
NtRp239
(dp240
g54
(dp241
g62
I4
ssg63
Nsg56
(lp242
g49
(g65
g51
NtRp243
(dp244
g54
(dp245
sg63
g239
sg56
(lp246
g49
(g70
g51
NtRp247
(dp248
g54
(dp249
g74
g75
ssg63
g243
sg56
(lp250
S'session_id_admin'
p251
asbag49
(g70
g51
NtRp252
(dp253
g54
(dp254
g81
g82
ssg63
g243
sg56
(lp255
S':'
asbag49
(g70
g51
NtRp256
(dp257
g54
(dp258
sg63
g243
sg56
(lp259
g49
(g50
g51
NtRp260
(dp261
g54
(dp262
g62
I4
ssg63
g256
sg56
(lp263
g49
(g58
g51
NtRp264
(dp265
g54
(dp266
g62
I3
ssg63
Nsg56
(lp267
g49
(g65
g51
NtRp268
(dp269
g54
(dp270
sg63
g264
sg56
(lp271
g49
(g70
g51
NtRp272
(dp273
g54
(dp274
g74
g75
ssg63
g268
sg56
(lp275
S'comment'
p276
asbag49
(g70
g51
NtRp277
(dp278
g54
(dp279
g81
g82
ssg63
g268
sg56
(lp280
S':'
asbag49
(g70
g51
NtRp281
(dp282
g54
(dp283
sg63
g268
sg56
(lp284
g49
(g50
g51
NtRp285
(dp286
g54
(dp287
g62
I3
ssg63
g281
sg56
(lp288
S''
asbasbasbag49
(g65
g51
NtRp289
(dp290
g54
(dp291
sg63
g264
sg56
(lp292
g49
(g70
g51
NtRp293
(dp294
g54
(dp295
g74
g75
ssg63
g289
sg56
(lp296
S'domain'
p297
asbag49
(g70
g51
NtRp298
(dp299
g54
(dp300
g81
g82
ssg63
g289
sg56
(lp301
S':'
asbag49
(g70
g51
NtRp302
(dp303
g54
(dp304
sg63
g289
sg56
(lp305
g49
(g50
g51
NtRp306
(dp307
g54
(dp308
g62
I3
ssg63
g302
sg56
(lp309
S''
asbasbasbag49
(g65
g51
NtRp310
(dp311
g54
(dp312
sg63
g264
sg56
(lp313
g49
(g70
g51
NtRp314
(dp315
g54
(dp316
g74
g75
ssg63
g310
sg56
(lp317
S'expires'
p318
asbag49
(g70
g51
NtRp319
(dp320
g54
(dp321
g81
g82
ssg63
g310
sg56
(lp322
S':'
asbag49
(g70
g51
NtRp323
(dp324
g54
(dp325
sg63
g310
sg56
(lp326
g49
(g50
g51
NtRp327
(dp328
g54
(dp329
g62
I3
ssg63
g323
sg56
(lp330
S''
asbasbasbag49
(g65
g51
NtRp331
(dp332
g54
(dp333
sg63
g264
sg56
(lp334
g49
(g70
g51
NtRp335
(dp336
g54
(dp337
g74
g75
ssg63
g331
sg56
(lp338
S'max-age'
p339
asbag49
(g70
g51
NtRp340
(dp341
g54
(dp342
g81
g82
ssg63
g331
sg56
(lp343
S':'
asbag49
(g70
g51
NtRp344
(dp345
g54
(dp346
sg63
g331
sg56
(lp347
g49
(g50
g51
NtRp348
(dp349
g54
(dp350
g62
I3
ssg63
g344
sg56
(lp351
S''
asbasbasbag49
(g65
g51
NtRp352
(dp353
g54
(dp354
sg63
g264
sg56
(lp355
g49
(g70
g51
NtRp356
(dp357
g54
(dp358
g74
g75
ssg63
g352
sg56
(lp359
S'path'
p360
asbag49
(g70
g51
NtRp361
(dp362
g54
(dp363
g81
g82
ssg63
g352
sg56
(lp364
S':'
asbag49
(g70
g51
NtRp365
(dp366
g54
(dp367
sg63
g352
sg56
(lp368
g49
(g50
g51
NtRp369
(dp370
g54
(dp371
g62
I3
ssg63
g365
sg56
(lp372
S''
asbasbasbag49
(g65
g51
NtRp373
(dp374
g54
(dp375
sg63
g264
sg56
(lp376
g49
(g70
g51
NtRp377
(dp378
g54
(dp379
g74
g75
ssg63
g373
sg56
(lp380
S'secure'
p381
asbag49
(g70
g51
NtRp382
(dp383
g54
(dp384
g81
g82
ssg63
g373
sg56
(lp385
S':'
asbag49
(g70
g51
NtRp386
(dp387
g54
(dp388
sg63
g373
sg56
(lp389
g49
(g50
g51
NtRp390
(dp391
g54
(dp392
g62
I3
ssg63
g386
sg56
(lp393
S''
asbasbasbag49
(g65
g51
NtRp394
(dp395
g54
(dp396
sg63
g264
sg56
(lp397
g49
(g70
g51
NtRp398
(dp399
g54
(dp400
g74
g75
ssg63
g394
sg56
(lp401
S'version'
p402
asbag49
(g70
g51
NtRp403
(dp404
g54
(dp405
g81
g82
ssg63
g394
sg56
(lp406
S':'
asbag49
(g70
g51
NtRp407
(dp408
g54
(dp409
sg63
g394
sg56
(lp410
g49
(g50
g51
NtRp411
(dp412
g54
(dp413
g62
I3
ssg63
g407
sg56
(lp414
S''
asbasbasbasbasbasbasbag49
(g65
g51
NtRp415
(dp416
g54
(dp417
sg63
g239
sg56
(lp418
g49
(g70
g51
NtRp419
(dp420
g54
(dp421
g74
g75
ssg63
g415
sg56
(lp422
S'session_id_sitsit'
p423
asbag49
(g70
g51
NtRp424
(dp425
g54
(dp426
g81
g82
ssg63
g415
sg56
(lp427
S':'
asbag49
(g70
g51
NtRp428
(dp429
g54
(dp430
sg63
g415
sg56
(lp431
g49
(g50
g51
NtRp432
(dp433
g54
(dp434
g62
I4
ssg63
g428
sg56
(lp435
g49
(g58
g51
NtRp436
(dp437
g54
(dp438
g62
I3
ssg63
Nsg56
(lp439
g49
(g65
g51
NtRp440
(dp441
g54
(dp442
sg63
g436
sg56
(lp443
g49
(g70
g51
NtRp444
(dp445
g54
(dp446
g74
g75
ssg63
g440
sg56
(lp447
g276
asbag49
(g70
g51
NtRp448
(dp449
g54
(dp450
g81
g82
ssg63
g440
sg56
(lp451
S':'
asbag49
(g70
g51
NtRp452
(dp453
g54
(dp454
sg63
g440
sg56
(lp455
g49
(g50
g51
NtRp456
(dp457
g54
(dp458
g62
I3
ssg63
g452
sg56
(lp459
S''
asbasbasbag49
(g65
g51
NtRp460
(dp461
g54
(dp462
sg63
g436
sg56
(lp463
g49
(g70
g51
NtRp464
(dp465
g54
(dp466
g74
g75
ssg63
g460
sg56
(lp467
g297
asbag49
(g70
g51
NtRp468
(dp469
g54
(dp470
g81
g82
ssg63
g460
sg56
(lp471
S':'
asbag49
(g70
g51
NtRp472
(dp473
g54
(dp474
sg63
g460
sg56
(lp475
g49
(g50
g51
NtRp476
(dp477
g54
(dp478
g62
I3
ssg63
g472
sg56
(lp479
S''
asbasbasbag49
(g65
g51
NtRp480
(dp481
g54
(dp482
sg63
g436
sg56
(lp483
g49
(g70
g51
NtRp484
(dp485
g54
(dp486
g74
g75
ssg63
g480
sg56
(lp487
g318
asbag49
(g70
g51
NtRp488
(dp489
g54
(dp490
g81
g82
ssg63
g480
sg56
(lp491
S':'
asbag49
(g70
g51
NtRp492
(dp493
g54
(dp494
sg63
g480
sg56
(lp495
g49
(g50
g51
NtRp496
(dp497
g54
(dp498
g62
I3
ssg63
g492
sg56
(lp499
S''
asbasbasbag49
(g65
g51
NtRp500
(dp501
g54
(dp502
sg63
g436
sg56
(lp503
g49
(g70
g51
NtRp504
(dp505
g54
(dp506
g74
g75
ssg63
g500
sg56
(lp507
g339
asbag49
(g70
g51
NtRp508
(dp509
g54
(dp510
g81
g82
ssg63
g500
sg56
(lp511
S':'
asbag49
(g70
g51
NtRp512
(dp513
g54
(dp514
sg63
g500
sg56
(lp515
g49
(g50
g51
NtRp516
(dp517
g54
(dp518
g62
I3
ssg63
g512
sg56
(lp519
S''
asbasbasbag49
(g65
g51
NtRp520
(dp521
g54
(dp522
sg63
g436
sg56
(lp523
g49
(g70
g51
NtRp524
(dp525
g54
(dp526
g74
g75
ssg63
g520
sg56
(lp527
g360
asbag49
(g70
g51
NtRp528
(dp529
g54
(dp530
g81
g82
ssg63
g520
sg56
(lp531
S':'
asbag49
(g70
g51
NtRp532
(dp533
g54
(dp534
sg63
g520
sg56
(lp535
g49
(g50
g51
NtRp536
(dp537
g54
(dp538
g62
I3
ssg63
g532
sg56
(lp539
S''
asbasbasbag49
(g65
g51
NtRp540
(dp541
g54
(dp542
sg63
g436
sg56
(lp543
g49
(g70
g51
NtRp544
(dp545
g54
(dp546
g74
g75
ssg63
g540
sg56
(lp547
g381
asbag49
(g70
g51
NtRp548
(dp549
g54
(dp550
g81
g82
ssg63
g540
sg56
(lp551
S':'
asbag49
(g70
g51
NtRp552
(dp553
g54
(dp554
sg63
g540
sg56
(lp555
g49
(g50
g51
NtRp556
(dp557
g54
(dp558
g62
I3
ssg63
g552
sg56
(lp559
S''
asbasbasbag49
(g65
g51
NtRp560
(dp561
g54
(dp562
sg63
g436
sg56
(lp563
g49
(g70
g51
NtRp564
(dp565
g54
(dp566
g74
g75
ssg63
g560
sg56
(lp567
g402
asbag49
(g70
g51
NtRp568
(dp569
g54
(dp570
g81
g82
ssg63
g560
sg56
(lp571
S':'
asbag49
(g70
g51
NtRp572
(dp573
g54
(dp574
sg63
g560
sg56
(lp575
g49
(g50
g51
NtRp576
(dp577
g54
(dp578
g62
I3
ssg63
g572
sg56
(lp579
S''
asbasbasbasbasbasbasbag49
(g65
g51
NtRp580
(dp581
g54
(dp582
sg63
g239
sg56
(lp583
g49
(g70
g51
NtRp584
(dp585
g54
(dp586
g74
g75
ssg63
g580
sg56
(lp587
S'session_id_welcome'
p588
asbag49
(g70
g51
NtRp589
(dp590
g54
(dp591
g81
g82
ssg63
g580
sg56
(lp592
S':'
asbag49
(g70
g51
NtRp593
(dp594
g54
(dp595
sg63
g580
sg56
(lp596
g49
(g50
g51
NtRp597
(dp598
g54
(dp599
g62
I4
ssg63
g593
sg56
(lp600
g49
(g58
g51
NtRp601
(dp602
g54
(dp603
g62
I3
ssg63
Nsg56
(lp604
g49
(g65
g51
NtRp605
(dp606
g54
(dp607
sg63
g601
sg56
(lp608
g49
(g70
g51
NtRp609
(dp610
g54
(dp611
g74
g75
ssg63
g605
sg56
(lp612
g276
asbag49
(g70
g51
NtRp613
(dp614
g54
(dp615
g81
g82
ssg63
g605
sg56
(lp616
S':'
asbag49
(g70
g51
NtRp617
(dp618
g54
(dp619
sg63
g605
sg56
(lp620
g49
(g50
g51
NtRp621
(dp622
g54
(dp623
g62
I3
ssg63
g617
sg56
(lp624
S''
asbasbasbag49
(g65
g51
NtRp625
(dp626
g54
(dp627
sg63
g601
sg56
(lp628
g49
(g70
g51
NtRp629
(dp630
g54
(dp631
g74
g75
ssg63
g625
sg56
(lp632
g297
asbag49
(g70
g51
NtRp633
(dp634
g54
(dp635
g81
g82
ssg63
g625
sg56
(lp636
S':'
asbag49
(g70
g51
NtRp637
(dp638
g54
(dp639
sg63
g625
sg56
(lp640
g49
(g50
g51
NtRp641
(dp642
g54
(dp643
g62
I3
ssg63
g637
sg56
(lp644
S''
asbasbasbag49
(g65
g51
NtRp645
(dp646
g54
(dp647
sg63
g601
sg56
(lp648
g49
(g70
g51
NtRp649
(dp650
g54
(dp651
g74
g75
ssg63
g645
sg56
(lp652
g318
asbag49
(g70
g51
NtRp653
(dp654
g54
(dp655
g81
g82
ssg63
g645
sg56
(lp656
S':'
asbag49
(g70
g51
NtRp657
(dp658
g54
(dp659
sg63
g645
sg56
(lp660
g49
(g50
g51
NtRp661
(dp662
g54
(dp663
g62
I3
ssg63
g657
sg56
(lp664
S''
asbasbasbag49
(g65
g51
NtRp665
(dp666
g54
(dp667
sg63
g601
sg56
(lp668
g49
(g70
g51
NtRp669
(dp670
g54
(dp671
g74
g75
ssg63
g665
sg56
(lp672
g339
asbag49
(g70
g51
NtRp673
(dp674
g54
(dp675
g81
g82
ssg63
g665
sg56
(lp676
S':'
asbag49
(g70
g51
NtRp677
(dp678
g54
(dp679
sg63
g665
sg56
(lp680
g49
(g50
g51
NtRp681
(dp682
g54
(dp683
g62
I3
ssg63
g677
sg56
(lp684
S''
asbasbasbag49
(g65
g51
NtRp685
(dp686
g54
(dp687
sg63
g601
sg56
(lp688
g49
(g70
g51
NtRp689
(dp690
g54
(dp691
g74
g75
ssg63
g685
sg56
(lp692
g360
asbag49
(g70
g51
NtRp693
(dp694
g54
(dp695
g81
g82
ssg63
g685
sg56
(lp696
S':'
asbag49
(g70
g51
NtRp697
(dp698
g54
(dp699
sg63
g685
sg56
(lp700
g49
(g50
g51
NtRp701
(dp702
g54
(dp703
g62
I3
ssg63
g697
sg56
(lp704
S''
asbasbasbag49
(g65
g51
NtRp705
(dp706
g54
(dp707
sg63
g601
sg56
(lp708
g49
(g70
g51
NtRp709
(dp710
g54
(dp711
g74
g75
ssg63
g705
sg56
(lp712
g381
asbag49
(g70
g51
NtRp713
(dp714
g54
(dp715
g81
g82
ssg63
g705
sg56
(lp716
S':'
asbag49
(g70
g51
NtRp717
(dp718
g54
(dp719
sg63
g705
sg56
(lp720
g49
(g50
g51
NtRp721
(dp722
g54
(dp723
g62
I3
ssg63
g717
sg56
(lp724
S''
asbasbasbag49
(g65
g51
NtRp725
(dp726
g54
(dp727
sg63
g601
sg56
(lp728
g49
(g70
g51
NtRp729
(dp730
g54
(dp731
g74
g75
ssg63
g725
sg56
(lp732
g402
asbag49
(g70
g51
NtRp733
(dp734
g54
(dp735
g81
g82
ssg63
g725
sg56
(lp736
S':'
asbag49
(g70
g51
NtRp737
(dp738
g54
(dp739
sg63
g725
sg56
(lp740
g49
(g50
g51
NtRp741
(dp742
g54
(dp743
g62
I3
ssg63
g737
sg56
(lp744
S''
asbasbasbasbasbasbasbasbasbasbasbag49
(g65
g51
NtRp745
(dp746
g54
(dp747
sg63
g59
sg56
(lp748
g49
(g70
g51
NtRp749
(dp750
g54
(dp751
g74
g75
ssg63
g745
sg56
(lp752
S'env'
p753
asbag49
(g70
g51
NtRp754
(dp755
g54
(dp756
g81
g82
ssg63
g745
sg56
(lp757
S':'
asbag49
(g70
g51
NtRp758
(dp759
g54
(dp760
sg63
g745
sg56
(lp761
g49
(g50
g51
NtRp762
(dp763
g54
(dp764
g62
I5
ssg63
g758
sg56
(lp765
g49
(g58
g51
NtRp766
(dp767
g54
(dp768
g62
I4
ssg63
Nsg56
(lp769
g49
(g65
g51
NtRp770
(dp771
g54
(dp772
sg63
g766
sg56
(lp773
g49
(g70
g51
NtRp774
(dp775
g54
(dp776
g74
g75
ssg63
g770
sg56
(lp777
S'app_folders'
p778
asbag49
(g70
g51
NtRp779
(dp780
g54
(dp781
g81
g82
ssg63
g770
sg56
(lp782
S':'
asbag49
(g70
g51
NtRp783
(dp784
g54
(dp785
sg63
g770
sg56
(lp786
g49
(g50
g51
NtRp787
(dp788
g54
(dp789
g62
I4
ssg63
g783
sg56
(lp790
S"set(['C:\\\\Users\\\\Osku\\\\koodaus\\\\web2py\\\\applications\\\\sitsit\\\\', 'C:\\\\Users\\\\Osku\\\\koodaus\\\\web2py\\\\applications\\\\welcome\\\\', 'C:\\\\Users\\\\Osku\\\\koodaus\\\\web2py\\\\applications\\\\admin\\\\'])"
p791
asbasbasbag49
(g65
g51
NtRp792
(dp793
g54
(dp794
sg63
g766
sg56
(lp795
g49
(g70
g51
NtRp796
(dp797
g54
(dp798
g74
g75
ssg63
g792
sg56
(lp799
S'applications_parent'
p800
asbag49
(g70
g51
NtRp801
(dp802
g54
(dp803
g81
g82
ssg63
g792
sg56
(lp804
S':'
asbag49
(g70
g51
NtRp805
(dp806
g54
(dp807
sg63
g792
sg56
(lp808
g49
(g50
g51
NtRp809
(dp810
g54
(dp811
g62
I4
ssg63
g805
sg56
(lp812
S'C:\\Users\\Osku\\koodaus\\web2py'
p813
asbasbasbag49
(g65
g51
NtRp814
(dp815
g54
(dp816
sg63
g766
sg56
(lp817
g49
(g70
g51
NtRp818
(dp819
g54
(dp820
g74
g75
ssg63
g814
sg56
(lp821
S'cmd_args'
p822
asbag49
(g70
g51
NtRp823
(dp824
g54
(dp825
g81
g82
ssg63
g814
sg56
(lp826
S':'
asbag49
(g70
g51
NtRp827
(dp828
g54
(dp829
sg63
g814
sg56
(lp830
g49
(g50
g51
NtRp831
(dp832
g54
(dp833
g62
I4
ssg63
g827
sg56
(lp834
g49
(g58
g51
NtRp835
(dp836
g54
(dp837
g62
I3
ssg63
Nsg56
(lp838
sbasbasbasbag49
(g65
g51
NtRp839
(dp840
g54
(dp841
sg63
g766
sg56
(lp842
g49
(g70
g51
NtRp843
(dp844
g54
(dp845
g74
g75
ssg63
g839
sg56
(lp846
S'cmd_options'
p847
asbag49
(g70
g51
NtRp848
(dp849
g54
(dp850
g81
g82
ssg63
g839
sg56
(lp851
S':'
asbag49
(g70
g51
NtRp852
(dp853
g54
(dp854
sg63
g839
sg56
(lp855
g49
(g50
g51
NtRp856
(dp857
g54
(dp858
g62
I4
ssg63
g852
sg56
(lp859
S"<Values at 0x2270030: {'verbose': False, 'ip': '127.0.0.1', 'shutdown_timeout': 5, 'taskbar': False, 'nocron': False, 'pid_filename': 'httpserver.pid', 'maxthreads': None, 'softcron': False, 'server_name': 'Osku-Kannettava', 'bpython': False, 'nogui': False, 'port': 8000, 'extcron': False, 'debuglevel': 30, 'test': None, 'folder': 'C:\\\\Users\\\\Osku\\\\koodaus\\\\web2py', 'config': '', 'import_models': False, 'winservice': '', 'shell': None, 'run': '', 'log_filename': 'httpserver.log', 'args': [''], 'socket_timeout': 5, 'ssl_ca_certificate': None, 'scheduler': None, 'profiler_filename': None, 'ssl_private_key': '', 'password': '<ask>', 'request_queue_size': 5, 'ssl_certificate': '', 'cronjob': False, 'numthreads': None, 'quiet': False, 'interfaces': None, 'minthreads': None, 'timeout': 10, 'plain': False, 'nobanner': False}>"
p860
asbasbasbag49
(g65
g51
NtRp861
(dp862
g54
(dp863
sg63
g766
sg56
(lp864
g49
(g70
g51
NtRp865
(dp866
g54
(dp867
g74
g75
ssg63
g861
sg56
(lp868
S'db_sessions'
p869
asbag49
(g70
g51
NtRp870
(dp871
g54
(dp872
g81
g82
ssg63
g861
sg56
(lp873
S':'
asbag49
(g70
g51
NtRp874
(dp875
g54
(dp876
sg63
g861
sg56
(lp877
g49
(g50
g51
NtRp878
(dp879
g54
(dp880
g62
I4
ssg63
g874
sg56
(lp881
S'set([])'
p882
asbasbasbag49
(g65
g51
NtRp883
(dp884
g54
(dp885
sg63
g766
sg56
(lp886
g49
(g70
g51
NtRp887
(dp888
g54
(dp889
g74
g75
ssg63
g883
sg56
(lp890
S'debugging'
p891
asbag49
(g70
g51
NtRp892
(dp893
g54
(dp894
g81
g82
ssg63
g883
sg56
(lp895
S':'
asbag49
(g70
g51
NtRp896
(dp897
g54
(dp898
sg63
g883
sg56
(lp899
g49
(g50
g51
NtRp900
(dp901
g54
(dp902
g62
I4
ssg63
g896
sg56
(lp903
g92
asbasbasbag49
(g65
g51
NtRp904
(dp905
g54
(dp906
sg63
g766
sg56
(lp907
g49
(g70
g51
NtRp908
(dp909
g54
(dp910
g74
g75
ssg63
g904
sg56
(lp911
S'gluon_parent'
p912
asbag49
(g70
g51
NtRp913
(dp914
g54
(dp915
g81
g82
ssg63
g904
sg56
(lp916
S':'
asbag49
(g70
g51
NtRp917
(dp918
g54
(dp919
sg63
g904
sg56
(lp920
g49
(g50
g51
NtRp921
(dp922
g54
(dp923
g62
I4
ssg63
g917
sg56
(lp924
S'C:\\Users\\Osku\\koodaus\\web2py'
p925
asbasbasbag49
(g65
g51
NtRp926
(dp927
g54
(dp928
sg63
g766
sg56
(lp929
g49
(g70
g51
NtRp930
(dp931
g54
(dp932
g74
g75
ssg63
g926
sg56
(lp933
S'http_accept'
p934
asbag49
(g70
g51
NtRp935
(dp936
g54
(dp937
g81
g82
ssg63
g926
sg56
(lp938
S':'
asbag49
(g70
g51
NtRp939
(dp940
g54
(dp941
sg63
g926
sg56
(lp942
g49
(g50
g51
NtRp943
(dp944
g54
(dp945
g62
I4
ssg63
g939
sg56
(lp946
S'text/html,application/xhtml+xml,application/xml;q=0.9,*/*;q=0.8'
p947
asbasbasbag49
(g65
g51
NtRp948
(dp949
g54
(dp950
sg63
g766
sg56
(lp951
g49
(g70
g51
NtRp952
(dp953
g54
(dp954
g74
g75
ssg63
g948
sg56
(lp955
S'http_accept_charset'
p956
asbag49
(g70
g51
NtRp957
(dp958
g54
(dp959
g81
g82
ssg63
g948
sg56
(lp960
S':'
asbag49
(g70
g51
NtRp961
(dp962
g54
(dp963
sg63
g948
sg56
(lp964
g49
(g50
g51
NtRp965
(dp966
g54
(dp967
g62
I4
ssg63
g961
sg56
(lp968
S'ISO-8859-1,utf-8;q=0.7,*;q=0.3'
p969
asbasbasbag49
(g65
g51
NtRp970
(dp971
g54
(dp972
sg63
g766
sg56
(lp973
g49
(g70
g51
NtRp974
(dp975
g54
(dp976
g74
g75
ssg63
g970
sg56
(lp977
S'http_accept_encoding'
p978
asbag49
(g70
g51
NtRp979
(dp980
g54
(dp981
g81
g82
ssg63
g970
sg56
(lp982
S':'
asbag49
(g70
g51
NtRp983
(dp984
g54
(dp985
sg63
g970
sg56
(lp986
g49
(g50
g51
NtRp987
(dp988
g54
(dp989
g62
I4
ssg63
g983
sg56
(lp990
S'gzip,deflate,sdch'
p991
asbasbasbag49
(g65
g51
NtRp992
(dp993
g54
(dp994
sg63
g766
sg56
(lp995
g49
(g70
g51
NtRp996
(dp997
g54
(dp998
g74
g75
ssg63
g992
sg56
(lp999
S'http_accept_language'
p1000
asbag49
(g70
g51
NtRp1001
(dp1002
g54
(dp1003
g81
g82
ssg63
g992
sg56
(lp1004
S':'
asbag49
(g70
g51
NtRp1005
(dp1006
g54
(dp1007
sg63
g992
sg56
(lp1008
g49
(g50
g51
NtRp1009
(dp1010
g54
(dp1011
g62
I4
ssg63
g1005
sg56
(lp1012
S'en-GB,en-US;q=0.8,en;q=0.6,fi;q=0.4'
p1013
asbasbasbag49
(g65
g51
NtRp1014
(dp1015
g54
(dp1016
sg63
g766
sg56
(lp1017
g49
(g70
g51
NtRp1018
(dp1019
g54
(dp1020
g74
g75
ssg63
g1014
sg56
(lp1021
S'http_cache_control'
p1022
asbag49
(g70
g51
NtRp1023
(dp1024
g54
(dp1025
g81
g82
ssg63
g1014
sg56
(lp1026
S':'
asbag49
(g70
g51
NtRp1027
(dp1028
g54
(dp1029
sg63
g1014
sg56
(lp1030
g49
(g50
g51
NtRp1031
(dp1032
g54
(dp1033
g62
I4
ssg63
g1027
sg56
(lp1034
S'max-age=0'
p1035
asbasbasbag49
(g65
g51
NtRp1036
(dp1037
g54
(dp1038
sg63
g766
sg56
(lp1039
g49
(g70
g51
NtRp1040
(dp1041
g54
(dp1042
g74
g75
ssg63
g1036
sg56
(lp1043
S'http_connection'
p1044
asbag49
(g70
g51
NtRp1045
(dp1046
g54
(dp1047
g81
g82
ssg63
g1036
sg56
(lp1048
S':'
asbag49
(g70
g51
NtRp1049
(dp1050
g54
(dp1051
sg63
g1036
sg56
(lp1052
g49
(g50
g51
NtRp1053
(dp1054
g54
(dp1055
g62
I4
ssg63
g1049
sg56
(lp1056
S'keep-alive'
p1057
asbasbasbag49
(g65
g51
NtRp1058
(dp1059
g54
(dp1060
sg63
g766
sg56
(lp1061
g49
(g70
g51
NtRp1062
(dp1063
g54
(dp1064
g74
g75
ssg63
g1058
sg56
(lp1065
S'http_cookie'
p1066
asbag49
(g70
g51
NtRp1067
(dp1068
g54
(dp1069
g81
g82
ssg63
g1058
sg56
(lp1070
S':'
asbag49
(g70
g51
NtRp1071
(dp1072
g54
(dp1073
sg63
g1058
sg56
(lp1074
g49
(g50
g51
NtRp1075
(dp1076
g54
(dp1077
g62
I4
ssg63
g1071
sg56
(lp1078
S'session_id_welcome=127.0.0.1-731960a1-ea7c-4af8-ac49-7798aa234dcd; session_id_admin=127.0.0.1-941ea7a4-a42e-46de-bdfb-3dd29fbb7e62; session_id_sitsit=127.0.0.1-ec2284ba-32fe-4a19-9a6f-e97c370381b5'
p1079
asbasbasbag49
(g65
g51
NtRp1080
(dp1081
g54
(dp1082
sg63
g766
sg56
(lp1083
g49
(g70
g51
NtRp1084
(dp1085
g54
(dp1086
g74
g75
ssg63
g1080
sg56
(lp1087
S'http_host'
p1088
asbag49
(g70
g51
NtRp1089
(dp1090
g54
(dp1091
g81
g82
ssg63
g1080
sg56
(lp1092
S':'
asbag49
(g70
g51
NtRp1093
(dp1094
g54
(dp1095
sg63
g1080
sg56
(lp1096
g49
(g50
g51
NtRp1097
(dp1098
g54
(dp1099
g62
I4
ssg63
g1093
sg56
(lp1100
S'127.0.0.1:8000'
p1101
asbasbasbag49
(g65
g51
NtRp1102
(dp1103
g54
(dp1104
sg63
g766
sg56
(lp1105
g49
(g70
g51
NtRp1106
(dp1107
g54
(dp1108
g74
g75
ssg63
g1102
sg56
(lp1109
S'http_user_agent'
p1110
asbag49
(g70
g51
NtRp1111
(dp1112
g54
(dp1113
g81
g82
ssg63
g1102
sg56
(lp1114
S':'
asbag49
(g70
g51
NtRp1115
(dp1116
g54
(dp1117
sg63
g1102
sg56
(lp1118
g49
(g50
g51
NtRp1119
(dp1120
g54
(dp1121
g62
I4
ssg63
g1115
sg56
(lp1122
S'Mozilla/5.0 (Windows NT 6.1) AppleWebKit/536.11 (KHTML, like Gecko) Chrome/20.0.1132.47 Safari/536.11'
p1123
asbasbasbag49
(g65
g51
NtRp1124
(dp1125
g54
(dp1126
sg63
g766
sg56
(lp1127
g49
(g70
g51
NtRp1128
(dp1129
g54
(dp1130
g74
g75
ssg63
g1124
sg56
(lp1131
S'is_jython'
p1132
asbag49
(g70
g51
NtRp1133
(dp1134
g54
(dp1135
g81
g82
ssg63
g1124
sg56
(lp1136
S':'
asbag49
(g70
g51
NtRp1137
(dp1138
g54
(dp1139
sg63
g1124
sg56
(lp1140
g49
(g50
g51
NtRp1141
(dp1142
g54
(dp1143
g62
I4
ssg63
g1137
sg56
(lp1144
g92
asbasbasbag49
(g65
g51
NtRp1145
(dp1146
g54
(dp1147
sg63
g766
sg56
(lp1148
g49
(g70
g51
NtRp1149
(dp1150
g54
(dp1151
g74
g75
ssg63
g1145
sg56
(lp1152
S'is_pypy'
p1153
asbag49
(g70
g51
NtRp1154
(dp1155
g54
(dp1156
g81
g82
ssg63
g1145
sg56
(lp1157
S':'
asbag49
(g70
g51
NtRp1158
(dp1159
g54
(dp1160
sg63
g1145
sg56
(lp1161
g49
(g50
g51
NtRp1162
(dp1163
g54
(dp1164
g62
I4
ssg63
g1158
sg56
(lp1165
g92
asbasbasbag49
(g65
g51
NtRp1166
(dp1167
g54
(dp1168
sg63
g766
sg56
(lp1169
g49
(g70
g51
NtRp1170
(dp1171
g54
(dp1172
g74
g75
ssg63
g1166
sg56
(lp1173
S'path_info'
p1174
asbag49
(g70
g51
NtRp1175
(dp1176
g54
(dp1177
g81
g82
ssg63
g1166
sg56
(lp1178
S':'
asbag49
(g70
g51
NtRp1179
(dp1180
g54
(dp1181
sg63
g1166
sg56
(lp1182
g49
(g50
g51
NtRp1183
(dp1184
g54
(dp1185
g62
I4
ssg63
g1179
sg56
(lp1186
S'/sitsit/default/sitsit/10'
p1187
asbasbasbag49
(g65
g51
NtRp1188
(dp1189
g54
(dp1190
sg63
g766
sg56
(lp1191
g49
(g70
g51
NtRp1192
(dp1193
g54
(dp1194
g74
g75
ssg63
g1188
sg56
(lp1195
S'query_string'
p1196
asbag49
(g70
g51
NtRp1197
(dp1198
g54
(dp1199
g81
g82
ssg63
g1188
sg56
(lp1200
S':'
asbag49
(g70
g51
NtRp1201
(dp1202
g54
(dp1203
sg63
g1188
sg56
(lp1204
g49
(g50
g51
NtRp1205
(dp1206
g54
(dp1207
g62
I4
ssg63
g1201
sg56
(lp1208
S''
asbasbasbag49
(g65
g51
NtRp1209
(dp1210
g54
(dp1211
sg63
g766
sg56
(lp1212
g49
(g70
g51
NtRp1213
(dp1214
g54
(dp1215
g74
g75
ssg63
g1209
sg56
(lp1216
S'remote_addr'
p1217
asbag49
(g70
g51
NtRp1218
(dp1219
g54
(dp1220
g81
g82
ssg63
g1209
sg56
(lp1221
S':'
asbag49
(g70
g51
NtRp1222
(dp1223
g54
(dp1224
sg63
g1209
sg56
(lp1225
g49
(g50
g51
NtRp1226
(dp1227
g54
(dp1228
g62
I4
ssg63
g1222
sg56
(lp1229
g195
asbasbasbag49
(g65
g51
NtRp1230
(dp1231
g54
(dp1232
sg63
g766
sg56
(lp1233
g49
(g70
g51
NtRp1234
(dp1235
g54
(dp1236
g74
g75
ssg63
g1230
sg56
(lp1237
S'remote_port'
p1238
asbag49
(g70
g51
NtRp1239
(dp1240
g54
(dp1241
g81
g82
ssg63
g1230
sg56
(lp1242
S':'
asbag49
(g70
g51
NtRp1243
(dp1244
g54
(dp1245
sg63
g1230
sg56
(lp1246
g49
(g50
g51
NtRp1247
(dp1248
g54
(dp1249
g62
I4
ssg63
g1243
sg56
(lp1250
S'57931'
p1251
asbasbasbag49
(g65
g51
NtRp1252
(dp1253
g54
(dp1254
sg63
g766
sg56
(lp1255
g49
(g70
g51
NtRp1256
(dp1257
g54
(dp1258
g74
g75
ssg63
g1252
sg56
(lp1259
S'request_method'
p1260
asbag49
(g70
g51
NtRp1261
(dp1262
g54
(dp1263
g81
g82
ssg63
g1252
sg56
(lp1264
S':'
asbag49
(g70
g51
NtRp1265
(dp1266
g54
(dp1267
sg63
g1252
sg56
(lp1268
g49
(g50
g51
NtRp1269
(dp1270
g54
(dp1271
g62
I4
ssg63
g1265
sg56
(lp1272
S'GET'
p1273
asbasbasbag49
(g65
g51
NtRp1274
(dp1275
g54
(dp1276
sg63
g766
sg56
(lp1277
g49
(g70
g51
NtRp1278
(dp1279
g54
(dp1280
g74
g75
ssg63
g1274
sg56
(lp1281
S'script_name'
p1282
asbag49
(g70
g51
NtRp1283
(dp1284
g54
(dp1285
g81
g82
ssg63
g1274
sg56
(lp1286
S':'
asbag49
(g70
g51
NtRp1287
(dp1288
g54
(dp1289
sg63
g1274
sg56
(lp1290
g49
(g50
g51
NtRp1291
(dp1292
g54
(dp1293
g62
I4
ssg63
g1287
sg56
(lp1294
S''
asbasbasbag49
(g65
g51
NtRp1295
(dp1296
g54
(dp1297
sg63
g766
sg56
(lp1298
g49
(g70
g51
NtRp1299
(dp1300
g54
(dp1301
g74
g75
ssg63
g1295
sg56
(lp1302
S'server_name'
p1303
asbag49
(g70
g51
NtRp1304
(dp1305
g54
(dp1306
g81
g82
ssg63
g1295
sg56
(lp1307
S':'
asbag49
(g70
g51
NtRp1308
(dp1309
g54
(dp1310
sg63
g1295
sg56
(lp1311
g49
(g50
g51
NtRp1312
(dp1313
g54
(dp1314
g62
I4
ssg63
g1308
sg56
(lp1315
S'Osku-Kannettava'
p1316
asbasbasbag49
(g65
g51
NtRp1317
(dp1318
g54
(dp1319
sg63
g766
sg56
(lp1320
g49
(g70
g51
NtRp1321
(dp1322
g54
(dp1323
g74
g75
ssg63
g1317
sg56
(lp1324
S'server_port'
p1325
asbag49
(g70
g51
NtRp1326
(dp1327
g54
(dp1328
g81
g82
ssg63
g1317
sg56
(lp1329
S':'
asbag49
(g70
g51
NtRp1330
(dp1331
g54
(dp1332
sg63
g1317
sg56
(lp1333
g49
(g50
g51
NtRp1334
(dp1335
g54
(dp1336
g62
I4
ssg63
g1330
sg56
(lp1337
S'8000'
p1338
asbasbasbag49
(g65
g51
NtRp1339
(dp1340
g54
(dp1341
sg63
g766
sg56
(lp1342
g49
(g70
g51
NtRp1343
(dp1344
g54
(dp1345
g74
g75
ssg63
g1339
sg56
(lp1346
S'server_protocol'
p1347
asbag49
(g70
g51
NtRp1348
(dp1349
g54
(dp1350
g81
g82
ssg63
g1339
sg56
(lp1351
S':'
asbag49
(g70
g51
NtRp1352
(dp1353
g54
(dp1354
sg63
g1339
sg56
(lp1355
g49
(g50
g51
NtRp1356
(dp1357
g54
(dp1358
g62
I4
ssg63
g1352
sg56
(lp1359
S'HTTP/1.1'
p1360
asbasbasbag49
(g65
g51
NtRp1361
(dp1362
g54
(dp1363
sg63
g766
sg56
(lp1364
g49
(g70
g51
NtRp1365
(dp1366
g54
(dp1367
g74
g75
ssg63
g1361
sg56
(lp1368
S'server_software'
p1369
asbag49
(g70
g51
NtRp1370
(dp1371
g54
(dp1372
g81
g82
ssg63
g1361
sg56
(lp1373
S':'
asbag49
(g70
g51
NtRp1374
(dp1375
g54
(dp1376
sg63
g1361
sg56
(lp1377
g49
(g50
g51
NtRp1378
(dp1379
g54
(dp1380
g62
I4
ssg63
g1374
sg56
(lp1381
S'Rocket 1.2.4'
p1382
asbasbasbag49
(g65
g51
NtRp1383
(dp1384
g54
(dp1385
sg63
g766
sg56
(lp1386
g49
(g70
g51
NtRp1387
(dp1388
g54
(dp1389
g74
g75
ssg63
g1383
sg56
(lp1390
S'web2py_crontype'
p1391
asbag49
(g70
g51
NtRp1392
(dp1393
g54
(dp1394
g81
g82
ssg63
g1383
sg56
(lp1395
S':'
asbag49
(g70
g51
NtRp1396
(dp1397
g54
(dp1398
sg63
g1383
sg56
(lp1399
g49
(g50
g51
NtRp1400
(dp1401
g54
(dp1402
g62
I4
ssg63
g1396
sg56
(lp1403
S'hard'
p1404
asbasbasbag49
(g65
g51
NtRp1405
(dp1406
g54
(dp1407
sg63
g766
sg56
(lp1408
g49
(g70
g51
NtRp1409
(dp1410
g54
(dp1411
g74
g75
ssg63
g1405
sg56
(lp1412
S'web2py_path'
p1413
asbag49
(g70
g51
NtRp1414
(dp1415
g54
(dp1416
g81
g82
ssg63
g1405
sg56
(lp1417
S':'
asbag49
(g70
g51
NtRp1418
(dp1419
g54
(dp1420
sg63
g1405
sg56
(lp1421
g49
(g50
g51
NtRp1422
(dp1423
g54
(dp1424
g62
I4
ssg63
g1418
sg56
(lp1425
g813
asbasbasbag49
(g65
g51
NtRp1426
(dp1427
g54
(dp1428
sg63
g766
sg56
(lp1429
g49
(g70
g51
NtRp1430
(dp1431
g54
(dp1432
g74
g75
ssg63
g1426
sg56
(lp1433
S'web2py_version'
p1434
asbag49
(g70
g51
NtRp1435
(dp1436
g54
(dp1437
g81
g82
ssg63
g1426
sg56
(lp1438
S':'
asbag49
(g70
g51
NtRp1439
(dp1440
g54
(dp1441
sg63
g1426
sg56
(lp1442
g49
(g50
g51
NtRp1443
(dp1444
g54
(dp1445
g62
I4
ssg63
g1439
sg56
(lp1446
g49
(g58
g51
NtRp1447
(dp1448
g54
(dp1449
g62
I3
ssg63
Nsg56
(lp1450
g49
(g65
g51
NtRp1451
(dp1452
g54
(dp1453
sg63
g1447
sg56
(lp1454
g49
(g70
g51
NtRp1455
(dp1456
g54
(dp1457
sg63
g1451
sg56
(lp1458
g49
(g50
g51
NtRp1459
(dp1460
g54
(dp1461
g62
I3
ssg63
g1455
sg56
(lp1462
S'1'
asbasbasbag49
(g65
g51
NtRp1463
(dp1464
g54
(dp1465
sg63
g1447
sg56
(lp1466
g49
(g70
g51
NtRp1467
(dp1468
g54
(dp1469
sg63
g1463
sg56
(lp1470
g49
(g50
g51
NtRp1471
(dp1472
g54
(dp1473
g62
I3
ssg63
g1467
sg56
(lp1474
S'99'
p1475
asbasbasbag49
(g65
g51
NtRp1476
(dp1477
g54
(dp1478
sg63
g1447
sg56
(lp1479
g49
(g70
g51
NtRp1480
(dp1481
g54
(dp1482
sg63
g1476
sg56
(lp1483
g49
(g50
g51
NtRp1484
(dp1485
g54
(dp1486
g62
I3
ssg63
g1480
sg56
(lp1487
S'7'
asbasbasbag49
(g65
g51
NtRp1488
(dp1489
g54
(dp1490
sg63
g1447
sg56
(lp1491
g49
(g70
g51
NtRp1492
(dp1493
g54
(dp1494
sg63
g1488
sg56
(lp1495
g49
(g50
g51
NtRp1496
(dp1497
g54
(dp1498
g62
I3
ssg63
g1492
sg56
(lp1499
S'datetime.datetime(2012, 3, 4, 22, 12, 8)'
p1500
asbasbasbag49
(g65
g51
NtRp1501
(dp1502
g54
(dp1503
sg63
g1447
sg56
(lp1504
g49
(g70
g51
NtRp1505
(dp1506
g54
(dp1507
sg63
g1501
sg56
(lp1508
g49
(g50
g51
NtRp1509
(dp1510
g54
(dp1511
g62
I3
ssg63
g1505
sg56
(lp1512
S'stable'
p1513
asbasbasbasbasbasbasbag49
(g65
g51
NtRp1514
(dp1515
g54
(dp1516
sg63
g766
sg56
(lp1517
g49
(g70
g51
NtRp1518
(dp1519
g54
(dp1520
g74
g75
ssg63
g1514
sg56
(lp1521
S'wsgi_errors'
p1522
asbag49
(g70
g51
NtRp1523
(dp1524
g54
(dp1525
g81
g82
ssg63
g1514
sg56
(lp1526
S':'
asbag49
(g70
g51
NtRp1527
(dp1528
g54
(dp1529
sg63
g1514
sg56
(lp1530
g49
(g50
g51
NtRp1531
(dp1532
g54
(dp1533
g62
I4
ssg63
g1527
sg56
(lp1534
S"<open file '<stderr>', mode 'w' at 0x014F00B0>"
p1535
asbasbasbag49
(g65
g51
NtRp1536
(dp1537
g54
(dp1538
sg63
g766
sg56
(lp1539
g49
(g70
g51
NtRp1540
(dp1541
g54
(dp1542
g74
g75
ssg63
g1536
sg56
(lp1543
S'wsgi_file_wrapper'
p1544
asbag49
(g70
g51
NtRp1545
(dp1546
g54
(dp1547
g81
g82
ssg63
g1536
sg56
(lp1548
S':'
asbag49
(g70
g51
NtRp1549
(dp1550
g54
(dp1551
sg63
g1536
sg56
(lp1552
g49
(g50
g51
NtRp1553
(dp1554
g54
(dp1555
g62
I4
ssg63
g1549
sg56
(lp1556
S'<class wsgiref.util.FileWrapper at 0x020041E0>'
p1557
asbasbasbag49
(g65
g51
NtRp1558
(dp1559
g54
(dp1560
sg63
g766
sg56
(lp1561
g49
(g70
g51
NtRp1562
(dp1563
g54
(dp1564
g74
g75
ssg63
g1558
sg56
(lp1565
S'wsgi_input'
p1566
asbag49
(g70
g51
NtRp1567
(dp1568
g54
(dp1569
g81
g82
ssg63
g1558
sg56
(lp1570
S':'
asbag49
(g70
g51
NtRp1571
(dp1572
g54
(dp1573
sg63
g1558
sg56
(lp1574
g49
(g50
g51
NtRp1575
(dp1576
g54
(dp1577
g62
I4
ssg63
g1571
sg56
(lp1578
S'<socket._fileobject object at 0x04EC7E30>'
p1579
asbasbasbag49
(g65
g51
NtRp1580
(dp1581
g54
(dp1582
sg63
g766
sg56
(lp1583
g49
(g70
g51
NtRp1584
(dp1585
g54
(dp1586
g74
g75
ssg63
g1580
sg56
(lp1587
S'wsgi_multiprocess'
p1588
asbag49
(g70
g51
NtRp1589
(dp1590
g54
(dp1591
g81
g82
ssg63
g1580
sg56
(lp1592
S':'
asbag49
(g70
g51
NtRp1593
(dp1594
g54
(dp1595
sg63
g1580
sg56
(lp1596
g49
(g50
g51
NtRp1597
(dp1598
g54
(dp1599
g62
I4
ssg63
g1593
sg56
(lp1600
g92
asbasbasbag49
(g65
g51
NtRp1601
(dp1602
g54
(dp1603
sg63
g766
sg56
(lp1604
g49
(g70
g51
NtRp1605
(dp1606
g54
(dp1607
g74
g75
ssg63
g1601
sg56
(lp1608
S'wsgi_multithread'
p1609
asbag49
(g70
g51
NtRp1610
(dp1611
g54
(dp1612
g81
g82
ssg63
g1601
sg56
(lp1613
S':'
asbag49
(g70
g51
NtRp1614
(dp1615
g54
(dp1616
sg63
g1601
sg56
(lp1617
g49
(g50
g51
NtRp1618
(dp1619
g54
(dp1620
g62
I4
ssg63
g1614
sg56
(lp1621
S'True'
p1622
asbasbasbag49
(g65
g51
NtRp1623
(dp1624
g54
(dp1625
sg63
g766
sg56
(lp1626
g49
(g70
g51
NtRp1627
(dp1628
g54
(dp1629
g74
g75
ssg63
g1623
sg56
(lp1630
S'wsgi_run_once'
p1631
asbag49
(g70
g51
NtRp1632
(dp1633
g54
(dp1634
g81
g82
ssg63
g1623
sg56
(lp1635
S':'
asbag49
(g70
g51
NtRp1636
(dp1637
g54
(dp1638
sg63
g1623
sg56
(lp1639
g49
(g50
g51
NtRp1640
(dp1641
g54
(dp1642
g62
I4
ssg63
g1636
sg56
(lp1643
g92
asbasbasbag49
(g65
g51
NtRp1644
(dp1645
g54
(dp1646
sg63
g766
sg56
(lp1647
g49
(g70
g51
NtRp1648
(dp1649
g54
(dp1650
g74
g75
ssg63
g1644
sg56
(lp1651
S'wsgi_url_scheme'
p1652
asbag49
(g70
g51
NtRp1653
(dp1654
g54
(dp1655
g81
g82
ssg63
g1644
sg56
(lp1656
S':'
asbag49
(g70
g51
NtRp1657
(dp1658
g54
(dp1659
sg63
g1644
sg56
(lp1660
g49
(g50
g51
NtRp1661
(dp1662
g54
(dp1663
g62
I4
ssg63
g1657
sg56
(lp1664
S'http'
p1665
asbasbasbag49
(g65
g51
NtRp1666
(dp1667
g54
(dp1668
sg63
g766
sg56
(lp1669
g49
(g70
g51
NtRp1670
(dp1671
g54
(dp1672
g74
g75
ssg63
g1666
sg56
(lp1673
S'wsgi_version'
p1674
asbag49
(g70
g51
NtRp1675
(dp1676
g54
(dp1677
g81
g82
ssg63
g1666
sg56
(lp1678
S':'
asbag49
(g70
g51
NtRp1679
(dp1680
g54
(dp1681
sg63
g1666
sg56
(lp1682
g49
(g50
g51
NtRp1683
(dp1684
g54
(dp1685
g62
I4
ssg63
g1679
sg56
(lp1686
g49
(g58
g51
NtRp1687
(dp1688
g54
(dp1689
g62
I3
ssg63
Nsg56
(lp1690
g49
(g65
g51
NtRp1691
(dp1692
g54
(dp1693
sg63
g1687
sg56
(lp1694
g49
(g70
g51
NtRp1695
(dp1696
g54
(dp1697
sg63
g1691
sg56
(lp1698
g49
(g50
g51
NtRp1699
(dp1700
g54
(dp1701
g62
I3
ssg63
g1695
sg56
(lp1702
S'1'
asbasbasbag49
(g65
g51
NtRp1703
(dp1704
g54
(dp1705
sg63
g1687
sg56
(lp1706
g49
(g70
g51
NtRp1707
(dp1708
g54
(dp1709
sg63
g1703
sg56
(lp1710
g49
(g50
g51
NtRp1711
(dp1712
g54
(dp1713
g62
I3
ssg63
g1707
sg56
(lp1714
S'0'
asbasbasbasbasbasbasbasbasbasbasbag49
(g65
g51
NtRp1715
(dp1716
g54
(dp1717
sg63
g59
sg56
(lp1718
g49
(g70
g51
NtRp1719
(dp1720
g54
(dp1721
g74
g75
ssg63
g1715
sg56
(lp1722
S'extension'
p1723
asbag49
(g70
g51
NtRp1724
(dp1725
g54
(dp1726
g81
g82
ssg63
g1715
sg56
(lp1727
S':'
asbag49
(g70
g51
NtRp1728
(dp1729
g54
(dp1730
sg63
g1715
sg56
(lp1731
g49
(g50
g51
NtRp1732
(dp1733
g54
(dp1734
g62
I5
ssg63
g1728
sg56
(lp1735
S'html'
p1736
asbasbasbag49
(g65
g51
NtRp1737
(dp1738
g54
(dp1739
sg63
g59
sg56
(lp1740
g49
(g70
g51
NtRp1741
(dp1742
g54
(dp1743
g74
g75
ssg63
g1737
sg56
(lp1744
S'folder'
p1745
asbag49
(g70
g51
NtRp1746
(dp1747
g54
(dp1748
g81
g82
ssg63
g1737
sg56
(lp1749
S':'
asbag49
(g70
g51
NtRp1750
(dp1751
g54
(dp1752
sg63
g1737
sg56
(lp1753
g49
(g50
g51
NtRp1754
(dp1755
g54
(dp1756
g62
I5
ssg63
g1750
sg56
(lp1757
S'C:\\Users\\Osku\\koodaus\\web2py\\applications\\sitsit\\'
p1758
asbasbasbag49
(g65
g51
NtRp1759
(dp1760
g54
(dp1761
sg63
g59
sg56
(lp1762
g49
(g70
g51
NtRp1763
(dp1764
g54
(dp1765
g74
g75
ssg63
g1759
sg56
(lp1766
S'function'
p1767
asbag49
(g70
g51
NtRp1768
(dp1769
g54
(dp1770
g81
g82
ssg63
g1759
sg56
(lp1771
S':'
asbag49
(g70
g51
NtRp1772
(dp1773
g54
(dp1774
sg63
g1759
sg56
(lp1775
g49
(g50
g51
NtRp1776
(dp1777
g54
(dp1778
g62
I5
ssg63
g1772
sg56
(lp1779
S'sitsit'
p1780
asbasbasbag49
(g65
g51
NtRp1781
(dp1782
g54
(dp1783
sg63
g59
sg56
(lp1784
g49
(g70
g51
NtRp1785
(dp1786
g54
(dp1787
g74
g75
ssg63
g1781
sg56
(lp1788
S'get_vars'
p1789
asbag49
(g70
g51
NtRp1790
(dp1791
g54
(dp1792
g81
g82
ssg63
g1781
sg56
(lp1793
S':'
asbag49
(g70
g51
NtRp1794
(dp1795
g54
(dp1796
sg63
g1781
sg56
(lp1797
g49
(g50
g51
NtRp1798
(dp1799
g54
(dp1800
g62
I5
ssg63
g1794
sg56
(lp1801
g49
(g58
g51
NtRp1802
(dp1803
g54
(dp1804
g62
I4
ssg63
Nsg56
(lp1805
sbasbasbasbag49
(g65
g51
NtRp1806
(dp1807
g54
(dp1808
sg63
g59
sg56
(lp1809
g49
(g70
g51
NtRp1810
(dp1811
g54
(dp1812
g74
g75
ssg63
g1806
sg56
(lp1813
S'global_settings'
p1814
asbag49
(g70
g51
NtRp1815
(dp1816
g54
(dp1817
g81
g82
ssg63
g1806
sg56
(lp1818
S':'
asbag49
(g70
g51
NtRp1819
(dp1820
g54
(dp1821
sg63
g1806
sg56
(lp1822
g49
(g50
g51
NtRp1823
(dp1824
g54
(dp1825
g62
I5
ssg63
g1819
sg56
(lp1826
g49
(g58
g51
NtRp1827
(dp1828
g54
(dp1829
g62
I4
ssg63
Nsg56
(lp1830
g49
(g65
g51
NtRp1831
(dp1832
g54
(dp1833
sg63
g1827
sg56
(lp1834
g49
(g70
g51
NtRp1835
(dp1836
g54
(dp1837
g74
g75
ssg63
g1831
sg56
(lp1838
g778
asbag49
(g70
g51
NtRp1839
(dp1840
g54
(dp1841
g81
g82
ssg63
g1831
sg56
(lp1842
S':'
asbag49
(g70
g51
NtRp1843
(dp1844
g54
(dp1845
sg63
g1831
sg56
(lp1846
g49
(g50
g51
NtRp1847
(dp1848
g54
(dp1849
g62
I4
ssg63
g1843
sg56
(lp1850
S"set(['C:\\\\Users\\\\Osku\\\\koodaus\\\\web2py\\\\applications\\\\sitsit\\\\', 'C:\\\\Users\\\\Osku\\\\koodaus\\\\web2py\\\\applications\\\\welcome\\\\', 'C:\\\\Users\\\\Osku\\\\koodaus\\\\web2py\\\\applications\\\\admin\\\\'])"
p1851
asbasbasbag49
(g65
g51
NtRp1852
(dp1853
g54
(dp1854
sg63
g1827
sg56
(lp1855
g49
(g70
g51
NtRp1856
(dp1857
g54
(dp1858
g74
g75
ssg63
g1852
sg56
(lp1859
g800
asbag49
(g70
g51
NtRp1860
(dp1861
g54
(dp1862
g81
g82
ssg63
g1852
sg56
(lp1863
S':'
asbag49
(g70
g51
NtRp1864
(dp1865
g54
(dp1866
sg63
g1852
sg56
(lp1867
g49
(g50
g51
NtRp1868
(dp1869
g54
(dp1870
g62
I4
ssg63
g1864
sg56
(lp1871
g813
asbasbasbag49
(g65
g51
NtRp1872
(dp1873
g54
(dp1874
sg63
g1827
sg56
(lp1875
g49
(g70
g51
NtRp1876
(dp1877
g54
(dp1878
g74
g75
ssg63
g1872
sg56
(lp1879
g822
asbag49
(g70
g51
NtRp1880
(dp1881
g54
(dp1882
g81
g82
ssg63
g1872
sg56
(lp1883
S':'
asbag49
(g70
g51
NtRp1884
(dp1885
g54
(dp1886
sg63
g1872
sg56
(lp1887
g49
(g50
g51
NtRp1888
(dp1889
g54
(dp1890
g62
I4
ssg63
g1884
sg56
(lp1891
g49
(g58
g51
NtRp1892
(dp1893
g54
(dp1894
g62
I3
ssg63
Nsg56
(lp1895
sbasbasbasbag49
(g65
g51
NtRp1896
(dp1897
g54
(dp1898
sg63
g1827
sg56
(lp1899
g49
(g70
g51
NtRp1900
(dp1901
g54
(dp1902
g74
g75
ssg63
g1896
sg56
(lp1903
g847
asbag49
(g70
g51
NtRp1904
(dp1905
g54
(dp1906
g81
g82
ssg63
g1896
sg56
(lp1907
S':'
asbag49
(g70
g51
NtRp1908
(dp1909
g54
(dp1910
sg63
g1896
sg56
(lp1911
g49
(g50
g51
NtRp1912
(dp1913
g54
(dp1914
g62
I4
ssg63
g1908
sg56
(lp1915
S"<Values at 0x2270030: {'verbose': False, 'ip': '127.0.0.1', 'shutdown_timeout': 5, 'taskbar': False, 'nocron': False, 'pid_filename': 'httpserver.pid', 'maxthreads': None, 'softcron': False, 'server_name': 'Osku-Kannettava', 'bpython': False, 'nogui': False, 'port': 8000, 'extcron': False, 'debuglevel': 30, 'test': None, 'folder': 'C:\\\\Users\\\\Osku\\\\koodaus\\\\web2py', 'config': '', 'import_models': False, 'winservice': '', 'shell': None, 'run': '', 'log_filename': 'httpserver.log', 'args': [''], 'socket_timeout': 5, 'ssl_ca_certificate': None, 'scheduler': None, 'profiler_filename': None, 'ssl_private_key': '', 'password': '<ask>', 'request_queue_size': 5, 'ssl_certificate': '', 'cronjob': False, 'numthreads': None, 'quiet': False, 'interfaces': None, 'minthreads': None, 'timeout': 10, 'plain': False, 'nobanner': False}>"
p1916
asbasbasbag49
(g65
g51
NtRp1917
(dp1918
g54
(dp1919
sg63
g1827
sg56
(lp1920
g49
(g70
g51
NtRp1921
(dp1922
g54
(dp1923
g74
g75
ssg63
g1917
sg56
(lp1924
g869
asbag49
(g70
g51
NtRp1925
(dp1926
g54
(dp1927
g81
g82
ssg63
g1917
sg56
(lp1928
S':'
asbag49
(g70
g51
NtRp1929
(dp1930
g54
(dp1931
sg63
g1917
sg56
(lp1932
g49
(g50
g51
NtRp1933
(dp1934
g54
(dp1935
g62
I4
ssg63
g1929
sg56
(lp1936
S'set([])'
p1937
asbasbasbag49
(g65
g51
NtRp1938
(dp1939
g54
(dp1940
sg63
g1827
sg56
(lp1941
g49
(g70
g51
NtRp1942
(dp1943
g54
(dp1944
g74
g75
ssg63
g1938
sg56
(lp1945
g891
asbag49
(g70
g51
NtRp1946
(dp1947
g54
(dp1948
g81
g82
ssg63
g1938
sg56
(lp1949
S':'
asbag49
(g70
g51
NtRp1950
(dp1951
g54
(dp1952
sg63
g1938
sg56
(lp1953
g49
(g50
g51
NtRp1954
(dp1955
g54
(dp1956
g62
I4
ssg63
g1950
sg56
(lp1957
g92
asbasbasbag49
(g65
g51
NtRp1958
(dp1959
g54
(dp1960
sg63
g1827
sg56
(lp1961
g49
(g70
g51
NtRp1962
(dp1963
g54
(dp1964
g74
g75
ssg63
g1958
sg56
(lp1965
g912
asbag49
(g70
g51
NtRp1966
(dp1967
g54
(dp1968
g81
g82
ssg63
g1958
sg56
(lp1969
S':'
asbag49
(g70
g51
NtRp1970
(dp1971
g54
(dp1972
sg63
g1958
sg56
(lp1973
g49
(g50
g51
NtRp1974
(dp1975
g54
(dp1976
g62
I4
ssg63
g1970
sg56
(lp1977
g925
asbasbasbag49
(g65
g51
NtRp1978
(dp1979
g54
(dp1980
sg63
g1827
sg56
(lp1981
g49
(g70
g51
NtRp1982
(dp1983
g54
(dp1984
g74
g75
ssg63
g1978
sg56
(lp1985
g1132
asbag49
(g70
g51
NtRp1986
(dp1987
g54
(dp1988
g81
g82
ssg63
g1978
sg56
(lp1989
S':'
asbag49
(g70
g51
NtRp1990
(dp1991
g54
(dp1992
sg63
g1978
sg56
(lp1993
g49
(g50
g51
NtRp1994
(dp1995
g54
(dp1996
g62
I4
ssg63
g1990
sg56
(lp1997
g92
asbasbasbag49
(g65
g51
NtRp1998
(dp1999
g54
(dp2000
sg63
g1827
sg56
(lp2001
g49
(g70
g51
NtRp2002
(dp2003
g54
(dp2004
g74
g75
ssg63
g1998
sg56
(lp2005
g1153
asbag49
(g70
g51
NtRp2006
(dp2007
g54
(dp2008
g81
g82
ssg63
g1998
sg56
(lp2009
S':'
asbag49
(g70
g51
NtRp2010
(dp2011
g54
(dp2012
sg63
g1998
sg56
(lp2013
g49
(g50
g51
NtRp2014
(dp2015
g54
(dp2016
g62
I4
ssg63
g2010
sg56
(lp2017
g92
asbasbasbag49
(g65
g51
NtRp2018
(dp2019
g54
(dp2020
sg63
g1827
sg56
(lp2021
g49
(g70
g51
NtRp2022
(dp2023
g54
(dp2024
g74
g75
ssg63
g2018
sg56
(lp2025
g1391
asbag49
(g70
g51
NtRp2026
(dp2027
g54
(dp2028
g81
g82
ssg63
g2018
sg56
(lp2029
S':'
asbag49
(g70
g51
NtRp2030
(dp2031
g54
(dp2032
sg63
g2018
sg56
(lp2033
g49
(g50
g51
NtRp2034
(dp2035
g54
(dp2036
g62
I4
ssg63
g2030
sg56
(lp2037
g1404
asbasbasbag49
(g65
g51
NtRp2038
(dp2039
g54
(dp2040
sg63
g1827
sg56
(lp2041
g49
(g70
g51
NtRp2042
(dp2043
g54
(dp2044
g74
g75
ssg63
g2038
sg56
(lp2045
g1434
asbag49
(g70
g51
NtRp2046
(dp2047
g54
(dp2048
g81
g82
ssg63
g2038
sg56
(lp2049
S':'
asbag49
(g70
g51
NtRp2050
(dp2051
g54
(dp2052
sg63
g2038
sg56
(lp2053
g49
(g50
g51
NtRp2054
(dp2055
g54
(dp2056
g62
I4
ssg63
g2050
sg56
(lp2057
g49
(g58
g51
NtRp2058
(dp2059
g54
(dp2060
g62
I3
ssg63
Nsg56
(lp2061
g49
(g65
g51
NtRp2062
(dp2063
g54
(dp2064
sg63
g2058
sg56
(lp2065
g49
(g70
g51
NtRp2066
(dp2067
g54
(dp2068
sg63
g2062
sg56
(lp2069
g49
(g50
g51
NtRp2070
(dp2071
g54
(dp2072
g62
I3
ssg63
g2066
sg56
(lp2073
S'1'
asbasbasbag49
(g65
g51
NtRp2074
(dp2075
g54
(dp2076
sg63
g2058
sg56
(lp2077
g49
(g70
g51
NtRp2078
(dp2079
g54
(dp2080
sg63
g2074
sg56
(lp2081
g49
(g50
g51
NtRp2082
(dp2083
g54
(dp2084
g62
I3
ssg63
g2078
sg56
(lp2085
S'99'
p2086
asbasbasbag49
(g65
g51
NtRp2087
(dp2088
g54
(dp2089
sg63
g2058
sg56
(lp2090
g49
(g70
g51
NtRp2091
(dp2092
g54
(dp2093
sg63
g2087
sg56
(lp2094
g49
(g50
g51
NtRp2095
(dp2096
g54
(dp2097
g62
I3
ssg63
g2091
sg56
(lp2098
S'7'
asbasbasbag49
(g65
g51
NtRp2099
(dp2100
g54
(dp2101
sg63
g2058
sg56
(lp2102
g49
(g70
g51
NtRp2103
(dp2104
g54
(dp2105
sg63
g2099
sg56
(lp2106
g49
(g50
g51
NtRp2107
(dp2108
g54
(dp2109
g62
I3
ssg63
g2103
sg56
(lp2110
S'datetime.datetime(2012, 3, 4, 22, 12, 8)'
p2111
asbasbasbag49
(g65
g51
NtRp2112
(dp2113
g54
(dp2114
sg63
g2058
sg56
(lp2115
g49
(g70
g51
NtRp2116
(dp2117
g54
(dp2118
sg63
g2112
sg56
(lp2119
g49
(g50
g51
NtRp2120
(dp2121
g54
(dp2122
g62
I3
ssg63
g2116
sg56
(lp2123
g1513
asbasbasbasbasbasbasbasbasbasbasbag49
(g65
g51
NtRp2124
(dp2125
g54
(dp2126
sg63
g59
sg56
(lp2127
g49
(g70
g51
NtRp2128
(dp2129
g54
(dp2130
g74
g75
ssg63
g2124
sg56
(lp2131
S'is_https'
p2132
asbag49
(g70
g51
NtRp2133
(dp2134
g54
(dp2135
g81
g82
ssg63
g2124
sg56
(lp2136
S':'
asbag49
(g70
g51
NtRp2137
(dp2138
g54
(dp2139
sg63
g2124
sg56
(lp2140
g49
(g50
g51
NtRp2141
(dp2142
g54
(dp2143
g62
I5
ssg63
g2137
sg56
(lp2144
g92
asbasbasbag49
(g65
g51
NtRp2145
(dp2146
g54
(dp2147
sg63
g59
sg56
(lp2148
g49
(g70
g51
NtRp2149
(dp2150
g54
(dp2151
g74
g75
ssg63
g2145
sg56
(lp2152
S'is_local'
p2153
asbag49
(g70
g51
NtRp2154
(dp2155
g54
(dp2156
g81
g82
ssg63
g2145
sg56
(lp2157
S':'
asbag49
(g70
g51
NtRp2158
(dp2159
g54
(dp2160
sg63
g2145
sg56
(lp2161
g49
(g50
g51
NtRp2162
(dp2163
g54
(dp2164
g62
I5
ssg63
g2158
sg56
(lp2165
g1622
asbasbasbag49
(g65
g51
NtRp2166
(dp2167
g54
(dp2168
sg63
g59
sg56
(lp2169
g49
(g70
g51
NtRp2170
(dp2171
g54
(dp2172
g74
g75
ssg63
g2166
sg56
(lp2173
S'is_restful'
p2174
asbag49
(g70
g51
NtRp2175
(dp2176
g54
(dp2177
g81
g82
ssg63
g2166
sg56
(lp2178
S':'
asbag49
(g70
g51
NtRp2179
(dp2180
g54
(dp2181
sg63
g2166
sg56
(lp2182
g49
(g50
g51
NtRp2183
(dp2184
g54
(dp2185
g62
I5
ssg63
g2179
sg56
(lp2186
g92
asbasbasbag49
(g65
g51
NtRp2187
(dp2188
g54
(dp2189
sg63
g59
sg56
(lp2190
g49
(g70
g51
NtRp2191
(dp2192
g54
(dp2193
g74
g75
ssg63
g2187
sg56
(lp2194
S'now'
p2195
asbag49
(g70
g51
NtRp2196
(dp2197
g54
(dp2198
g81
g82
ssg63
g2187
sg56
(lp2199
S':'
asbag49
(g70
g51
NtRp2200
(dp2201
g54
(dp2202
sg63
g2187
sg56
(lp2203
g49
(g50
g51
NtRp2204
(dp2205
g54
(dp2206
g62
I5
ssg63
g2200
sg56
(lp2207
S'datetime.datetime(2012, 7, 6, 23, 28, 52, 842000)'
p2208
asbasbasbag49
(g65
g51
NtRp2209
(dp2210
g54
(dp2211
sg63
g59
sg56
(lp2212
g49
(g70
g51
NtRp2213
(dp2214
g54
(dp2215
g74
g75
ssg63
g2209
sg56
(lp2216
S'post_vars'
p2217
asbag49
(g70
g51
NtRp2218
(dp2219
g54
(dp2220
g81
g82
ssg63
g2209
sg56
(lp2221
S':'
asbag49
(g70
g51
NtRp2222
(dp2223
g54
(dp2224
sg63
g2209
sg56
(lp2225
g49
(g50
g51
NtRp2226
(dp2227
g54
(dp2228
g62
I5
ssg63
g2222
sg56
(lp2229
g49
(g58
g51
NtRp2230
(dp2231
g54
(dp2232
g62
I4
ssg63
Nsg56
(lp2233
sbasbasbasbag49
(g65
g51
NtRp2234
(dp2235
g54
(dp2236
sg63
g59
sg56
(lp2237
g49
(g70
g51
NtRp2238
(dp2239
g54
(dp2240
g74
g75
ssg63
g2234
sg56
(lp2241
S'raw_args'
p2242
asbag49
(g70
g51
NtRp2243
(dp2244
g54
(dp2245
g81
g82
ssg63
g2234
sg56
(lp2246
S':'
asbag49
(g70
g51
NtRp2247
(dp2248
g54
(dp2249
sg63
g2234
sg56
(lp2250
g49
(g50
g51
NtRp2251
(dp2252
g54
(dp2253
g62
I5
ssg63
g2247
sg56
(lp2254
S'10'
p2255
asbasbasbag49
(g65
g51
NtRp2256
(dp2257
g54
(dp2258
sg63
g59
sg56
(lp2259
g49
(g70
g51
NtRp2260
(dp2261
g54
(dp2262
g74
g75
ssg63
g2256
sg56
(lp2263
S'url'
p2264
asbag49
(g70
g51
NtRp2265
(dp2266
g54
(dp2267
g81
g82
ssg63
g2256
sg56
(lp2268
S':'
asbag49
(g70
g51
NtRp2269
(dp2270
g54
(dp2271
sg63
g2256
sg56
(lp2272
g49
(g50
g51
NtRp2273
(dp2274
g54
(dp2275
g62
I5
ssg63
g2269
sg56
(lp2276
S'/sitsit/default/sitsit/10'
p2277
asbasbasbag49
(g65
g51
NtRp2278
(dp2279
g54
(dp2280
sg63
g59
sg56
(lp2281
g49
(g70
g51
NtRp2282
(dp2283
g54
(dp2284
g74
g75
ssg63
g2278
sg56
(lp2285
S'utcnow'
p2286
asbag49
(g70
g51
NtRp2287
(dp2288
g54
(dp2289
g81
g82
ssg63
g2278
sg56
(lp2290
S':'
asbag49
(g70
g51
NtRp2291
(dp2292
g54
(dp2293
sg63
g2278
sg56
(lp2294
g49
(g50
g51
NtRp2295
(dp2296
g54
(dp2297
g62
I5
ssg63
g2291
sg56
(lp2298
S'datetime.datetime(2012, 7, 6, 21, 28, 52, 842000)'
p2299
asbasbasbag49
(g65
g51
NtRp2300
(dp2301
g54
(dp2302
sg63
g59
sg56
(lp2303
g49
(g70
g51
NtRp2304
(dp2305
g54
(dp2306
g74
g75
ssg63
g2300
sg56
(lp2307
S'uuid'
p2308
asbag49
(g70
g51
NtRp2309
(dp2310
g54
(dp2311
g81
g82
ssg63
g2300
sg56
(lp2312
S':'
asbag49
(g70
g51
NtRp2313
(dp2314
g54
(dp2315
sg63
g2300
sg56
(lp2316
g49
(g50
g51
NtRp2317
(dp2318
g54
(dp2319
g62
I5
ssg63
g2313
sg56
(lp2320
S'sitsit/127.0.0.1.2012-07-06.23-28-52.6117ff12-36a7-4ccc-8dc2-1ca1d78c44da'
p2321
asbasbasbag49
(g65
g51
NtRp2322
(dp2323
g54
(dp2324
sg63
g59
sg56
(lp2325
g49
(g70
g51
NtRp2326
(dp2327
g54
(dp2328
g74
g75
ssg63
g2322
sg56
(lp2329
S'vars'
p2330
asbag49
(g70
g51
NtRp2331
(dp2332
g54
(dp2333
g81
g82
ssg63
g2322
sg56
(lp2334
S':'
asbag49
(g70
g51
NtRp2335
(dp2336
g54
(dp2337
sg63
g2322
sg56
(lp2338
g49
(g50
g51
NtRp2339
(dp2340
g54
(dp2341
g62
I5
ssg63
g2335
sg56
(lp2342
g49
(g58
g51
NtRp2343
(dp2344
g54
(dp2345
g62
I4
ssg63
Nsg56
(lp2346
sbasbasbasbag49
(g65
g51
NtRp2347
(dp2348
g54
(dp2349
sg63
g59
sg56
(lp2350
g49
(g70
g51
NtRp2351
(dp2352
g54
(dp2353
g74
g75
ssg63
g2347
sg56
(lp2354
S'wsgi'
p2355
asbag49
(g70
g51
NtRp2356
(dp2357
g54
(dp2358
g81
g82
ssg63
g2347
sg56
(lp2359
S':'
asbag49
(g70
g51
NtRp2360
(dp2361
g54
(dp2362
sg63
g2347
sg56
(lp2363
g49
(g50
g51
NtRp2364
(dp2365
g54
(dp2366
g62
I5
ssg63
g2360
sg56
(lp2367
g49
(g58
g51
NtRp2368
(dp2369
g54
(dp2370
g62
I4
ssg63
Nsg56
(lp2371
g49
(g65
g51
NtRp2372
(dp2373
g54
(dp2374
sg63
g2368
sg56
(lp2375
g49
(g70
g51
NtRp2376
(dp2377
g54
(dp2378
g74
g75
ssg63
g2372
sg56
(lp2379
S'environ'
p2380
asbag49
(g70
g51
NtRp2381
(dp2382
g54
(dp2383
g81
g82
ssg63
g2372
sg56
(lp2384
S':'
asbag49
(g70
g51
NtRp2385
(dp2386
g54
(dp2387
sg63
g2372
sg56
(lp2388
g49
(g50
g51
NtRp2389
(dp2390
g54
(dp2391
g62
I4
ssg63
g2385
sg56
(lp2392
g49
(g58
g51
NtRp2393
(dp2394
g54
(dp2395
g62
I3
ssg63
Nsg56
(lp2396
g49
(g65
g51
NtRp2397
(dp2398
g54
(dp2399
sg63
g2393
sg56
(lp2400
g49
(g70
g51
NtRp2401
(dp2402
g54
(dp2403
g74
g75
ssg63
g2397
sg56
(lp2404
S'HTTP_ACCEPT'
p2405
asbag49
(g70
g51
NtRp2406
(dp2407
g54
(dp2408
g81
g82
ssg63
g2397
sg56
(lp2409
S':'
asbag49
(g70
g51
NtRp2410
(dp2411
g54
(dp2412
sg63
g2397
sg56
(lp2413
g49
(g50
g51
NtRp2414
(dp2415
g54
(dp2416
g62
I3
ssg63
g2410
sg56
(lp2417
g947
asbasbasbag49
(g65
g51
NtRp2418
(dp2419
g54
(dp2420
sg63
g2393
sg56
(lp2421
g49
(g70
g51
NtRp2422
(dp2423
g54
(dp2424
g74
g75
ssg63
g2418
sg56
(lp2425
S'HTTP_ACCEPT_CHARSET'
p2426
asbag49
(g70
g51
NtRp2427
(dp2428
g54
(dp2429
g81
g82
ssg63
g2418
sg56
(lp2430
S':'
asbag49
(g70
g51
NtRp2431
(dp2432
g54
(dp2433
sg63
g2418
sg56
(lp2434
g49
(g50
g51
NtRp2435
(dp2436
g54
(dp2437
g62
I3
ssg63
g2431
sg56
(lp2438
g969
asbasbasbag49
(g65
g51
NtRp2439
(dp2440
g54
(dp2441
sg63
g2393
sg56
(lp2442
g49
(g70
g51
NtRp2443
(dp2444
g54
(dp2445
g74
g75
ssg63
g2439
sg56
(lp2446
S'HTTP_ACCEPT_ENCODING'
p2447
asbag49
(g70
g51
NtRp2448
(dp2449
g54
(dp2450
g81
g82
ssg63
g2439
sg56
(lp2451
S':'
asbag49
(g70
g51
NtRp2452
(dp2453
g54
(dp2454
sg63
g2439
sg56
(lp2455
g49
(g50
g51
NtRp2456
(dp2457
g54
(dp2458
g62
I3
ssg63
g2452
sg56
(lp2459
g991
asbasbasbag49
(g65
g51
NtRp2460
(dp2461
g54
(dp2462
sg63
g2393
sg56
(lp2463
g49
(g70
g51
NtRp2464
(dp2465
g54
(dp2466
g74
g75
ssg63
g2460
sg56
(lp2467
S'HTTP_ACCEPT_LANGUAGE'
p2468
asbag49
(g70
g51
NtRp2469
(dp2470
g54
(dp2471
g81
g82
ssg63
g2460
sg56
(lp2472
S':'
asbag49
(g70
g51
NtRp2473
(dp2474
g54
(dp2475
sg63
g2460
sg56
(lp2476
g49
(g50
g51
NtRp2477
(dp2478
g54
(dp2479
g62
I3
ssg63
g2473
sg56
(lp2480
g1013
asbasbasbag49
(g65
g51
NtRp2481
(dp2482
g54
(dp2483
sg63
g2393
sg56
(lp2484
g49
(g70
g51
NtRp2485
(dp2486
g54
(dp2487
g74
g75
ssg63
g2481
sg56
(lp2488
S'HTTP_CACHE_CONTROL'
p2489
asbag49
(g70
g51
NtRp2490
(dp2491
g54
(dp2492
g81
g82
ssg63
g2481
sg56
(lp2493
S':'
asbag49
(g70
g51
NtRp2494
(dp2495
g54
(dp2496
sg63
g2481
sg56
(lp2497
g49
(g50
g51
NtRp2498
(dp2499
g54
(dp2500
g62
I3
ssg63
g2494
sg56
(lp2501
g1035
asbasbasbag49
(g65
g51
NtRp2502
(dp2503
g54
(dp2504
sg63
g2393
sg56
(lp2505
g49
(g70
g51
NtRp2506
(dp2507
g54
(dp2508
g74
g75
ssg63
g2502
sg56
(lp2509
S'HTTP_CONNECTION'
p2510
asbag49
(g70
g51
NtRp2511
(dp2512
g54
(dp2513
g81
g82
ssg63
g2502
sg56
(lp2514
S':'
asbag49
(g70
g51
NtRp2515
(dp2516
g54
(dp2517
sg63
g2502
sg56
(lp2518
g49
(g50
g51
NtRp2519
(dp2520
g54
(dp2521
g62
I3
ssg63
g2515
sg56
(lp2522
g1057
asbasbasbag49
(g65
g51
NtRp2523
(dp2524
g54
(dp2525
sg63
g2393
sg56
(lp2526
g49
(g70
g51
NtRp2527
(dp2528
g54
(dp2529
g74
g75
ssg63
g2523
sg56
(lp2530
S'HTTP_COOKIE'
p2531
asbag49
(g70
g51
NtRp2532
(dp2533
g54
(dp2534
g81
g82
ssg63
g2523
sg56
(lp2535
S':'
asbag49
(g70
g51
NtRp2536
(dp2537
g54
(dp2538
sg63
g2523
sg56
(lp2539
g49
(g50
g51
NtRp2540
(dp2541
g54
(dp2542
g62
I3
ssg63
g2536
sg56
(lp2543
g1079
asbasbasbag49
(g65
g51
NtRp2544
(dp2545
g54
(dp2546
sg63
g2393
sg56
(lp2547
g49
(g70
g51
NtRp2548
(dp2549
g54
(dp2550
g74
g75
ssg63
g2544
sg56
(lp2551
S'HTTP_HOST'
p2552
asbag49
(g70
g51
NtRp2553
(dp2554
g54
(dp2555
g81
g82
ssg63
g2544
sg56
(lp2556
S':'
asbag49
(g70
g51
NtRp2557
(dp2558
g54
(dp2559
sg63
g2544
sg56
(lp2560
g49
(g50
g51
NtRp2561
(dp2562
g54
(dp2563
g62
I3
ssg63
g2557
sg56
(lp2564
g1101
asbasbasbag49
(g65
g51
NtRp2565
(dp2566
g54
(dp2567
sg63
g2393
sg56
(lp2568
g49
(g70
g51
NtRp2569
(dp2570
g54
(dp2571
g74
g75
ssg63
g2565
sg56
(lp2572
S'HTTP_USER_AGENT'
p2573
asbag49
(g70
g51
NtRp2574
(dp2575
g54
(dp2576
g81
g82
ssg63
g2565
sg56
(lp2577
S':'
asbag49
(g70
g51
NtRp2578
(dp2579
g54
(dp2580
sg63
g2565
sg56
(lp2581
g49
(g50
g51
NtRp2582
(dp2583
g54
(dp2584
g62
I3
ssg63
g2578
sg56
(lp2585
g1123
asbasbasbag49
(g65
g51
NtRp2586
(dp2587
g54
(dp2588
sg63
g2393
sg56
(lp2589
g49
(g70
g51
NtRp2590
(dp2591
g54
(dp2592
g74
g75
ssg63
g2586
sg56
(lp2593
S'PATH_INFO'
p2594
asbag49
(g70
g51
NtRp2595
(dp2596
g54
(dp2597
g81
g82
ssg63
g2586
sg56
(lp2598
S':'
asbag49
(g70
g51
NtRp2599
(dp2600
g54
(dp2601
sg63
g2586
sg56
(lp2602
g49
(g50
g51
NtRp2603
(dp2604
g54
(dp2605
g62
I3
ssg63
g2599
sg56
(lp2606
g1187
asbasbasbag49
(g65
g51
NtRp2607
(dp2608
g54
(dp2609
sg63
g2393
sg56
(lp2610
g49
(g70
g51
NtRp2611
(dp2612
g54
(dp2613
g74
g75
ssg63
g2607
sg56
(lp2614
S'QUERY_STRING'
p2615
asbag49
(g70
g51
NtRp2616
(dp2617
g54
(dp2618
g81
g82
ssg63
g2607
sg56
(lp2619
S':'
asbag49
(g70
g51
NtRp2620
(dp2621
g54
(dp2622
sg63
g2607
sg56
(lp2623
g49
(g50
g51
NtRp2624
(dp2625
g54
(dp2626
g62
I3
ssg63
g2620
sg56
(lp2627
S''
asbasbasbag49
(g65
g51
NtRp2628
(dp2629
g54
(dp2630
sg63
g2393
sg56
(lp2631
g49
(g70
g51
NtRp2632
(dp2633
g54
(dp2634
g74
g75
ssg63
g2628
sg56
(lp2635
S'REMOTE_ADDR'
p2636
asbag49
(g70
g51
NtRp2637
(dp2638
g54
(dp2639
g81
g82
ssg63
g2628
sg56
(lp2640
S':'
asbag49
(g70
g51
NtRp2641
(dp2642
g54
(dp2643
sg63
g2628
sg56
(lp2644
g49
(g50
g51
NtRp2645
(dp2646
g54
(dp2647
g62
I3
ssg63
g2641
sg56
(lp2648
g195
asbasbasbag49
(g65
g51
NtRp2649
(dp2650
g54
(dp2651
sg63
g2393
sg56
(lp2652
g49
(g70
g51
NtRp2653
(dp2654
g54
(dp2655
g74
g75
ssg63
g2649
sg56
(lp2656
S'REMOTE_PORT'
p2657
asbag49
(g70
g51
NtRp2658
(dp2659
g54
(dp2660
g81
g82
ssg63
g2649
sg56
(lp2661
S':'
asbag49
(g70
g51
NtRp2662
(dp2663
g54
(dp2664
sg63
g2649
sg56
(lp2665
g49
(g50
g51
NtRp2666
(dp2667
g54
(dp2668
g62
I3
ssg63
g2662
sg56
(lp2669
g1251
asbasbasbag49
(g65
g51
NtRp2670
(dp2671
g54
(dp2672
sg63
g2393
sg56
(lp2673
g49
(g70
g51
NtRp2674
(dp2675
g54
(dp2676
g74
g75
ssg63
g2670
sg56
(lp2677
S'REQUEST_METHOD'
p2678
asbag49
(g70
g51
NtRp2679
(dp2680
g54
(dp2681
g81
g82
ssg63
g2670
sg56
(lp2682
S':'
asbag49
(g70
g51
NtRp2683
(dp2684
g54
(dp2685
sg63
g2670
sg56
(lp2686
g49
(g50
g51
NtRp2687
(dp2688
g54
(dp2689
g62
I3
ssg63
g2683
sg56
(lp2690
g1273
asbasbasbag49
(g65
g51
NtRp2691
(dp2692
g54
(dp2693
sg63
g2393
sg56
(lp2694
g49
(g70
g51
NtRp2695
(dp2696
g54
(dp2697
g74
g75
ssg63
g2691
sg56
(lp2698
S'SCRIPT_NAME'
p2699
asbag49
(g70
g51
NtRp2700
(dp2701
g54
(dp2702
g81
g82
ssg63
g2691
sg56
(lp2703
S':'
asbag49
(g70
g51
NtRp2704
(dp2705
g54
(dp2706
sg63
g2691
sg56
(lp2707
g49
(g50
g51
NtRp2708
(dp2709
g54
(dp2710
g62
I3
ssg63
g2704
sg56
(lp2711
S''
asbasbasbag49
(g65
g51
NtRp2712
(dp2713
g54
(dp2714
sg63
g2393
sg56
(lp2715
g49
(g70
g51
NtRp2716
(dp2717
g54
(dp2718
g74
g75
ssg63
g2712
sg56
(lp2719
S'SERVER_NAME'
p2720
asbag49
(g70
g51
NtRp2721
(dp2722
g54
(dp2723
g81
g82
ssg63
g2712
sg56
(lp2724
S':'
asbag49
(g70
g51
NtRp2725
(dp2726
g54
(dp2727
sg63
g2712
sg56
(lp2728
g49
(g50
g51
NtRp2729
(dp2730
g54
(dp2731
g62
I3
ssg63
g2725
sg56
(lp2732
g1316
asbasbasbag49
(g65
g51
NtRp2733
(dp2734
g54
(dp2735
sg63
g2393
sg56
(lp2736
g49
(g70
g51
NtRp2737
(dp2738
g54
(dp2739
g74
g75
ssg63
g2733
sg56
(lp2740
S'SERVER_PORT'
p2741
asbag49
(g70
g51
NtRp2742
(dp2743
g54
(dp2744
g81
g82
ssg63
g2733
sg56
(lp2745
S':'
asbag49
(g70
g51
NtRp2746
(dp2747
g54
(dp2748
sg63
g2733
sg56
(lp2749
g49
(g50
g51
NtRp2750
(dp2751
g54
(dp2752
g62
I3
ssg63
g2746
sg56
(lp2753
g1338
asbasbasbag49
(g65
g51
NtRp2754
(dp2755
g54
(dp2756
sg63
g2393
sg56
(lp2757
g49
(g70
g51
NtRp2758
(dp2759
g54
(dp2760
g74
g75
ssg63
g2754
sg56
(lp2761
S'SERVER_PROTOCOL'
p2762
asbag49
(g70
g51
NtRp2763
(dp2764
g54
(dp2765
g81
g82
ssg63
g2754
sg56
(lp2766
S':'
asbag49
(g70
g51
NtRp2767
(dp2768
g54
(dp2769
sg63
g2754
sg56
(lp2770
g49
(g50
g51
NtRp2771
(dp2772
g54
(dp2773
g62
I3
ssg63
g2767
sg56
(lp2774
g1360
asbasbasbag49
(g65
g51
NtRp2775
(dp2776
g54
(dp2777
sg63
g2393
sg56
(lp2778
g49
(g70
g51
NtRp2779
(dp2780
g54
(dp2781
g74
g75
ssg63
g2775
sg56
(lp2782
S'SERVER_SOFTWARE'
p2783
asbag49
(g70
g51
NtRp2784
(dp2785
g54
(dp2786
g81
g82
ssg63
g2775
sg56
(lp2787
S':'
asbag49
(g70
g51
NtRp2788
(dp2789
g54
(dp2790
sg63
g2775
sg56
(lp2791
g49
(g50
g51
NtRp2792
(dp2793
g54
(dp2794
g62
I3
ssg63
g2788
sg56
(lp2795
g1382
asbasbasbag49
(g65
g51
NtRp2796
(dp2797
g54
(dp2798
sg63
g2393
sg56
(lp2799
g49
(g70
g51
NtRp2800
(dp2801
g54
(dp2802
g74
g75
ssg63
g2796
sg56
(lp2803
S'wsgi.errors'
p2804
asbag49
(g70
g51
NtRp2805
(dp2806
g54
(dp2807
g81
g82
ssg63
g2796
sg56
(lp2808
S':'
asbag49
(g70
g51
NtRp2809
(dp2810
g54
(dp2811
sg63
g2796
sg56
(lp2812
g49
(g50
g51
NtRp2813
(dp2814
g54
(dp2815
g62
I3
ssg63
g2809
sg56
(lp2816
S"<open file '<stderr>', mode 'w' at 0x014F00B0>"
p2817
asbasbasbag49
(g65
g51
NtRp2818
(dp2819
g54
(dp2820
sg63
g2393
sg56
(lp2821
g49
(g70
g51
NtRp2822
(dp2823
g54
(dp2824
g74
g75
ssg63
g2818
sg56
(lp2825
S'wsgi.file_wrapper'
p2826
asbag49
(g70
g51
NtRp2827
(dp2828
g54
(dp2829
g81
g82
ssg63
g2818
sg56
(lp2830
S':'
asbag49
(g70
g51
NtRp2831
(dp2832
g54
(dp2833
sg63
g2818
sg56
(lp2834
g49
(g50
g51
NtRp2835
(dp2836
g54
(dp2837
g62
I3
ssg63
g2831
sg56
(lp2838
S'<class wsgiref.util.FileWrapper at 0x020041E0>'
p2839
asbasbasbag49
(g65
g51
NtRp2840
(dp2841
g54
(dp2842
sg63
g2393
sg56
(lp2843
g49
(g70
g51
NtRp2844
(dp2845
g54
(dp2846
g74
g75
ssg63
g2840
sg56
(lp2847
S'wsgi.input'
p2848
asbag49
(g70
g51
NtRp2849
(dp2850
g54
(dp2851
g81
g82
ssg63
g2840
sg56
(lp2852
S':'
asbag49
(g70
g51
NtRp2853
(dp2854
g54
(dp2855
sg63
g2840
sg56
(lp2856
g49
(g50
g51
NtRp2857
(dp2858
g54
(dp2859
g62
I3
ssg63
g2853
sg56
(lp2860
S'<cStringIO.StringO object at 0x0580A060>'
p2861
asbasbasbag49
(g65
g51
NtRp2862
(dp2863
g54
(dp2864
sg63
g2393
sg56
(lp2865
g49
(g70
g51
NtRp2866
(dp2867
g54
(dp2868
g74
g75
ssg63
g2862
sg56
(lp2869
S'wsgi.multiprocess'
p2870
asbag49
(g70
g51
NtRp2871
(dp2872
g54
(dp2873
g81
g82
ssg63
g2862
sg56
(lp2874
S':'
asbag49
(g70
g51
NtRp2875
(dp2876
g54
(dp2877
sg63
g2862
sg56
(lp2878
g49
(g50
g51
NtRp2879
(dp2880
g54
(dp2881
g62
I3
ssg63
g2875
sg56
(lp2882
g92
asbasbasbag49
(g65
g51
NtRp2883
(dp2884
g54
(dp2885
sg63
g2393
sg56
(lp2886
g49
(g70
g51
NtRp2887
(dp2888
g54
(dp2889
g74
g75
ssg63
g2883
sg56
(lp2890
S'wsgi.multithread'
p2891
asbag49
(g70
g51
NtRp2892
(dp2893
g54
(dp2894
g81
g82
ssg63
g2883
sg56
(lp2895
S':'
asbag49
(g70
g51
NtRp2896
(dp2897
g54
(dp2898
sg63
g2883
sg56
(lp2899
g49
(g50
g51
NtRp2900
(dp2901
g54
(dp2902
g62
I3
ssg63
g2896
sg56
(lp2903
g1622
asbasbasbag49
(g65
g51
NtRp2904
(dp2905
g54
(dp2906
sg63
g2393
sg56
(lp2907
g49
(g70
g51
NtRp2908
(dp2909
g54
(dp2910
g74
g75
ssg63
g2904
sg56
(lp2911
S'wsgi.run_once'
p2912
asbag49
(g70
g51
NtRp2913
(dp2914
g54
(dp2915
g81
g82
ssg63
g2904
sg56
(lp2916
S':'
asbag49
(g70
g51
NtRp2917
(dp2918
g54
(dp2919
sg63
g2904
sg56
(lp2920
g49
(g50
g51
NtRp2921
(dp2922
g54
(dp2923
g62
I3
ssg63
g2917
sg56
(lp2924
g92
asbasbasbag49
(g65
g51
NtRp2925
(dp2926
g54
(dp2927
sg63
g2393
sg56
(lp2928
g49
(g70
g51
NtRp2929
(dp2930
g54
(dp2931
g74
g75
ssg63
g2925
sg56
(lp2932
S'wsgi.url_scheme'
p2933
asbag49
(g70
g51
NtRp2934
(dp2935
g54
(dp2936
g81
g82
ssg63
g2925
sg56
(lp2937
S':'
asbag49
(g70
g51
NtRp2938
(dp2939
g54
(dp2940
sg63
g2925
sg56
(lp2941
g49
(g50
g51
NtRp2942
(dp2943
g54
(dp2944
g62
I3
ssg63
g2938
sg56
(lp2945
g1665
asbasbasbag49
(g65
g51
NtRp2946
(dp2947
g54
(dp2948
sg63
g2393
sg56
(lp2949
g49
(g70
g51
NtRp2950
(dp2951
g54
(dp2952
g74
g75
ssg63
g2946
sg56
(lp2953
S'wsgi.version'
p2954
asbag49
(g70
g51
NtRp2955
(dp2956
g54
(dp2957
g81
g82
ssg63
g2946
sg56
(lp2958
S':'
asbag49
(g70
g51
NtRp2959
(dp2960
g54
(dp2961
sg63
g2946
sg56
(lp2962
g49
(g50
g51
NtRp2963
(dp2964
g54
(dp2965
g62
I3
ssg63
g2959
sg56
(lp2966
S'1'
asbasbasbasbasbasbasbasbasbasbasbasbasbsS'frames'
p2967
(lp2968
(dp2969
S'file'
p2970
S'C:\\Users\\Osku\\koodaus\\web2py\\gluon\\restricted.py'
p2971
sS'dump'
p2972
(dp2973
sS'lnum'
p2974
I205
sS'lines'
p2975
(dp2976
sS'call'
p2977
S"(code='# -*- coding: utf-8 -*-\\n# this file is released ...rud())\\n\\n\\nresponse._vars=response._caller(sitsit)\\n', environment={'A': <class 'gluon.html.A'>, 'Auth': <class 'gluon.tools.Auth'>, 'B': <class 'gluon.html.B'>, 'BEAUTIFY': <class 'gluon.html.BEAUTIFY'>, 'BODY': <class 'gluon.html.BODY'>, 'BR': <class 'gluon.html.BR'>, 'BUTTON': <class 'gluon.html.BUTTON'>, 'CAT': <class 'gluon.html.CAT'>, 'CENTER': <class 'gluon.html.CENTER'>, 'CLEANUP': <class 'gluon.validators.CLEANUP'>, ...}, layer=r'C:\\Users\\Osku\\koodaus\\web2py\\applications\\sitsit\\controllers/default.py')"
p2978
sS'func'
p2979
S'restricted'
p2980
sa(dp2981
g2970
S'C:\\Users\\Osku\\koodaus\\web2py\\applications\\sitsit\\controllers\\default.py'
p2982
sg2972
(dp2983
sg2974
I94
sg2975
(dp2984
I83
S'    http://..../[app]/default/data/delete/[table]/[id]'
p2985
sI84
S'    http://..../[app]/default/data/select/[table]'
p2986
sI85
S'    http://..../[app]/default/data/search/[table]'
p2987
sI86
S'    but URLs must be signed, i.e. linked with'
p2988
sI87
S"      A('table',_href=URL('data/tables',user_signature=True))"
p2989
sI88
S'    or with the signed load operator'
p2990
sI89
S"      LOAD('default','data.load',args='tables',ajax=True,user_signature=True)"
p2991
sI90
S'    """'
p2992
sI91
S'    return dict(form=crud())'
p2993
sI92
S''
ssg2977
S'()'
p2994
sg2979
S'<module>'
p2995
sa(dp2996
g2970
S'C:\\Users\\Osku\\koodaus\\web2py\\gluon\\globals.py'
p2997
sg2972
(dp2998
sg2974
I173
sg2975
(dp2999
sg2977
S'(f=<function sitsit at 0x05730330>)'
p3000
sg2979
S'<lambda>'
p3001
sa(dp3002
g2970
S'C:\\Users\\Osku\\koodaus\\web2py\\applications\\sitsit\\controllers\\default.py'
p3003
sg2972
(dp3004
sg2974
I34
sg2975
(dp3005
I32
S'\t\towner=False'
p3006
sI33
S'\t\tif auth.is_logged_in():'
p3007
sI34
S'\t\t\tif auth.user.id == sitsi.owner:'
p3008
sI35
S'\t\t\t\towner=True'
p3009
sI36
S'\t\tif sitsit:'
p3010
sI37
S'\t\t\treturn dict(sitsi=sitsi.as_dict(),found=True,people=people,owner=owner)'
p3011
sI38
S'\t\telse:'
p3012
sI29
S'\t\tsitsiID = request.args[0]'
p3013
sI30
S'\t\tsitsi = db.party[sitsiID]'
p3014
sI31
S'\t\tpeople = db(db.guest_party_attending.party == sitsiID).select().as_dict()'
p3015
ssg2977
S'()'
p3016
sg2979
S'sitsit'
p3017
sasS'pyver'
p3018
S'Python 2.5.4: C:\\Users\\Osku\\koodaus\\web2py\\web2py.exe'
p3019
sS'session'
p3020
g49
(g50
g51
NtRp3021
(dp3022
g54
(dp3023
sg56
(lp3024
g49
(g58
g51
NtRp3025
(dp3026
g54
(dp3027
g62
I5
ssg63
Nsg56
(lp3028
g49
(g65
g51
NtRp3029
(dp3030
g54
(dp3031
sg63
g3025
sg56
(lp3032
g49
(g70
g51
NtRp3033
(dp3034
g54
(dp3035
g74
g75
ssg63
g3029
sg56
(lp3036
S'auth'
p3037
asbag49
(g70
g51
NtRp3038
(dp3039
g54
(dp3040
g81
g82
ssg63
g3029
sg56
(lp3041
S':'
asbag49
(g70
g51
NtRp3042
(dp3043
g54
(dp3044
sg63
g3029
sg56
(lp3045
g49
(g50
g51
NtRp3046
(dp3047
g54
(dp3048
g62
I5
ssg63
g3042
sg56
(lp3049
g49
(g58
g51
NtRp3050
(dp3051
g54
(dp3052
g62
I4
ssg63
Nsg56
(lp3053
g49
(g65
g51
NtRp3054
(dp3055
g54
(dp3056
sg63
g3050
sg56
(lp3057
g49
(g70
g51
NtRp3058
(dp3059
g54
(dp3060
g74
g75
ssg63
g3054
sg56
(lp3061
S'expiration'
p3062
asbag49
(g70
g51
NtRp3063
(dp3064
g54
(dp3065
g81
g82
ssg63
g3054
sg56
(lp3066
S':'
asbag49
(g70
g51
NtRp3067
(dp3068
g54
(dp3069
sg63
g3054
sg56
(lp3070
g49
(g50
g51
NtRp3071
(dp3072
g54
(dp3073
g62
I4
ssg63
g3067
sg56
(lp3074
S'3600'
p3075
asbasbasbag49
(g65
g51
NtRp3076
(dp3077
g54
(dp3078
sg63
g3050
sg56
(lp3079
g49
(g70
g51
NtRp3080
(dp3081
g54
(dp3082
g74
g75
ssg63
g3076
sg56
(lp3083
S'hmac_key'
p3084
asbag49
(g70
g51
NtRp3085
(dp3086
g54
(dp3087
g81
g82
ssg63
g3076
sg56
(lp3088
S':'
asbag49
(g70
g51
NtRp3089
(dp3090
g54
(dp3091
sg63
g3076
sg56
(lp3092
g49
(g50
g51
NtRp3093
(dp3094
g54
(dp3095
g62
I4
ssg63
g3089
sg56
(lp3096
S'871ae63d-f3e0-499f-bd79-a2b724d0a3d4'
p3097
asbasbasbag49
(g65
g51
NtRp3098
(dp3099
g54
(dp3100
sg63
g3050
sg56
(lp3101
g49
(g70
g51
NtRp3102
(dp3103
g54
(dp3104
g74
g75
ssg63
g3098
sg56
(lp3105
S'last_visit'
p3106
asbag49
(g70
g51
NtRp3107
(dp3108
g54
(dp3109
g81
g82
ssg63
g3098
sg56
(lp3110
S':'
asbag49
(g70
g51
NtRp3111
(dp3112
g54
(dp3113
sg63
g3098
sg56
(lp3114
g49
(g50
g51
NtRp3115
(dp3116
g54
(dp3117
g62
I4
ssg63
g3111
sg56
(lp3118
S'datetime.datetime(2012, 7, 6, 23, 27, 58, 819000)'
p3119
asbasbasbag49
(g65
g51
NtRp3120
(dp3121
g54
(dp3122
sg63
g3050
sg56
(lp3123
g49
(g70
g51
NtRp3124
(dp3125
g54
(dp3126
g74
g75
ssg63
g3120
sg56
(lp3127
S'user'
p3128
asbag49
(g70
g51
NtRp3129
(dp3130
g54
(dp3131
g81
g82
ssg63
g3120
sg56
(lp3132
S':'
asbag49
(g70
g51
NtRp3133
(dp3134
g54
(dp3135
sg63
g3120
sg56
(lp3136
g49
(g50
g51
NtRp3137
(dp3138
g54
(dp3139
g62
I4
ssg63
g3133
sg56
(lp3140
g49
(g58
g51
NtRp3141
(dp3142
g54
(dp3143
g62
I3
ssg63
Nsg56
(lp3144
g49
(g65
g51
NtRp3145
(dp3146
g54
(dp3147
sg63
g3141
sg56
(lp3148
g49
(g70
g51
NtRp3149
(dp3150
g54
(dp3151
g74
g75
ssg63
g3145
sg56
(lp3152
S'birthdate'
p3153
asbag49
(g70
g51
NtRp3154
(dp3155
g54
(dp3156
g81
g82
ssg63
g3145
sg56
(lp3157
S':'
asbag49
(g70
g51
NtRp3158
(dp3159
g54
(dp3160
sg63
g3145
sg56
(lp3161
g49
(g50
g51
NtRp3162
(dp3163
g54
(dp3164
g62
I3
ssg63
g3158
sg56
(lp3165
S'None'
p3166
asbasbasbag49
(g65
g51
NtRp3167
(dp3168
g54
(dp3169
sg63
g3141
sg56
(lp3170
g49
(g70
g51
NtRp3171
(dp3172
g54
(dp3173
g74
g75
ssg63
g3167
sg56
(lp3174
S'email'
p3175
asbag49
(g70
g51
NtRp3176
(dp3177
g54
(dp3178
g81
g82
ssg63
g3167
sg56
(lp3179
S':'
asbag49
(g70
g51
NtRp3180
(dp3181
g54
(dp3182
sg63
g3167
sg56
(lp3183
g49
(g50
g51
NtRp3184
(dp3185
g54
(dp3186
g62
I3
ssg63
g3180
sg56
(lp3187
S'oskari.petas@gmail.com'
p3188
asbasbasbag49
(g65
g51
NtRp3189
(dp3190
g54
(dp3191
sg63
g3141
sg56
(lp3192
g49
(g70
g51
NtRp3193
(dp3194
g54
(dp3195
g74
g75
ssg63
g3189
sg56
(lp3196
S'first_name'
p3197
asbag49
(g70
g51
NtRp3198
(dp3199
g54
(dp3200
g81
g82
ssg63
g3189
sg56
(lp3201
S':'
asbag49
(g70
g51
NtRp3202
(dp3203
g54
(dp3204
sg63
g3189
sg56
(lp3205
g49
(g50
g51
NtRp3206
(dp3207
g54
(dp3208
g62
I3
ssg63
g3202
sg56
(lp3209
S'Oskari'
p3210
asbasbasbag49
(g65
g51
NtRp3211
(dp3212
g54
(dp3213
sg63
g3141
sg56
(lp3214
g49
(g70
g51
NtRp3215
(dp3216
g54
(dp3217
g74
g75
ssg63
g3211
sg56
(lp3218
S'id'
p3219
asbag49
(g70
g51
NtRp3220
(dp3221
g54
(dp3222
g81
g82
ssg63
g3211
sg56
(lp3223
S':'
asbag49
(g70
g51
NtRp3224
(dp3225
g54
(dp3226
sg63
g3211
sg56
(lp3227
g49
(g50
g51
NtRp3228
(dp3229
g54
(dp3230
g62
I3
ssg63
g3224
sg56
(lp3231
S'1'
asbasbasbag49
(g65
g51
NtRp3232
(dp3233
g54
(dp3234
sg63
g3141
sg56
(lp3235
g49
(g70
g51
NtRp3236
(dp3237
g54
(dp3238
g74
g75
ssg63
g3232
sg56
(lp3239
S'last_name'
p3240
asbag49
(g70
g51
NtRp3241
(dp3242
g54
(dp3243
g81
g82
ssg63
g3232
sg56
(lp3244
S':'
asbag49
(g70
g51
NtRp3245
(dp3246
g54
(dp3247
sg63
g3232
sg56
(lp3248
g49
(g50
g51
NtRp3249
(dp3250
g54
(dp3251
g62
I3
ssg63
g3245
sg56
(lp3252
S'Petas'
p3253
asbasbasbag49
(g65
g51
NtRp3254
(dp3255
g54
(dp3256
sg63
g3141
sg56
(lp3257
g49
(g70
g51
NtRp3258
(dp3259
g54
(dp3260
g74
g75
ssg63
g3254
sg56
(lp3261
S'password'
p3262
asbag49
(g70
g51
NtRp3263
(dp3264
g54
(dp3265
g81
g82
ssg63
g3254
sg56
(lp3266
S':'
asbag49
(g70
g51
NtRp3267
(dp3268
g54
(dp3269
sg63
g3254
sg56
(lp3270
g49
(g50
g51
NtRp3271
(dp3272
g54
(dp3273
g62
I3
ssg63
g3267
sg56
(lp3274
S'b11d7fe42f4ed95554a3bb1f580d7880'
p3275
asbasbasbag49
(g65
g51
NtRp3276
(dp3277
g54
(dp3278
sg63
g3141
sg56
(lp3279
g49
(g70
g51
NtRp3280
(dp3281
g54
(dp3282
g74
g75
ssg63
g3276
sg56
(lp3283
S'registration_id'
p3284
asbag49
(g70
g51
NtRp3285
(dp3286
g54
(dp3287
g81
g82
ssg63
g3276
sg56
(lp3288
S':'
asbag49
(g70
g51
NtRp3289
(dp3290
g54
(dp3291
sg63
g3276
sg56
(lp3292
g49
(g50
g51
NtRp3293
(dp3294
g54
(dp3295
g62
I3
ssg63
g3289
sg56
(lp3296
S''
asbasbasbag49
(g65
g51
NtRp3297
(dp3298
g54
(dp3299
sg63
g3141
sg56
(lp3300
g49
(g70
g51
NtRp3301
(dp3302
g54
(dp3303
g74
g75
ssg63
g3297
sg56
(lp3304
S'registration_key'
p3305
asbag49
(g70
g51
NtRp3306
(dp3307
g54
(dp3308
g81
g82
ssg63
g3297
sg56
(lp3309
S':'
asbag49
(g70
g51
NtRp3310
(dp3311
g54
(dp3312
sg63
g3297
sg56
(lp3313
g49
(g50
g51
NtRp3314
(dp3315
g54
(dp3316
g62
I3
ssg63
g3310
sg56
(lp3317
S''
asbasbasbag49
(g65
g51
NtRp3318
(dp3319
g54
(dp3320
sg63
g3141
sg56
(lp3321
g49
(g70
g51
NtRp3322
(dp3323
g54
(dp3324
g74
g75
ssg63
g3318
sg56
(lp3325
S'representation'
p3326
asbag49
(g70
g51
NtRp3327
(dp3328
g54
(dp3329
g81
g82
ssg63
g3318
sg56
(lp3330
S':'
asbag49
(g70
g51
NtRp3331
(dp3332
g54
(dp3333
sg63
g3318
sg56
(lp3334
g49
(g50
g51
NtRp3335
(dp3336
g54
(dp3337
g62
I3
ssg63
g3331
sg56
(lp3338
S'AS'
p3339
asbasbasbag49
(g65
g51
NtRp3340
(dp3341
g54
(dp3342
sg63
g3141
sg56
(lp3343
g49
(g70
g51
NtRp3344
(dp3345
g54
(dp3346
g74
g75
ssg63
g3340
sg56
(lp3347
S'reset_password_key'
p3348
asbag49
(g70
g51
NtRp3349
(dp3350
g54
(dp3351
g81
g82
ssg63
g3340
sg56
(lp3352
S':'
asbag49
(g70
g51
NtRp3353
(dp3354
g54
(dp3355
sg63
g3340
sg56
(lp3356
g49
(g50
g51
NtRp3357
(dp3358
g54
(dp3359
g62
I3
ssg63
g3353
sg56
(lp3360
S''
asbasbasbasbasbasbasbag49
(g65
g51
NtRp3361
(dp3362
g54
(dp3363
sg63
g3050
sg56
(lp3364
g49
(g70
g51
NtRp3365
(dp3366
g54
(dp3367
g74
g75
ssg63
g3361
sg56
(lp3368
S'user_groups'
p3369
asbag49
(g70
g51
NtRp3370
(dp3371
g54
(dp3372
g81
g82
ssg63
g3361
sg56
(lp3373
S':'
asbag49
(g70
g51
NtRp3374
(dp3375
g54
(dp3376
sg63
g3361
sg56
(lp3377
g49
(g50
g51
NtRp3378
(dp3379
g54
(dp3380
g62
I4
ssg63
g3374
sg56
(lp3381
g49
(g58
g51
NtRp3382
(dp3383
g54
(dp3384
g62
I3
ssg63
Nsg56
(lp3385
g49
(g65
g51
NtRp3386
(dp3387
g54
(dp3388
sg63
g3382
sg56
(lp3389
g49
(g70
g51
NtRp3390
(dp3391
g54
(dp3392
g74
g75
ssg63
g3386
sg56
(lp3393
S'1'
asbag49
(g70
g51
NtRp3394
(dp3395
g54
(dp3396
g81
g82
ssg63
g3386
sg56
(lp3397
S':'
asbag49
(g70
g51
NtRp3398
(dp3399
g54
(dp3400
sg63
g3386
sg56
(lp3401
g49
(g50
g51
NtRp3402
(dp3403
g54
(dp3404
g62
I3
ssg63
g3398
sg56
(lp3405
S'user_1'
p3406
asbasbasbasbasbasbasbasbasbasbasbasbasbsS'etype'
p3407
S"<type 'exceptions.AttributeError'>"
p3408
sS'date'
p3409
S'Fri Jul 06 23:28:52 2012'
p3410
sS'response'
p3411
g49
(g50
g51
NtRp3412
(dp3413
g54
(dp3414
sg56
(lp3415
g49
(g58
g51
NtRp3416
(dp3417
g54
(dp3418
g62
I5
ssg63
Nsg56
(lp3419
g49
(g65
g51
NtRp3420
(dp3421
g54
(dp3422
sg63
g3416
sg56
(lp3423
g49
(g70
g51
NtRp3424
(dp3425
g54
(dp3426
g74
g75
ssg63
g3420
sg56
(lp3427
g160
asbag49
(g70
g51
NtRp3428
(dp3429
g54
(dp3430
g81
g82
ssg63
g3420
sg56
(lp3431
S':'
asbag49
(g70
g51
NtRp3432
(dp3433
g54
(dp3434
sg63
g3420
sg56
(lp3435
g49
(g50
g51
NtRp3436
(dp3437
g54
(dp3438
g62
I5
ssg63
g3432
sg56
(lp3439
S'<cStringIO.StringO object at 0x0518DF20>'
p3440
asbasbasbag49
(g65
g51
NtRp3441
(dp3442
g54
(dp3443
sg63
g3416
sg56
(lp3444
g49
(g70
g51
NtRp3445
(dp3446
g54
(dp3447
g74
g75
ssg63
g3441
sg56
(lp3448
g226
asbag49
(g70
g51
NtRp3449
(dp3450
g54
(dp3451
g81
g82
ssg63
g3441
sg56
(lp3452
S':'
asbag49
(g70
g51
NtRp3453
(dp3454
g54
(dp3455
sg63
g3441
sg56
(lp3456
g49
(g50
g51
NtRp3457
(dp3458
g54
(dp3459
g62
I5
ssg63
g3453
sg56
(lp3460
g49
(g58
g51
NtRp3461
(dp3462
g54
(dp3463
g62
I4
ssg63
Nsg56
(lp3464
g49
(g65
g51
NtRp3465
(dp3466
g54
(dp3467
sg63
g3461
sg56
(lp3468
g49
(g70
g51
NtRp3469
(dp3470
g54
(dp3471
g74
g75
ssg63
g3465
sg56
(lp3472
S'session_id_sitsit'
p3473
asbag49
(g70
g51
NtRp3474
(dp3475
g54
(dp3476
g81
g82
ssg63
g3465
sg56
(lp3477
S':'
asbag49
(g70
g51
NtRp3478
(dp3479
g54
(dp3480
sg63
g3465
sg56
(lp3481
g49
(g50
g51
NtRp3482
(dp3483
g54
(dp3484
g62
I4
ssg63
g3478
sg56
(lp3485
g49
(g58
g51
NtRp3486
(dp3487
g54
(dp3488
g62
I3
ssg63
Nsg56
(lp3489
g49
(g65
g51
NtRp3490
(dp3491
g54
(dp3492
sg63
g3486
sg56
(lp3493
g49
(g70
g51
NtRp3494
(dp3495
g54
(dp3496
g74
g75
ssg63
g3490
sg56
(lp3497
g276
asbag49
(g70
g51
NtRp3498
(dp3499
g54
(dp3500
g81
g82
ssg63
g3490
sg56
(lp3501
S':'
asbag49
(g70
g51
NtRp3502
(dp3503
g54
(dp3504
sg63
g3490
sg56
(lp3505
g49
(g50
g51
NtRp3506
(dp3507
g54
(dp3508
g62
I3
ssg63
g3502
sg56
(lp3509
S''
asbasbasbag49
(g65
g51
NtRp3510
(dp3511
g54
(dp3512
sg63
g3486
sg56
(lp3513
g49
(g70
g51
NtRp3514
(dp3515
g54
(dp3516
g74
g75
ssg63
g3510
sg56
(lp3517
g297
asbag49
(g70
g51
NtRp3518
(dp3519
g54
(dp3520
g81
g82
ssg63
g3510
sg56
(lp3521
S':'
asbag49
(g70
g51
NtRp3522
(dp3523
g54
(dp3524
sg63
g3510
sg56
(lp3525
g49
(g50
g51
NtRp3526
(dp3527
g54
(dp3528
g62
I3
ssg63
g3522
sg56
(lp3529
S''
asbasbasbag49
(g65
g51
NtRp3530
(dp3531
g54
(dp3532
sg63
g3486
sg56
(lp3533
g49
(g70
g51
NtRp3534
(dp3535
g54
(dp3536
g74
g75
ssg63
g3530
sg56
(lp3537
g318
asbag49
(g70
g51
NtRp3538
(dp3539
g54
(dp3540
g81
g82
ssg63
g3530
sg56
(lp3541
S':'
asbag49
(g70
g51
NtRp3542
(dp3543
g54
(dp3544
sg63
g3530
sg56
(lp3545
g49
(g50
g51
NtRp3546
(dp3547
g54
(dp3548
g62
I3
ssg63
g3542
sg56
(lp3549
S''
asbasbasbag49
(g65
g51
NtRp3550
(dp3551
g54
(dp3552
sg63
g3486
sg56
(lp3553
g49
(g70
g51
NtRp3554
(dp3555
g54
(dp3556
g74
g75
ssg63
g3550
sg56
(lp3557
g339
asbag49
(g70
g51
NtRp3558
(dp3559
g54
(dp3560
g81
g82
ssg63
g3550
sg56
(lp3561
S':'
asbag49
(g70
g51
NtRp3562
(dp3563
g54
(dp3564
sg63
g3550
sg56
(lp3565
g49
(g50
g51
NtRp3566
(dp3567
g54
(dp3568
g62
I3
ssg63
g3562
sg56
(lp3569
S''
asbasbasbag49
(g65
g51
NtRp3570
(dp3571
g54
(dp3572
sg63
g3486
sg56
(lp3573
g49
(g70
g51
NtRp3574
(dp3575
g54
(dp3576
g74
g75
ssg63
g3570
sg56
(lp3577
g360
asbag49
(g70
g51
NtRp3578
(dp3579
g54
(dp3580
g81
g82
ssg63
g3570
sg56
(lp3581
S':'
asbag49
(g70
g51
NtRp3582
(dp3583
g54
(dp3584
sg63
g3570
sg56
(lp3585
g49
(g50
g51
NtRp3586
(dp3587
g54
(dp3588
g62
I3
ssg63
g3582
sg56
(lp3589
S'/'
asbasbasbag49
(g65
g51
NtRp3590
(dp3591
g54
(dp3592
sg63
g3486
sg56
(lp3593
g49
(g70
g51
NtRp3594
(dp3595
g54
(dp3596
g74
g75
ssg63
g3590
sg56
(lp3597
g381
asbag49
(g70
g51
NtRp3598
(dp3599
g54
(dp3600
g81
g82
ssg63
g3590
sg56
(lp3601
S':'
asbag49
(g70
g51
NtRp3602
(dp3603
g54
(dp3604
sg63
g3590
sg56
(lp3605
g49
(g50
g51
NtRp3606
(dp3607
g54
(dp3608
g62
I3
ssg63
g3602
sg56
(lp3609
S''
asbasbasbag49
(g65
g51
NtRp3610
(dp3611
g54
(dp3612
sg63
g3486
sg56
(lp3613
g49
(g70
g51
NtRp3614
(dp3615
g54
(dp3616
g74
g75
ssg63
g3610
sg56
(lp3617
g402
asbag49
(g70
g51
NtRp3618
(dp3619
g54
(dp3620
g81
g82
ssg63
g3610
sg56
(lp3621
S':'
asbag49
(g70
g51
NtRp3622
(dp3623
g54
(dp3624
sg63
g3610
sg56
(lp3625
g49
(g50
g51
NtRp3626
(dp3627
g54
(dp3628
g62
I3
ssg63
g3622
sg56
(lp3629
S''
asbasbasbasbasbasbasbasbasbasbasbag49
(g65
g51
NtRp3630
(dp3631
g54
(dp3632
sg63
g3416
sg56
(lp3633
g49
(g70
g51
NtRp3634
(dp3635
g54
(dp3636
g74
g75
ssg63
g3630
sg56
(lp3637
S'delimiters'
p3638
asbag49
(g70
g51
NtRp3639
(dp3640
g54
(dp3641
g81
g82
ssg63
g3630
sg56
(lp3642
S':'
asbag49
(g70
g51
NtRp3643
(dp3644
g54
(dp3645
sg63
g3630
sg56
(lp3646
g49
(g50
g51
NtRp3647
(dp3648
g54
(dp3649
g62
I5
ssg63
g3643
sg56
(lp3650
g49
(g58
g51
NtRp3651
(dp3652
g54
(dp3653
g62
I4
ssg63
Nsg56
(lp3654
g49
(g65
g51
NtRp3655
(dp3656
g54
(dp3657
sg63
g3651
sg56
(lp3658
g49
(g70
g51
NtRp3659
(dp3660
g54
(dp3661
sg63
g3655
sg56
(lp3662
g49
(g50
g51
NtRp3663
(dp3664
g54
(dp3665
g62
I4
ssg63
g3659
sg56
(lp3666
S'{{'
p3667
asbasbasbag49
(g65
g51
NtRp3668
(dp3669
g54
(dp3670
sg63
g3651
sg56
(lp3671
g49
(g70
g51
NtRp3672
(dp3673
g54
(dp3674
sg63
g3668
sg56
(lp3675
g49
(g50
g51
NtRp3676
(dp3677
g54
(dp3678
g62
I4
ssg63
g3672
sg56
(lp3679
S'}}'
p3680
asbasbasbasbasbasbasbag49
(g65
g51
NtRp3681
(dp3682
g54
(dp3683
sg63
g3416
sg56
(lp3684
g49
(g70
g51
NtRp3685
(dp3686
g54
(dp3687
g74
g75
ssg63
g3681
sg56
(lp3688
S'files'
p3689
asbag49
(g70
g51
NtRp3690
(dp3691
g54
(dp3692
g81
g82
ssg63
g3681
sg56
(lp3693
S':'
asbag49
(g70
g51
NtRp3694
(dp3695
g54
(dp3696
sg63
g3681
sg56
(lp3697
g49
(g50
g51
NtRp3698
(dp3699
g54
(dp3700
g62
I5
ssg63
g3694
sg56
(lp3701
g49
(g58
g51
NtRp3702
(dp3703
g54
(dp3704
g62
I4
ssg63
Nsg56
(lp3705
sbasbasbasbag49
(g65
g51
NtRp3706
(dp3707
g54
(dp3708
sg63
g3416
sg56
(lp3709
g49
(g70
g51
NtRp3710
(dp3711
g54
(dp3712
g74
g75
ssg63
g3706
sg56
(lp3713
S'flash'
p3714
asbag49
(g70
g51
NtRp3715
(dp3716
g54
(dp3717
g81
g82
ssg63
g3706
sg56
(lp3718
S':'
asbag49
(g70
g51
NtRp3719
(dp3720
g54
(dp3721
sg63
g3706
sg56
(lp3722
g49
(g50
g51
NtRp3723
(dp3724
g54
(dp3725
g62
I5
ssg63
g3719
sg56
(lp3726
S''
asbasbasbag49
(g65
g51
NtRp3727
(dp3728
g54
(dp3729
sg63
g3416
sg56
(lp3730
g49
(g70
g51
NtRp3731
(dp3732
g54
(dp3733
g74
g75
ssg63
g3727
sg56
(lp3734
S'generic_patterns'
p3735
asbag49
(g70
g51
NtRp3736
(dp3737
g54
(dp3738
g81
g82
ssg63
g3727
sg56
(lp3739
S':'
asbag49
(g70
g51
NtRp3740
(dp3741
g54
(dp3742
sg63
g3727
sg56
(lp3743
g49
(g50
g51
NtRp3744
(dp3745
g54
(dp3746
g62
I5
ssg63
g3740
sg56
(lp3747
g49
(g58
g51
NtRp3748
(dp3749
g54
(dp3750
g62
I4
ssg63
Nsg56
(lp3751
g49
(g65
g51
NtRp3752
(dp3753
g54
(dp3754
sg63
g3748
sg56
(lp3755
g49
(g70
g51
NtRp3756
(dp3757
g54
(dp3758
sg63
g3752
sg56
(lp3759
g49
(g50
g51
NtRp3760
(dp3761
g54
(dp3762
g62
I4
ssg63
g3756
sg56
(lp3763
S'*'
asbasbasbasbasbasbasbag49
(g65
g51
NtRp3764
(dp3765
g54
(dp3766
sg63
g3416
sg56
(lp3767
g49
(g70
g51
NtRp3768
(dp3769
g54
(dp3770
g74
g75
ssg63
g3764
sg56
(lp3771
S'headers'
p3772
asbag49
(g70
g51
NtRp3773
(dp3774
g54
(dp3775
g81
g82
ssg63
g3764
sg56
(lp3776
S':'
asbag49
(g70
g51
NtRp3777
(dp3778
g54
(dp3779
sg63
g3764
sg56
(lp3780
g49
(g50
g51
NtRp3781
(dp3782
g54
(dp3783
g62
I5
ssg63
g3777
sg56
(lp3784
g49
(g58
g51
NtRp3785
(dp3786
g54
(dp3787
g62
I4
ssg63
Nsg56
(lp3788
g49
(g65
g51
NtRp3789
(dp3790
g54
(dp3791
sg63
g3785
sg56
(lp3792
g49
(g70
g51
NtRp3793
(dp3794
g54
(dp3795
g74
g75
ssg63
g3789
sg56
(lp3796
S'Cache-Control'
p3797
asbag49
(g70
g51
NtRp3798
(dp3799
g54
(dp3800
g81
g82
ssg63
g3789
sg56
(lp3801
S':'
asbag49
(g70
g51
NtRp3802
(dp3803
g54
(dp3804
sg63
g3789
sg56
(lp3805
g49
(g50
g51
NtRp3806
(dp3807
g54
(dp3808
g62
I4
ssg63
g3802
sg56
(lp3809
S'no-store, no-cache, must-revalidate, post-check=0, pre-check=0'
p3810
asbasbasbag49
(g65
g51
NtRp3811
(dp3812
g54
(dp3813
sg63
g3785
sg56
(lp3814
g49
(g70
g51
NtRp3815
(dp3816
g54
(dp3817
g74
g75
ssg63
g3811
sg56
(lp3818
S'Content-Type'
p3819
asbag49
(g70
g51
NtRp3820
(dp3821
g54
(dp3822
g81
g82
ssg63
g3811
sg56
(lp3823
S':'
asbag49
(g70
g51
NtRp3824
(dp3825
g54
(dp3826
sg63
g3811
sg56
(lp3827
g49
(g50
g51
NtRp3828
(dp3829
g54
(dp3830
g62
I4
ssg63
g3824
sg56
(lp3831
S'text/html; charset=utf-8'
p3832
asbasbasbag49
(g65
g51
NtRp3833
(dp3834
g54
(dp3835
sg63
g3785
sg56
(lp3836
g49
(g70
g51
NtRp3837
(dp3838
g54
(dp3839
g74
g75
ssg63
g3833
sg56
(lp3840
S'Expires'
p3841
asbag49
(g70
g51
NtRp3842
(dp3843
g54
(dp3844
g81
g82
ssg63
g3833
sg56
(lp3845
S':'
asbag49
(g70
g51
NtRp3846
(dp3847
g54
(dp3848
sg63
g3833
sg56
(lp3849
g49
(g50
g51
NtRp3850
(dp3851
g54
(dp3852
g62
I4
ssg63
g3846
sg56
(lp3853
S'Fri, 06 Jul 2012 21:28:52 GMT'
p3854
asbasbasbag49
(g65
g51
NtRp3855
(dp3856
g54
(dp3857
sg63
g3785
sg56
(lp3858
g49
(g70
g51
NtRp3859
(dp3860
g54
(dp3861
g74
g75
ssg63
g3855
sg56
(lp3862
S'Pragma'
p3863
asbag49
(g70
g51
NtRp3864
(dp3865
g54
(dp3866
g81
g82
ssg63
g3855
sg56
(lp3867
S':'
asbag49
(g70
g51
NtRp3868
(dp3869
g54
(dp3870
sg63
g3855
sg56
(lp3871
g49
(g50
g51
NtRp3872
(dp3873
g54
(dp3874
g62
I4
ssg63
g3868
sg56
(lp3875
S'no-cache'
p3876
asbasbasbag49
(g65
g51
NtRp3877
(dp3878
g54
(dp3879
sg63
g3785
sg56
(lp3880
g49
(g70
g51
NtRp3881
(dp3882
g54
(dp3883
g74
g75
ssg63
g3877
sg56
(lp3884
S'X-Powered-By'
p3885
asbag49
(g70
g51
NtRp3886
(dp3887
g54
(dp3888
g81
g82
ssg63
g3877
sg56
(lp3889
S':'
asbag49
(g70
g51
NtRp3890
(dp3891
g54
(dp3892
sg63
g3877
sg56
(lp3893
g49
(g50
g51
NtRp3894
(dp3895
g54
(dp3896
g62
I4
ssg63
g3890
sg56
(lp3897
S'web2py'
p3898
asbasbasbasbasbasbasbag49
(g65
g51
NtRp3899
(dp3900
g54
(dp3901
sg63
g3416
sg56
(lp3902
g49
(g70
g51
NtRp3903
(dp3904
g54
(dp3905
g74
g75
ssg63
g3899
sg56
(lp3906
S'menu'
p3907
asbag49
(g70
g51
NtRp3908
(dp3909
g54
(dp3910
g81
g82
ssg63
g3899
sg56
(lp3911
S':'
asbag49
(g70
g51
NtRp3912
(dp3913
g54
(dp3914
sg63
g3899
sg56
(lp3915
g49
(g50
g51
NtRp3916
(dp3917
g54
(dp3918
g62
I5
ssg63
g3912
sg56
(lp3919
g49
(g58
g51
NtRp3920
(dp3921
g54
(dp3922
g62
I4
ssg63
Nsg56
(lp3923
g49
(g65
g51
NtRp3924
(dp3925
g54
(dp3926
sg63
g3920
sg56
(lp3927
g49
(g70
g51
NtRp3928
(dp3929
g54
(dp3930
sg63
g3924
sg56
(lp3931
g49
(g50
g51
NtRp3932
(dp3933
g54
(dp3934
g62
I4
ssg63
g3928
sg56
(lp3935
g49
(g58
g51
NtRp3936
(dp3937
g54
(dp3938
g62
I3
ssg63
Nsg56
(lp3939
g49
(g65
g51
NtRp3940
(dp3941
g54
(dp3942
sg63
g3936
sg56
(lp3943
g49
(g70
g51
NtRp3944
(dp3945
g54
(dp3946
sg63
g3940
sg56
(lp3947
g49
(g50
g51
NtRp3948
(dp3949
g54
(dp3950
g62
I3
ssg63
g3944
sg56
(lp3951
cgluon.languages
lazyT_unpickle
p3952
(S's\x04\x00\x00\x00Home'
tRp3953
asbasbasbag49
(g65
g51
NtRp3954
(dp3955
g54
(dp3956
sg63
g3936
sg56
(lp3957
g49
(g70
g51
NtRp3958
(dp3959
g54
(dp3960
sg63
g3954
sg56
(lp3961
g49
(g50
g51
NtRp3962
(dp3963
g54
(dp3964
g62
I3
ssg63
g3958
sg56
(lp3965
g92
asbasbasbag49
(g65
g51
NtRp3966
(dp3967
g54
(dp3968
sg63
g3936
sg56
(lp3969
g49
(g70
g51
NtRp3970
(dp3971
g54
(dp3972
sg63
g3966
sg56
(lp3973
g49
(g50
g51
NtRp3974
(dp3975
g54
(dp3976
g62
I3
ssg63
g3970
sg56
(lp3977
S'/sitsit/default/index'
p3978
asbasbasbag49
(g65
g51
NtRp3979
(dp3980
g54
(dp3981
sg63
g3936
sg56
(lp3982
g49
(g70
g51
NtRp3983
(dp3984
g54
(dp3985
sg63
g3979
sg56
(lp3986
g49
(g50
g51
NtRp3987
(dp3988
g54
(dp3989
g62
I3
ssg63
g3983
sg56
(lp3990
g49
(g58
g51
NtRp3991
(dp3992
g54
(dp3993
g62
I2
ssg63
Nsg56
(lp3994
sbasbasbasbasbasbasbasbag49
(g65
g51
NtRp3995
(dp3996
g54
(dp3997
sg63
g3920
sg56
(lp3998
g49
(g70
g51
NtRp3999
(dp4000
g54
(dp4001
sg63
g3995
sg56
(lp4002
g49
(g50
g51
NtRp4003
(dp4004
g54
(dp4005
g62
I4
ssg63
g3999
sg56
(lp4006
g49
(g58
g51
NtRp4007
(dp4008
g54
(dp4009
g62
I3
ssg63
Nsg56
(lp4010
g49
(g65
g51
NtRp4011
(dp4012
g54
(dp4013
sg63
g4007
sg56
(lp4014
g49
(g70
g51
NtRp4015
(dp4016
g54
(dp4017
sg63
g4011
sg56
(lp4018
g49
(g50
g51
NtRp4019
(dp4020
g54
(dp4021
g62
I3
ssg63
g4015
sg56
(lp4022
g49
(cgluon.html
SPAN
p4023
g51
NtRp4024
(dp4025
g54
(dp4026
g74
S'color:yellow'
p4027
ssg63
Nsg56
(lp4028
g3898
asbasbasbasbag49
(g65
g51
NtRp4029
(dp4030
g54
(dp4031
sg63
g4007
sg56
(lp4032
g49
(g70
g51
NtRp4033
(dp4034
g54
(dp4035
sg63
g4029
sg56
(lp4036
g49
(g50
g51
NtRp4037
(dp4038
g54
(dp4039
g62
I3
ssg63
g4033
sg56
(lp4040
g92
asbasbasbag49
(g65
g51
NtRp4041
(dp4042
g54
(dp4043
sg63
g4007
sg56
(lp4044
g49
(g70
g51
NtRp4045
(dp4046
g54
(dp4047
sg63
g4041
sg56
(lp4048
g49
(g50
g51
NtRp4049
(dp4050
g54
(dp4051
g62
I3
ssg63
g4045
sg56
(lp4052
S'None'
p4053
asbasbasbag49
(g65
g51
NtRp4054
(dp4055
g54
(dp4056
sg63
g4007
sg56
(lp4057
g49
(g70
g51
NtRp4058
(dp4059
g54
(dp4060
sg63
g4054
sg56
(lp4061
g49
(g50
g51
NtRp4062
(dp4063
g54
(dp4064
g62
I3
ssg63
g4058
sg56
(lp4065
g49
(g58
g51
NtRp4066
(dp4067
g54
(dp4068
g62
I2
ssg63
Nsg56
(lp4069
g49
(g65
g51
NtRp4070
(dp4071
g54
(dp4072
sg63
g4066
sg56
(lp4073
g49
(g70
g51
NtRp4074
(dp4075
g54
(dp4076
sg63
g4070
sg56
(lp4077
g49
(g50
g51
NtRp4078
(dp4079
g54
(dp4080
g62
I2
ssg63
g4074
sg56
(lp4081
g49
(g58
g51
NtRp4082
(dp4083
g54
(dp4084
g62
I1
ssg63
Nsg56
(lp4085
g49
(g65
g51
NtRp4086
(dp4087
g54
(dp4088
sg63
g4082
sg56
(lp4089
g49
(g70
g51
NtRp4090
(dp4091
g54
(dp4092
sg63
g4086
sg56
(lp4093
g49
(g50
g51
NtRp4094
(dp4095
g54
(dp4096
g62
I1
ssg63
g4090
sg56
(lp4097
g3952
(S's\x08\x00\x00\x00My Sites'
tRp4098
asbasbasbag49
(g65
g51
NtRp4099
(dp4100
g54
(dp4101
sg63
g4082
sg56
(lp4102
g49
(g70
g51
NtRp4103
(dp4104
g54
(dp4105
sg63
g4099
sg56
(lp4106
g49
(g50
g51
NtRp4107
(dp4108
g54
(dp4109
g62
I1
ssg63
g4103
sg56
(lp4110
I00
asbasbasbag49
(g65
g51
NtRp4111
(dp4112
g54
(dp4113
sg63
g4082
sg56
(lp4114
g49
(g70
g51
NtRp4115
(dp4116
g54
(dp4117
sg63
g4111
sg56
(lp4118
g49
(g50
g51
NtRp4119
(dp4120
g54
(dp4121
g62
I1
ssg63
g4115
sg56
(lp4122
S'/admin/default/site'
p4123
asbasbasbasbasbasbasbag49
(g65
g51
NtRp4124
(dp4125
g54
(dp4126
sg63
g4066
sg56
(lp4127
g49
(g70
g51
NtRp4128
(dp4129
g54
(dp4130
sg63
g4124
sg56
(lp4131
g49
(g50
g51
NtRp4132
(dp4133
g54
(dp4134
g62
I2
ssg63
g4128
sg56
(lp4135
g49
(g58
g51
NtRp4136
(dp4137
g54
(dp4138
g62
I1
ssg63
Nsg56
(lp4139
g49
(g65
g51
NtRp4140
(dp4141
g54
(dp4142
sg63
g4136
sg56
(lp4143
g49
(g70
g51
NtRp4144
(dp4145
g54
(dp4146
sg63
g4140
sg56
(lp4147
g49
(g50
g51
NtRp4148
(dp4149
g54
(dp4150
g62
I1
ssg63
g4144
sg56
(lp4151
g3952
(S's\x08\x00\x00\x00This App'
tRp4152
asbasbasbag49
(g65
g51
NtRp4153
(dp4154
g54
(dp4155
sg63
g4136
sg56
(lp4156
g49
(g70
g51
NtRp4157
(dp4158
g54
(dp4159
sg63
g4153
sg56
(lp4160
g49
(g50
g51
NtRp4161
(dp4162
g54
(dp4163
g62
I1
ssg63
g4157
sg56
(lp4164
I00
asbasbasbag49
(g65
g51
NtRp4165
(dp4166
g54
(dp4167
sg63
g4136
sg56
(lp4168
g49
(g70
g51
NtRp4169
(dp4170
g54
(dp4171
sg63
g4165
sg56
(lp4172
g49
(g50
g51
NtRp4173
(dp4174
g54
(dp4175
g62
I1
ssg63
g4169
sg56
(lp4176
S'/admin/default/design/sitsit'
p4177
asbasbasbag49
(g65
g51
NtRp4178
(dp4179
g54
(dp4180
sg63
g4136
sg56
(lp4181
g49
(g70
g51
NtRp4182
(dp4183
g54
(dp4184
sg63
g4178
sg56
(lp4185
g49
(g50
g51
NtRp4186
(dp4187
g54
(dp4188
g62
I1
ssg63
g4182
sg56
(lp4189
(lp4190
(g3952
(S's\n\x00\x00\x00Controller'
tRp4191
I00
S'/admin/default/edit/sitsit/controllers/default.py'
tp4192
a(g3952
(S's\x04\x00\x00\x00View'
tRp4193
I00
S'/admin/default/edit/sitsit/views/default/sitsit.html'
tp4194
a(g3952
(S's\x06\x00\x00\x00Layout'
tRp4195
I00
S'/admin/default/edit/sitsit/views/layout.html'
tp4196
a(g3952
(S's\n\x00\x00\x00Stylesheet'
tRp4197
I00
S'/admin/default/edit/sitsit/static/css/web2py.css'
tp4198
a(g3952
(S's\x08\x00\x00\x00DB Model'
tRp4199
I00
S'/admin/default/edit/sitsit/models/db.py'
tp4200
a(g3952
(S's\n\x00\x00\x00Menu Model'
tRp4201
I00
S'/admin/default/edit/sitsit/models/menu.py'
tp4202
a(g3952
(S's\x08\x00\x00\x00Database'
tRp4203
I00
S'/sitsit/appadmin/index'
tp4204
a(g3952
(S's\x06\x00\x00\x00Errors'
tRp4205
I00
S'/admin/default/errors/sitsit'
tp4206
a(g3952
(S's\x05\x00\x00\x00About'
tRp4207
I00
S'/admin/default/about/sitsit'
tp4208
aasbasbasbasbasbasbasbag49
(g65
g51
NtRp4209
(dp4210
g54
(dp4211
sg63
g4066
sg56
(lp4212
g49
(g70
g51
NtRp4213
(dp4214
g54
(dp4215
sg63
g4209
sg56
(lp4216
g49
(g50
g51
NtRp4217
(dp4218
g54
(dp4219
g62
I2
ssg63
g4213
sg56
(lp4220
g49
(g58
g51
NtRp4221
(dp4222
g54
(dp4223
g62
I1
ssg63
Nsg56
(lp4224
g49
(g65
g51
NtRp4225
(dp4226
g54
(dp4227
sg63
g4221
sg56
(lp4228
g49
(g70
g51
NtRp4229
(dp4230
g54
(dp4231
sg63
g4225
sg56
(lp4232
g49
(g50
g51
NtRp4233
(dp4234
g54
(dp4235
g62
I1
ssg63
g4229
sg56
(lp4236
S'web2py.com'
p4237
asbasbasbag49
(g65
g51
NtRp4238
(dp4239
g54
(dp4240
sg63
g4221
sg56
(lp4241
g49
(g70
g51
NtRp4242
(dp4243
g54
(dp4244
sg63
g4238
sg56
(lp4245
g49
(g50
g51
NtRp4246
(dp4247
g54
(dp4248
g62
I1
ssg63
g4242
sg56
(lp4249
I00
asbasbasbag49
(g65
g51
NtRp4250
(dp4251
g54
(dp4252
sg63
g4221
sg56
(lp4253
g49
(g70
g51
NtRp4254
(dp4255
g54
(dp4256
sg63
g4250
sg56
(lp4257
g49
(g50
g51
NtRp4258
(dp4259
g54
(dp4260
g62
I1
ssg63
g4254
sg56
(lp4261
S'http://www.web2py.com'
p4262
asbasbasbag49
(g65
g51
NtRp4263
(dp4264
g54
(dp4265
sg63
g4221
sg56
(lp4266
g49
(g70
g51
NtRp4267
(dp4268
g54
(dp4269
sg63
g4263
sg56
(lp4270
g49
(g50
g51
NtRp4271
(dp4272
g54
(dp4273
g62
I1
ssg63
g4267
sg56
(lp4274
(lp4275
(g3952
(S's\x08\x00\x00\x00Download'
tRp4276
I00
S'http://www.web2py.com/examples/default/download'
p4277
tp4278
a(g3952
(S's\x07\x00\x00\x00Support'
tRp4279
I00
S'http://www.web2py.com/examples/default/support'
p4280
tp4281
a(g3952
(S's\x04\x00\x00\x00Demo'
tRp4282
I00
S'http://web2py.com/demo_admin'
p4283
tp4284
a(g3952
(S's\x0e\x00\x00\x00Quick Examples'
tRp4285
I00
S'http://web2py.com/examples/default/examples'
p4286
tp4287
a(g3952
(S's\x03\x00\x00\x00FAQ'
tRp4288
I00
S'http://web2py.com/AlterEgo'
p4289
tp4290
a(g3952
(S's\x06\x00\x00\x00Videos'
tRp4291
I00
S'http://www.web2py.com/examples/default/videos/'
p4292
tp4293
a(g3952
(S's\x11\x00\x00\x00Free Applications'
tRp4294
I00
S'http://web2py.com/appliances'
p4295
tp4296
a(g3952
(S's\x07\x00\x00\x00Plugins'
tRp4297
I00
S'http://web2py.com/plugins'
p4298
tp4299
a(g3952
(S's\x07\x00\x00\x00Layouts'
tRp4300
I00
S'http://web2py.com/layouts'
p4301
tp4302
a(g3952
(S's\x07\x00\x00\x00Recipes'
tRp4303
I00
S'http://web2pyslices.com/'
p4304
tp4305
a(g3952
(S's\x08\x00\x00\x00Semantic'
tRp4306
I00
S'http://web2py.com/semantic'
p4307
tp4308
aasbasbasbasbasbasbasbag49
(g65
g51
NtRp4309
(dp4310
g54
(dp4311
sg63
g4066
sg56
(lp4312
g49
(g70
g51
NtRp4313
(dp4314
g54
(dp4315
sg63
g4309
sg56
(lp4316
g49
(g50
g51
NtRp4317
(dp4318
g54
(dp4319
g62
I2
ssg63
g4313
sg56
(lp4320
g49
(g58
g51
NtRp4321
(dp4322
g54
(dp4323
g62
I1
ssg63
Nsg56
(lp4324
g49
(g65
g51
NtRp4325
(dp4326
g54
(dp4327
sg63
g4321
sg56
(lp4328
g49
(g70
g51
NtRp4329
(dp4330
g54
(dp4331
sg63
g4325
sg56
(lp4332
g49
(g50
g51
NtRp4333
(dp4334
g54
(dp4335
g62
I1
ssg63
g4329
sg56
(lp4336
g3952
(S's\r\x00\x00\x00Documentation'
tRp4337
asbasbasbag49
(g65
g51
NtRp4338
(dp4339
g54
(dp4340
sg63
g4321
sg56
(lp4341
g49
(g70
g51
NtRp4342
(dp4343
g54
(dp4344
sg63
g4338
sg56
(lp4345
g49
(g50
g51
NtRp4346
(dp4347
g54
(dp4348
g62
I1
ssg63
g4342
sg56
(lp4349
I00
asbasbasbag49
(g65
g51
NtRp4350
(dp4351
g54
(dp4352
sg63
g4321
sg56
(lp4353
g49
(g70
g51
NtRp4354
(dp4355
g54
(dp4356
sg63
g4350
sg56
(lp4357
g49
(g50
g51
NtRp4358
(dp4359
g54
(dp4360
g62
I1
ssg63
g4354
sg56
(lp4361
S'http://www.web2py.com/book'
p4362
asbasbasbag49
(g65
g51
NtRp4363
(dp4364
g54
(dp4365
sg63
g4321
sg56
(lp4366
g49
(g70
g51
NtRp4367
(dp4368
g54
(dp4369
sg63
g4363
sg56
(lp4370
g49
(g50
g51
NtRp4371
(dp4372
g54
(dp4373
g62
I1
ssg63
g4367
sg56
(lp4374
(lp4375
(g3952
(S's\x07\x00\x00\x00Preface'
tRp4376
I00
S'http://www.web2py.com/book/default/chapter/00'
p4377
tp4378
a(g3952
(S's\x0c\x00\x00\x00Introduction'
tRp4379
I00
S'http://www.web2py.com/book/default/chapter/01'
p4380
tp4381
a(g3952
(S's\x06\x00\x00\x00Python'
tRp4382
I00
S'http://www.web2py.com/book/default/chapter/02'
p4383
tp4384
a(g3952
(S's\x08\x00\x00\x00Overview'
tRp4385
I00
S'http://www.web2py.com/book/default/chapter/03'
p4386
tp4387
a(g3952
(S's\x08\x00\x00\x00The Core'
tRp4388
I00
S'http://www.web2py.com/book/default/chapter/04'
p4389
tp4390
a(g3952
(S's\t\x00\x00\x00The Views'
tRp4391
I00
S'http://www.web2py.com/book/default/chapter/05'
p4392
tp4393
a(g3952
(S's\x08\x00\x00\x00Database'
tRp4394
I00
S'http://www.web2py.com/book/default/chapter/06'
p4395
tp4396
a(g3952
(S's\x14\x00\x00\x00Forms and Validators'
tRp4397
I00
S'http://www.web2py.com/book/default/chapter/07'
p4398
tp4399
a(g3952
(S's\r\x00\x00\x00Email and SMS'
tRp4400
I00
S'http://www.web2py.com/book/default/chapter/08'
p4401
tp4402
a(g3952
(S's\x0e\x00\x00\x00Access Control'
tRp4403
I00
S'http://www.web2py.com/book/default/chapter/09'
p4404
tp4405
a(g3952
(S's\x08\x00\x00\x00Services'
tRp4406
I00
S'http://www.web2py.com/book/default/chapter/10'
p4407
tp4408
a(g3952
(S's\x0c\x00\x00\x00Ajax Recipes'
tRp4409
I00
S'http://www.web2py.com/book/default/chapter/11'
p4410
tp4411
a(g3952
(S's\x16\x00\x00\x00Components and Plugins'
tRp4412
I00
S'http://www.web2py.com/book/default/chapter/12'
p4413
tp4414
a(g3952
(S's\x12\x00\x00\x00Deployment Recipes'
tRp4415
I00
S'http://www.web2py.com/book/default/chapter/13'
p4416
tp4417
a(g3952
(S's\r\x00\x00\x00Other Recipes'
tRp4418
I00
S'http://www.web2py.com/book/default/chapter/14'
p4419
tp4420
a(g3952
(S's\r\x00\x00\x00Buy this book'
tRp4421
I00
S'http://stores.lulu.com/web2py'
p4422
tp4423
aasbasbasbasbasbasbasbag49
(g65
g51
NtRp4424
(dp4425
g54
(dp4426
sg63
g4066
sg56
(lp4427
g49
(g70
g51
NtRp4428
(dp4429
g54
(dp4430
sg63
g4424
sg56
(lp4431
g49
(g50
g51
NtRp4432
(dp4433
g54
(dp4434
g62
I2
ssg63
g4428
sg56
(lp4435
g49
(g58
g51
NtRp4436
(dp4437
g54
(dp4438
g62
I1
ssg63
Nsg56
(lp4439
g49
(g65
g51
NtRp4440
(dp4441
g54
(dp4442
sg63
g4436
sg56
(lp4443
g49
(g70
g51
NtRp4444
(dp4445
g54
(dp4446
sg63
g4440
sg56
(lp4447
g49
(g50
g51
NtRp4448
(dp4449
g54
(dp4450
g62
I1
ssg63
g4444
sg56
(lp4451
g3952
(S's\t\x00\x00\x00Community'
tRp4452
asbasbasbag49
(g65
g51
NtRp4453
(dp4454
g54
(dp4455
sg63
g4436
sg56
(lp4456
g49
(g70
g51
NtRp4457
(dp4458
g54
(dp4459
sg63
g4453
sg56
(lp4460
g49
(g50
g51
NtRp4461
(dp4462
g54
(dp4463
g62
I1
ssg63
g4457
sg56
(lp4464
I00
asbasbasbag49
(g65
g51
NtRp4465
(dp4466
g54
(dp4467
sg63
g4436
sg56
(lp4468
g49
(g70
g51
NtRp4469
(dp4470
g54
(dp4471
sg63
g4465
sg56
(lp4472
g49
(g50
g51
NtRp4473
(dp4474
g54
(dp4475
g62
I1
ssg63
g4469
sg56
(lp4476
Nasbasbasbag49
(g65
g51
NtRp4477
(dp4478
g54
(dp4479
sg63
g4436
sg56
(lp4480
g49
(g70
g51
NtRp4481
(dp4482
g54
(dp4483
sg63
g4477
sg56
(lp4484
g49
(g50
g51
NtRp4485
(dp4486
g54
(dp4487
g62
I1
ssg63
g4481
sg56
(lp4488
(lp4489
(g3952
(S's\x06\x00\x00\x00Groups'
tRp4490
I00
S'http://www.web2py.com/examples/default/usergroups'
p4491
tp4492
a(g3952
(S's\x07\x00\x00\x00Twitter'
tRp4493
I00
S'http://twitter.com/web2py'
p4494
tp4495
a(g3952
(S's\t\x00\x00\x00Live Chat'
tRp4496
I00
S'http://webchat.freenode.net/?channels=web2py'
p4497
tp4498
aasbasbasbasbasbasbasbag49
(g65
g51
NtRp4499
(dp4500
g54
(dp4501
sg63
g4066
sg56
(lp4502
g49
(g70
g51
NtRp4503
(dp4504
g54
(dp4505
sg63
g4499
sg56
(lp4506
g49
(g50
g51
NtRp4507
(dp4508
g54
(dp4509
g62
I2
ssg63
g4503
sg56
(lp4510
g49
(g58
g51
NtRp4511
(dp4512
g54
(dp4513
g62
I1
ssg63
Nsg56
(lp4514
g49
(g65
g51
NtRp4515
(dp4516
g54
(dp4517
sg63
g4511
sg56
(lp4518
g49
(g70
g51
NtRp4519
(dp4520
g54
(dp4521
sg63
g4515
sg56
(lp4522
g49
(g50
g51
NtRp4523
(dp4524
g54
(dp4525
g62
I1
ssg63
g4519
sg56
(lp4526
g3952
(S's\x07\x00\x00\x00Plugins'
tRp4527
asbasbasbag49
(g65
g51
NtRp4528
(dp4529
g54
(dp4530
sg63
g4511
sg56
(lp4531
g49
(g70
g51
NtRp4532
(dp4533
g54
(dp4534
sg63
g4528
sg56
(lp4535
g49
(g50
g51
NtRp4536
(dp4537
g54
(dp4538
g62
I1
ssg63
g4532
sg56
(lp4539
I00
asbasbasbag49
(g65
g51
NtRp4540
(dp4541
g54
(dp4542
sg63
g4511
sg56
(lp4543
g49
(g70
g51
NtRp4544
(dp4545
g54
(dp4546
sg63
g4540
sg56
(lp4547
g49
(g50
g51
NtRp4548
(dp4549
g54
(dp4550
g62
I1
ssg63
g4544
sg56
(lp4551
Nasbasbasbag49
(g65
g51
NtRp4552
(dp4553
g54
(dp4554
sg63
g4511
sg56
(lp4555
g49
(g70
g51
NtRp4556
(dp4557
g54
(dp4558
sg63
g4552
sg56
(lp4559
g49
(g50
g51
NtRp4560
(dp4561
g54
(dp4562
g62
I1
ssg63
g4556
sg56
(lp4563
(lp4564
(S'plugin_wiki'
p4565
I00
S'http://web2py.com/examples/default/download'
p4566
tp4567
a(g3952
(S's\r\x00\x00\x00Other Plugins'
tRp4568
I00
g4298
tp4569
a(g3952
(S's\x0e\x00\x00\x00Layout Plugins'
tRp4570
I00
g4301
tp4571
aasbasbasbasbasbasbasbasbasbasbasbasbasbasbasbasbasbasbasbag49
(g65
g51
NtRp4572
(dp4573
g54
(dp4574
sg63
g3416
sg56
(lp4575
g49
(g70
g51
NtRp4576
(dp4577
g54
(dp4578
g74
g75
ssg63
g4572
sg56
(lp4579
S'meta'
p4580
asbag49
(g70
g51
NtRp4581
(dp4582
g54
(dp4583
g81
g82
ssg63
g4572
sg56
(lp4584
S':'
asbag49
(g70
g51
NtRp4585
(dp4586
g54
(dp4587
sg63
g4572
sg56
(lp4588
g49
(g50
g51
NtRp4589
(dp4590
g54
(dp4591
g62
I5
ssg63
g4585
sg56
(lp4592
g49
(g58
g51
NtRp4593
(dp4594
g54
(dp4595
g62
I4
ssg63
Nsg56
(lp4596
g49
(g65
g51
NtRp4597
(dp4598
g54
(dp4599
sg63
g4593
sg56
(lp4600
g49
(g70
g51
NtRp4601
(dp4602
g54
(dp4603
g74
g75
ssg63
g4597
sg56
(lp4604
S'author'
p4605
asbag49
(g70
g51
NtRp4606
(dp4607
g54
(dp4608
g81
g82
ssg63
g4597
sg56
(lp4609
S':'
asbag49
(g70
g51
NtRp4610
(dp4611
g54
(dp4612
sg63
g4597
sg56
(lp4613
g49
(g50
g51
NtRp4614
(dp4615
g54
(dp4616
g62
I4
ssg63
g4610
sg56
(lp4617
S'Your Name <you@example.com>'
p4618
asbasbasbag49
(g65
g51
NtRp4619
(dp4620
g54
(dp4621
sg63
g4593
sg56
(lp4622
g49
(g70
g51
NtRp4623
(dp4624
g54
(dp4625
g74
g75
ssg63
g4619
sg56
(lp4626
S'copyright'
p4627
asbag49
(g70
g51
NtRp4628
(dp4629
g54
(dp4630
g81
g82
ssg63
g4619
sg56
(lp4631
S':'
asbag49
(g70
g51
NtRp4632
(dp4633
g54
(dp4634
sg63
g4619
sg56
(lp4635
g49
(g50
g51
NtRp4636
(dp4637
g54
(dp4638
g62
I4
ssg63
g4632
sg56
(lp4639
S'Copyright 2011'
p4640
asbasbasbag49
(g65
g51
NtRp4641
(dp4642
g54
(dp4643
sg63
g4593
sg56
(lp4644
g49
(g70
g51
NtRp4645
(dp4646
g54
(dp4647
g74
g75
ssg63
g4641
sg56
(lp4648
S'description'
p4649
asbag49
(g70
g51
NtRp4650
(dp4651
g54
(dp4652
g81
g82
ssg63
g4641
sg56
(lp4653
S':'
asbag49
(g70
g51
NtRp4654
(dp4655
g54
(dp4656
sg63
g4641
sg56
(lp4657
g49
(g50
g51
NtRp4658
(dp4659
g54
(dp4660
g62
I4
ssg63
g4654
sg56
(lp4661
S'a cool new app'
p4662
asbasbasbag49
(g65
g51
NtRp4663
(dp4664
g54
(dp4665
sg63
g4593
sg56
(lp4666
g49
(g70
g51
NtRp4667
(dp4668
g54
(dp4669
g74
g75
ssg63
g4663
sg56
(lp4670
S'generator'
p4671
asbag49
(g70
g51
NtRp4672
(dp4673
g54
(dp4674
g81
g82
ssg63
g4663
sg56
(lp4675
S':'
asbag49
(g70
g51
NtRp4676
(dp4677
g54
(dp4678
sg63
g4663
sg56
(lp4679
g49
(g50
g51
NtRp4680
(dp4681
g54
(dp4682
g62
I4
ssg63
g4676
sg56
(lp4683
S'Web2py Web Framework'
p4684
asbasbasbag49
(g65
g51
NtRp4685
(dp4686
g54
(dp4687
sg63
g4593
sg56
(lp4688
g49
(g70
g51
NtRp4689
(dp4690
g54
(dp4691
g74
g75
ssg63
g4685
sg56
(lp4692
S'keywords'
p4693
asbag49
(g70
g51
NtRp4694
(dp4695
g54
(dp4696
g81
g82
ssg63
g4685
sg56
(lp4697
S':'
asbag49
(g70
g51
NtRp4698
(dp4699
g54
(dp4700
sg63
g4685
sg56
(lp4701
g49
(g50
g51
NtRp4702
(dp4703
g54
(dp4704
g62
I4
ssg63
g4698
sg56
(lp4705
S'web2py, python, framework'
p4706
asbasbasbasbasbasbasbag49
(g65
g51
NtRp4707
(dp4708
g54
(dp4709
sg63
g3416
sg56
(lp4710
g49
(g70
g51
NtRp4711
(dp4712
g54
(dp4713
g74
g75
ssg63
g4707
sg56
(lp4714
S'postprocessing'
p4715
asbag49
(g70
g51
NtRp4716
(dp4717
g54
(dp4718
g81
g82
ssg63
g4707
sg56
(lp4719
S':'
asbag49
(g70
g51
NtRp4720
(dp4721
g54
(dp4722
sg63
g4707
sg56
(lp4723
g49
(g50
g51
NtRp4724
(dp4725
g54
(dp4726
g62
I5
ssg63
g4720
sg56
(lp4727
g49
(g58
g51
NtRp4728
(dp4729
g54
(dp4730
g62
I4
ssg63
Nsg56
(lp4731
sbasbasbasbag49
(g65
g51
NtRp4732
(dp4733
g54
(dp4734
sg63
g3416
sg56
(lp4735
g49
(g70
g51
NtRp4736
(dp4737
g54
(dp4738
g74
g75
ssg63
g4732
sg56
(lp4739
S'session_file'
p4740
asbag49
(g70
g51
NtRp4741
(dp4742
g54
(dp4743
g81
g82
ssg63
g4732
sg56
(lp4744
S':'
asbag49
(g70
g51
NtRp4745
(dp4746
g54
(dp4747
sg63
g4732
sg56
(lp4748
g49
(g50
g51
NtRp4749
(dp4750
g54
(dp4751
g62
I5
ssg63
g4745
sg56
(lp4752
S"<open file 'C:\\Users\\Osku\\koodaus\\web2py\\applications\\sitsit\\sessions\\127.0.0.1-ec2284ba-32fe-4a19-9a6f-e97c370381b5', mode 'rb+' at 0x024ABB18>"
p4753
asbasbasbag49
(g65
g51
NtRp4754
(dp4755
g54
(dp4756
sg63
g3416
sg56
(lp4757
g49
(g70
g51
NtRp4758
(dp4759
g54
(dp4760
g74
g75
ssg63
g4754
sg56
(lp4761
S'session_filename'
p4762
asbag49
(g70
g51
NtRp4763
(dp4764
g54
(dp4765
g81
g82
ssg63
g4754
sg56
(lp4766
S':'
asbag49
(g70
g51
NtRp4767
(dp4768
g54
(dp4769
sg63
g4754
sg56
(lp4770
g49
(g50
g51
NtRp4771
(dp4772
g54
(dp4773
g62
I5
ssg63
g4767
sg56
(lp4774
S'C:\\Users\\Osku\\koodaus\\web2py\\applications\\sitsit\\sessions\\127.0.0.1-ec2284ba-32fe-4a19-9a6f-e97c370381b5'
p4775
asbasbasbag49
(g65
g51
NtRp4776
(dp4777
g54
(dp4778
sg63
g3416
sg56
(lp4779
g49
(g70
g51
NtRp4780
(dp4781
g54
(dp4782
g74
g75
ssg63
g4776
sg56
(lp4783
S'session_id'
p4784
asbag49
(g70
g51
NtRp4785
(dp4786
g54
(dp4787
g81
g82
ssg63
g4776
sg56
(lp4788
S':'
asbag49
(g70
g51
NtRp4789
(dp4790
g54
(dp4791
sg63
g4776
sg56
(lp4792
g49
(g50
g51
NtRp4793
(dp4794
g54
(dp4795
g62
I5
ssg63
g4789
sg56
(lp4796
S'127.0.0.1-ec2284ba-32fe-4a19-9a6f-e97c370381b5'
p4797
asbasbasbag49
(g65
g51
NtRp4798
(dp4799
g54
(dp4800
sg63
g3416
sg56
(lp4801
g49
(g70
g51
NtRp4802
(dp4803
g54
(dp4804
g74
g75
ssg63
g4798
sg56
(lp4805
S'session_id_name'
p4806
asbag49
(g70
g51
NtRp4807
(dp4808
g54
(dp4809
g81
g82
ssg63
g4798
sg56
(lp4810
S':'
asbag49
(g70
g51
NtRp4811
(dp4812
g54
(dp4813
sg63
g4798
sg56
(lp4814
g49
(g50
g51
NtRp4815
(dp4816
g54
(dp4817
g62
I5
ssg63
g4811
sg56
(lp4818
g3473
asbasbasbag49
(g65
g51
NtRp4819
(dp4820
g54
(dp4821
sg63
g3416
sg56
(lp4822
g49
(g70
g51
NtRp4823
(dp4824
g54
(dp4825
g74
g75
ssg63
g4819
sg56
(lp4826
S'session_locked'
p4827
asbag49
(g70
g51
NtRp4828
(dp4829
g54
(dp4830
g81
g82
ssg63
g4819
sg56
(lp4831
S':'
asbag49
(g70
g51
NtRp4832
(dp4833
g54
(dp4834
sg63
g4819
sg56
(lp4835
g49
(g50
g51
NtRp4836
(dp4837
g54
(dp4838
g62
I5
ssg63
g4832
sg56
(lp4839
g1622
asbasbasbag49
(g65
g51
NtRp4840
(dp4841
g54
(dp4842
sg63
g3416
sg56
(lp4843
g49
(g70
g51
NtRp4844
(dp4845
g54
(dp4846
g74
g75
ssg63
g4840
sg56
(lp4847
S'session_new'
p4848
asbag49
(g70
g51
NtRp4849
(dp4850
g54
(dp4851
g81
g82
ssg63
g4840
sg56
(lp4852
S':'
asbag49
(g70
g51
NtRp4853
(dp4854
g54
(dp4855
sg63
g4840
sg56
(lp4856
g49
(g50
g51
NtRp4857
(dp4858
g54
(dp4859
g62
I5
ssg63
g4853
sg56
(lp4860
g92
asbasbasbag49
(g65
g51
NtRp4861
(dp4862
g54
(dp4863
sg63
g3416
sg56
(lp4864
g49
(g70
g51
NtRp4865
(dp4866
g54
(dp4867
g74
g75
ssg63
g4861
sg56
(lp4868
S'status'
p4869
asbag49
(g70
g51
NtRp4870
(dp4871
g54
(dp4872
g81
g82
ssg63
g4861
sg56
(lp4873
S':'
asbag49
(g70
g51
NtRp4874
(dp4875
g54
(dp4876
sg63
g4861
sg56
(lp4877
g49
(g50
g51
NtRp4878
(dp4879
g54
(dp4880
g62
I5
ssg63
g4874
sg56
(lp4881
S'200'
p4882
asbasbasbag49
(g65
g51
NtRp4883
(dp4884
g54
(dp4885
sg63
g3416
sg56
(lp4886
g49
(g70
g51
NtRp4887
(dp4888
g54
(dp4889
g74
g75
ssg63
g4883
sg56
(lp4890
S'subtitle'
p4891
asbag49
(g70
g51
NtRp4892
(dp4893
g54
(dp4894
g81
g82
ssg63
g4883
sg56
(lp4895
S':'
asbag49
(g70
g51
NtRp4896
(dp4897
g54
(dp4898
sg63
g4883
sg56
(lp4899
g49
(g50
g51
NtRp4900
(dp4901
g54
(dp4902
g62
I5
ssg63
g4896
sg56
(lp4903
g3952
(S's\r\x00\x00\x00customize me!'
tRp4904
asbasbasbag49
(g65
g51
NtRp4905
(dp4906
g54
(dp4907
sg63
g3416
sg56
(lp4908
g49
(g70
g51
NtRp4909
(dp4910
g54
(dp4911
g74
g75
ssg63
g4905
sg56
(lp4912
S'title'
p4913
asbag49
(g70
g51
NtRp4914
(dp4915
g54
(dp4916
g81
g82
ssg63
g4905
sg56
(lp4917
S':'
asbag49
(g70
g51
NtRp4918
(dp4919
g54
(dp4920
sg63
g4905
sg56
(lp4921
g49
(g50
g51
NtRp4922
(dp4923
g54
(dp4924
g62
I5
ssg63
g4918
sg56
(lp4925
S'Sitsit'
p4926
asbasbasbag49
(g65
g51
NtRp4927
(dp4928
g54
(dp4929
sg63
g3416
sg56
(lp4930
g49
(g70
g51
NtRp4931
(dp4932
g54
(dp4933
g74
g75
ssg63
g4927
sg56
(lp4934
g2308
asbag49
(g70
g51
NtRp4935
(dp4936
g54
(dp4937
g81
g82
ssg63
g4927
sg56
(lp4938
S':'
asbag49
(g70
g51
NtRp4939
(dp4940
g54
(dp4941
sg63
g4927
sg56
(lp4942
g49
(g50
g51
NtRp4943
(dp4944
g54
(dp4945
g62
I5
ssg63
g4939
sg56
(lp4946
g2321
asbasbasbag49
(g65
g51
NtRp4947
(dp4948
g54
(dp4949
sg63
g3416
sg56
(lp4950
g49
(g70
g51
NtRp4951
(dp4952
g54
(dp4953
g74
g75
ssg63
g4947
sg56
(lp4954
S'view'
p4955
asbag49
(g70
g51
NtRp4956
(dp4957
g54
(dp4958
g81
g82
ssg63
g4947
sg56
(lp4959
S':'
asbag49
(g70
g51
NtRp4960
(dp4961
g54
(dp4962
sg63
g4947
sg56
(lp4963
g49
(g50
g51
NtRp4964
(dp4965
g54
(dp4966
g62
I5
ssg63
g4960
sg56
(lp4967
S'default/sitsit.html'
p4968
asbasbasbasbasbsS'locals'
p4969
(dp4970
S'owner'
p4971
g92
sS'sitsi'
p4972
S'None'
p4973
sS'sitsiID'
p4974
S"'10'"
p4975
sS'people'
p4976
g39
sssS'traceback'
p4977
S'Traceback (most recent call last):\n  File "gluon/restricted.py", line 205, in restricted\n  File "C:\\Users\\Osku\\koodaus\\web2py\\applications\\sitsit\\controllers/default.py", line 94, in <module>\n  File "gluon/globals.py", line 173, in <lambda>\n  File "C:\\Users\\Osku\\koodaus\\web2py\\applications\\sitsit\\controllers/default.py", line 34, in sitsit\nAttributeError: \'NoneType\' object has no attribute \'owner\'\n'
p4978
s.