(dp1
S'output'
p2
S"<type 'exceptions.SyntaxError'> invalid syntax (default/sitsit.html, line 2)"
p3
sS'layer'
p4
S'C:\\Users\\Osku\\koodaus\\web2py\\applications\\sitsit\\views\\default/sitsit.html'
p5
sS'code'
p6
S"response.write('<html>\\r\\n<head>\\r\\n\\t\\r\\n</head>\\r\\n<body>\\r\\n', escape=False)\nif !found:\n    response.write('\\r\\nEi loytyny\\r\\n', escape=False)\nelse:\n    response.write('\\r\\n\\r\\n', escape=False)\n    pass\nresponse.write('\\r\\n\\r\\n</body>\\r\\n\\r\\n</html>\\r\\n', escape=False)"
p7
sS'snapshot'
p8
(dp9
S'exception'
p10
(dp11
S'__getslice__'
p12
S"<method-wrapper '__getslice__' of exceptions.SyntaxError object at 0x04EC7DF0>"
p13
sS'text'
p14
S"'if !found:\\n'"
p15
sS'__str__'
p16
S"<method-wrapper '__str__' of exceptions.SyntaxError object at 0x04EC7DF0>"
p17
sS'__reduce__'
p18
S'<built-in method __reduce__ of exceptions.SyntaxError object at 0x04EC7DF0>'
p19
sS'__dict__'
p20
S'{}'
p21
sS'__init__'
p22
S"<method-wrapper '__init__' of exceptions.SyntaxError object at 0x04EC7DF0>"
p23
sS'__setattr__'
p24
S"<method-wrapper '__setattr__' of exceptions.SyntaxError object at 0x04EC7DF0>"
p25
sS'__reduce_ex__'
p26
S'<built-in method __reduce_ex__ of exceptions.SyntaxError object at 0x04EC7DF0>'
p27
sS'__new__'
p28
S'<built-in method __new__ of type object at 0x1E1CDBD0>'
p29
sS'__class__'
p30
S"<type 'exceptions.SyntaxError'>"
p31
sS'filename'
p32
S"r'C:\\Users\\Osku\\koodaus\\web2py\\applications\\sitsit\\views\\default/sitsit.html'"
p33
sS'lineno'
p34
S'2'
sS'msg'
p35
S"'invalid syntax'"
p36
sS'__doc__'
p37
S"'Invalid syntax.'"
p38
sS'__getitem__'
p39
S"<method-wrapper '__getitem__' of exceptions.SyntaxError object at 0x04EC7DF0>"
p40
sS'__setstate__'
p41
S'<built-in method __setstate__ of exceptions.SyntaxError object at 0x04EC7DF0>'
p42
sS'__getattribute__'
p43
S"<method-wrapper '__getattribute__' of exceptions.SyntaxError object at 0x04EC7DF0>"
p44
sS'print_file_and_line'
p45
S'None'
p46
sS'args'
p47
S"('invalid syntax', (r'C:\\Users\\Osku\\koodaus\\web2py\\applications\\sitsit\\views\\default/sitsit.html', 2, 4, 'if !found:\\n'))"
p48
sS'offset'
p49
S'4'
sS'__delattr__'
p50
S"<method-wrapper '__delattr__' of exceptions.SyntaxError object at 0x04EC7DF0>"
p51
sS'__repr__'
p52
S"<method-wrapper '__repr__' of exceptions.SyntaxError object at 0x04EC7DF0>"
p53
sS'__hash__'
p54
S"<method-wrapper '__hash__' of exceptions.SyntaxError object at 0x04EC7DF0>"
p55
ssS'evalue'
p56
S'invalid syntax (default/sitsit.html, line 2)'
p57
sS'request'
p58
ccopy_reg
_reconstructor
p59
(cgluon.html
BEAUTIFY
p60
c__builtin__
object
p61
NtRp62
(dp63
S'attributes'
p64
(dp65
sS'components'
p66
(lp67
g59
(cgluon.html
TABLE
p68
g61
NtRp69
(dp70
g64
(dp71
S'level'
p72
I5
ssS'parent'
p73
Nsg66
(lp74
g59
(cgluon.html
TR
p75
g61
NtRp76
(dp77
g64
(dp78
sg73
g69
sg66
(lp79
g59
(cgluon.html
TD
p80
g61
NtRp81
(dp82
g64
(dp83
S'_style'
p84
S'font-weight:bold;vertical-align:top'
p85
ssg73
g76
sg66
(lp86
S'ajax'
p87
asbag59
(g80
g61
NtRp88
(dp89
g64
(dp90
S'_valign'
p91
S'top'
p92
ssg73
g76
sg66
(lp93
S':'
asbag59
(g80
g61
NtRp94
(dp95
g64
(dp96
sg73
g76
sg66
(lp97
g59
(g60
g61
NtRp98
(dp99
g64
(dp100
g72
I5
ssg73
g94
sg66
(lp101
S'False'
p102
asbasbasbag59
(g75
g61
NtRp103
(dp104
g64
(dp105
sg73
g69
sg66
(lp106
g59
(g80
g61
NtRp107
(dp108
g64
(dp109
g84
g85
ssg73
g103
sg66
(lp110
S'application'
p111
asbag59
(g80
g61
NtRp112
(dp113
g64
(dp114
g91
g92
ssg73
g103
sg66
(lp115
S':'
asbag59
(g80
g61
NtRp116
(dp117
g64
(dp118
sg73
g103
sg66
(lp119
g59
(g60
g61
NtRp120
(dp121
g64
(dp122
g72
I5
ssg73
g116
sg66
(lp123
S'sitsit'
p124
asbasbasbag59
(g75
g61
NtRp125
(dp126
g64
(dp127
sg73
g69
sg66
(lp128
g59
(g80
g61
NtRp129
(dp130
g64
(dp131
g84
g85
ssg73
g125
sg66
(lp132
g47
asbag59
(g80
g61
NtRp133
(dp134
g64
(dp135
g91
g92
ssg73
g125
sg66
(lp136
S':'
asbag59
(g80
g61
NtRp137
(dp138
g64
(dp139
sg73
g125
sg66
(lp140
g59
(g60
g61
NtRp141
(dp142
g64
(dp143
g72
I5
ssg73
g137
sg66
(lp144
g59
(g68
g61
NtRp145
(dp146
g64
(dp147
g72
I4
ssg73
Nsg66
(lp148
g59
(g75
g61
NtRp149
(dp150
g64
(dp151
sg73
g145
sg66
(lp152
g59
(g80
g61
NtRp153
(dp154
g64
(dp155
sg73
g149
sg66
(lp156
g59
(g60
g61
NtRp157
(dp158
g64
(dp159
g72
I4
ssg73
g153
sg66
(lp160
S'10'
p161
asbasbasbasbasbasbasbag59
(g75
g61
NtRp162
(dp163
g64
(dp164
sg73
g69
sg66
(lp165
g59
(g80
g61
NtRp166
(dp167
g64
(dp168
g84
g85
ssg73
g162
sg66
(lp169
S'body'
p170
asbag59
(g80
g61
NtRp171
(dp172
g64
(dp173
g91
g92
ssg73
g162
sg66
(lp174
S':'
asbag59
(g80
g61
NtRp175
(dp176
g64
(dp177
sg73
g162
sg66
(lp178
g59
(g60
g61
NtRp179
(dp180
g64
(dp181
g72
I5
ssg73
g175
sg66
(lp182
S'<cStringIO.StringO object at 0x050DCA40>'
p183
asbasbasbag59
(g75
g61
NtRp184
(dp185
g64
(dp186
sg73
g69
sg66
(lp187
g59
(g80
g61
NtRp188
(dp189
g64
(dp190
g84
g85
ssg73
g184
sg66
(lp191
S'client'
p192
asbag59
(g80
g61
NtRp193
(dp194
g64
(dp195
g91
g92
ssg73
g184
sg66
(lp196
S':'
asbag59
(g80
g61
NtRp197
(dp198
g64
(dp199
sg73
g184
sg66
(lp200
g59
(g60
g61
NtRp201
(dp202
g64
(dp203
g72
I5
ssg73
g197
sg66
(lp204
S'127.0.0.1'
p205
asbasbasbag59
(g75
g61
NtRp206
(dp207
g64
(dp208
sg73
g69
sg66
(lp209
g59
(g80
g61
NtRp210
(dp211
g64
(dp212
g84
g85
ssg73
g206
sg66
(lp213
S'controller'
p214
asbag59
(g80
g61
NtRp215
(dp216
g64
(dp217
g91
g92
ssg73
g206
sg66
(lp218
S':'
asbag59
(g80
g61
NtRp219
(dp220
g64
(dp221
sg73
g206
sg66
(lp222
g59
(g60
g61
NtRp223
(dp224
g64
(dp225
g72
I5
ssg73
g219
sg66
(lp226
S'default'
p227
asbasbasbag59
(g75
g61
NtRp228
(dp229
g64
(dp230
sg73
g69
sg66
(lp231
g59
(g80
g61
NtRp232
(dp233
g64
(dp234
g84
g85
ssg73
g228
sg66
(lp235
S'cookies'
p236
asbag59
(g80
g61
NtRp237
(dp238
g64
(dp239
g91
g92
ssg73
g228
sg66
(lp240
S':'
asbag59
(g80
g61
NtRp241
(dp242
g64
(dp243
sg73
g228
sg66
(lp244
g59
(g60
g61
NtRp245
(dp246
g64
(dp247
g72
I5
ssg73
g241
sg66
(lp248
g59
(g68
g61
NtRp249
(dp250
g64
(dp251
g72
I4
ssg73
Nsg66
(lp252
g59
(g75
g61
NtRp253
(dp254
g64
(dp255
sg73
g249
sg66
(lp256
g59
(g80
g61
NtRp257
(dp258
g64
(dp259
g84
g85
ssg73
g253
sg66
(lp260
S'session_id_admin'
p261
asbag59
(g80
g61
NtRp262
(dp263
g64
(dp264
g91
g92
ssg73
g253
sg66
(lp265
S':'
asbag59
(g80
g61
NtRp266
(dp267
g64
(dp268
sg73
g253
sg66
(lp269
g59
(g60
g61
NtRp270
(dp271
g64
(dp272
g72
I4
ssg73
g266
sg66
(lp273
g59
(g68
g61
NtRp274
(dp275
g64
(dp276
g72
I3
ssg73
Nsg66
(lp277
g59
(g75
g61
NtRp278
(dp279
g64
(dp280
sg73
g274
sg66
(lp281
g59
(g80
g61
NtRp282
(dp283
g64
(dp284
g84
g85
ssg73
g278
sg66
(lp285
S'comment'
p286
asbag59
(g80
g61
NtRp287
(dp288
g64
(dp289
g91
g92
ssg73
g278
sg66
(lp290
S':'
asbag59
(g80
g61
NtRp291
(dp292
g64
(dp293
sg73
g278
sg66
(lp294
g59
(g60
g61
NtRp295
(dp296
g64
(dp297
g72
I3
ssg73
g291
sg66
(lp298
S''
asbasbasbag59
(g75
g61
NtRp299
(dp300
g64
(dp301
sg73
g274
sg66
(lp302
g59
(g80
g61
NtRp303
(dp304
g64
(dp305
g84
g85
ssg73
g299
sg66
(lp306
S'domain'
p307
asbag59
(g80
g61
NtRp308
(dp309
g64
(dp310
g91
g92
ssg73
g299
sg66
(lp311
S':'
asbag59
(g80
g61
NtRp312
(dp313
g64
(dp314
sg73
g299
sg66
(lp315
g59
(g60
g61
NtRp316
(dp317
g64
(dp318
g72
I3
ssg73
g312
sg66
(lp319
S''
asbasbasbag59
(g75
g61
NtRp320
(dp321
g64
(dp322
sg73
g274
sg66
(lp323
g59
(g80
g61
NtRp324
(dp325
g64
(dp326
g84
g85
ssg73
g320
sg66
(lp327
S'expires'
p328
asbag59
(g80
g61
NtRp329
(dp330
g64
(dp331
g91
g92
ssg73
g320
sg66
(lp332
S':'
asbag59
(g80
g61
NtRp333
(dp334
g64
(dp335
sg73
g320
sg66
(lp336
g59
(g60
g61
NtRp337
(dp338
g64
(dp339
g72
I3
ssg73
g333
sg66
(lp340
S''
asbasbasbag59
(g75
g61
NtRp341
(dp342
g64
(dp343
sg73
g274
sg66
(lp344
g59
(g80
g61
NtRp345
(dp346
g64
(dp347
g84
g85
ssg73
g341
sg66
(lp348
S'max-age'
p349
asbag59
(g80
g61
NtRp350
(dp351
g64
(dp352
g91
g92
ssg73
g341
sg66
(lp353
S':'
asbag59
(g80
g61
NtRp354
(dp355
g64
(dp356
sg73
g341
sg66
(lp357
g59
(g60
g61
NtRp358
(dp359
g64
(dp360
g72
I3
ssg73
g354
sg66
(lp361
S''
asbasbasbag59
(g75
g61
NtRp362
(dp363
g64
(dp364
sg73
g274
sg66
(lp365
g59
(g80
g61
NtRp366
(dp367
g64
(dp368
g84
g85
ssg73
g362
sg66
(lp369
S'path'
p370
asbag59
(g80
g61
NtRp371
(dp372
g64
(dp373
g91
g92
ssg73
g362
sg66
(lp374
S':'
asbag59
(g80
g61
NtRp375
(dp376
g64
(dp377
sg73
g362
sg66
(lp378
g59
(g60
g61
NtRp379
(dp380
g64
(dp381
g72
I3
ssg73
g375
sg66
(lp382
S''
asbasbasbag59
(g75
g61
NtRp383
(dp384
g64
(dp385
sg73
g274
sg66
(lp386
g59
(g80
g61
NtRp387
(dp388
g64
(dp389
g84
g85
ssg73
g383
sg66
(lp390
S'secure'
p391
asbag59
(g80
g61
NtRp392
(dp393
g64
(dp394
g91
g92
ssg73
g383
sg66
(lp395
S':'
asbag59
(g80
g61
NtRp396
(dp397
g64
(dp398
sg73
g383
sg66
(lp399
g59
(g60
g61
NtRp400
(dp401
g64
(dp402
g72
I3
ssg73
g396
sg66
(lp403
S''
asbasbasbag59
(g75
g61
NtRp404
(dp405
g64
(dp406
sg73
g274
sg66
(lp407
g59
(g80
g61
NtRp408
(dp409
g64
(dp410
g84
g85
ssg73
g404
sg66
(lp411
S'version'
p412
asbag59
(g80
g61
NtRp413
(dp414
g64
(dp415
g91
g92
ssg73
g404
sg66
(lp416
S':'
asbag59
(g80
g61
NtRp417
(dp418
g64
(dp419
sg73
g404
sg66
(lp420
g59
(g60
g61
NtRp421
(dp422
g64
(dp423
g72
I3
ssg73
g417
sg66
(lp424
S''
asbasbasbasbasbasbasbag59
(g75
g61
NtRp425
(dp426
g64
(dp427
sg73
g249
sg66
(lp428
g59
(g80
g61
NtRp429
(dp430
g64
(dp431
g84
g85
ssg73
g425
sg66
(lp432
S'session_id_sitsit'
p433
asbag59
(g80
g61
NtRp434
(dp435
g64
(dp436
g91
g92
ssg73
g425
sg66
(lp437
S':'
asbag59
(g80
g61
NtRp438
(dp439
g64
(dp440
sg73
g425
sg66
(lp441
g59
(g60
g61
NtRp442
(dp443
g64
(dp444
g72
I4
ssg73
g438
sg66
(lp445
g59
(g68
g61
NtRp446
(dp447
g64
(dp448
g72
I3
ssg73
Nsg66
(lp449
g59
(g75
g61
NtRp450
(dp451
g64
(dp452
sg73
g446
sg66
(lp453
g59
(g80
g61
NtRp454
(dp455
g64
(dp456
g84
g85
ssg73
g450
sg66
(lp457
g286
asbag59
(g80
g61
NtRp458
(dp459
g64
(dp460
g91
g92
ssg73
g450
sg66
(lp461
S':'
asbag59
(g80
g61
NtRp462
(dp463
g64
(dp464
sg73
g450
sg66
(lp465
g59
(g60
g61
NtRp466
(dp467
g64
(dp468
g72
I3
ssg73
g462
sg66
(lp469
S''
asbasbasbag59
(g75
g61
NtRp470
(dp471
g64
(dp472
sg73
g446
sg66
(lp473
g59
(g80
g61
NtRp474
(dp475
g64
(dp476
g84
g85
ssg73
g470
sg66
(lp477
g307
asbag59
(g80
g61
NtRp478
(dp479
g64
(dp480
g91
g92
ssg73
g470
sg66
(lp481
S':'
asbag59
(g80
g61
NtRp482
(dp483
g64
(dp484
sg73
g470
sg66
(lp485
g59
(g60
g61
NtRp486
(dp487
g64
(dp488
g72
I3
ssg73
g482
sg66
(lp489
S''
asbasbasbag59
(g75
g61
NtRp490
(dp491
g64
(dp492
sg73
g446
sg66
(lp493
g59
(g80
g61
NtRp494
(dp495
g64
(dp496
g84
g85
ssg73
g490
sg66
(lp497
g328
asbag59
(g80
g61
NtRp498
(dp499
g64
(dp500
g91
g92
ssg73
g490
sg66
(lp501
S':'
asbag59
(g80
g61
NtRp502
(dp503
g64
(dp504
sg73
g490
sg66
(lp505
g59
(g60
g61
NtRp506
(dp507
g64
(dp508
g72
I3
ssg73
g502
sg66
(lp509
S''
asbasbasbag59
(g75
g61
NtRp510
(dp511
g64
(dp512
sg73
g446
sg66
(lp513
g59
(g80
g61
NtRp514
(dp515
g64
(dp516
g84
g85
ssg73
g510
sg66
(lp517
g349
asbag59
(g80
g61
NtRp518
(dp519
g64
(dp520
g91
g92
ssg73
g510
sg66
(lp521
S':'
asbag59
(g80
g61
NtRp522
(dp523
g64
(dp524
sg73
g510
sg66
(lp525
g59
(g60
g61
NtRp526
(dp527
g64
(dp528
g72
I3
ssg73
g522
sg66
(lp529
S''
asbasbasbag59
(g75
g61
NtRp530
(dp531
g64
(dp532
sg73
g446
sg66
(lp533
g59
(g80
g61
NtRp534
(dp535
g64
(dp536
g84
g85
ssg73
g530
sg66
(lp537
g370
asbag59
(g80
g61
NtRp538
(dp539
g64
(dp540
g91
g92
ssg73
g530
sg66
(lp541
S':'
asbag59
(g80
g61
NtRp542
(dp543
g64
(dp544
sg73
g530
sg66
(lp545
g59
(g60
g61
NtRp546
(dp547
g64
(dp548
g72
I3
ssg73
g542
sg66
(lp549
S''
asbasbasbag59
(g75
g61
NtRp550
(dp551
g64
(dp552
sg73
g446
sg66
(lp553
g59
(g80
g61
NtRp554
(dp555
g64
(dp556
g84
g85
ssg73
g550
sg66
(lp557
g391
asbag59
(g80
g61
NtRp558
(dp559
g64
(dp560
g91
g92
ssg73
g550
sg66
(lp561
S':'
asbag59
(g80
g61
NtRp562
(dp563
g64
(dp564
sg73
g550
sg66
(lp565
g59
(g60
g61
NtRp566
(dp567
g64
(dp568
g72
I3
ssg73
g562
sg66
(lp569
S''
asbasbasbag59
(g75
g61
NtRp570
(dp571
g64
(dp572
sg73
g446
sg66
(lp573
g59
(g80
g61
NtRp574
(dp575
g64
(dp576
g84
g85
ssg73
g570
sg66
(lp577
g412
asbag59
(g80
g61
NtRp578
(dp579
g64
(dp580
g91
g92
ssg73
g570
sg66
(lp581
S':'
asbag59
(g80
g61
NtRp582
(dp583
g64
(dp584
sg73
g570
sg66
(lp585
g59
(g60
g61
NtRp586
(dp587
g64
(dp588
g72
I3
ssg73
g582
sg66
(lp589
S''
asbasbasbasbasbasbasbag59
(g75
g61
NtRp590
(dp591
g64
(dp592
sg73
g249
sg66
(lp593
g59
(g80
g61
NtRp594
(dp595
g64
(dp596
g84
g85
ssg73
g590
sg66
(lp597
S'session_id_welcome'
p598
asbag59
(g80
g61
NtRp599
(dp600
g64
(dp601
g91
g92
ssg73
g590
sg66
(lp602
S':'
asbag59
(g80
g61
NtRp603
(dp604
g64
(dp605
sg73
g590
sg66
(lp606
g59
(g60
g61
NtRp607
(dp608
g64
(dp609
g72
I4
ssg73
g603
sg66
(lp610
g59
(g68
g61
NtRp611
(dp612
g64
(dp613
g72
I3
ssg73
Nsg66
(lp614
g59
(g75
g61
NtRp615
(dp616
g64
(dp617
sg73
g611
sg66
(lp618
g59
(g80
g61
NtRp619
(dp620
g64
(dp621
g84
g85
ssg73
g615
sg66
(lp622
g286
asbag59
(g80
g61
NtRp623
(dp624
g64
(dp625
g91
g92
ssg73
g615
sg66
(lp626
S':'
asbag59
(g80
g61
NtRp627
(dp628
g64
(dp629
sg73
g615
sg66
(lp630
g59
(g60
g61
NtRp631
(dp632
g64
(dp633
g72
I3
ssg73
g627
sg66
(lp634
S''
asbasbasbag59
(g75
g61
NtRp635
(dp636
g64
(dp637
sg73
g611
sg66
(lp638
g59
(g80
g61
NtRp639
(dp640
g64
(dp641
g84
g85
ssg73
g635
sg66
(lp642
g307
asbag59
(g80
g61
NtRp643
(dp644
g64
(dp645
g91
g92
ssg73
g635
sg66
(lp646
S':'
asbag59
(g80
g61
NtRp647
(dp648
g64
(dp649
sg73
g635
sg66
(lp650
g59
(g60
g61
NtRp651
(dp652
g64
(dp653
g72
I3
ssg73
g647
sg66
(lp654
S''
asbasbasbag59
(g75
g61
NtRp655
(dp656
g64
(dp657
sg73
g611
sg66
(lp658
g59
(g80
g61
NtRp659
(dp660
g64
(dp661
g84
g85
ssg73
g655
sg66
(lp662
g328
asbag59
(g80
g61
NtRp663
(dp664
g64
(dp665
g91
g92
ssg73
g655
sg66
(lp666
S':'
asbag59
(g80
g61
NtRp667
(dp668
g64
(dp669
sg73
g655
sg66
(lp670
g59
(g60
g61
NtRp671
(dp672
g64
(dp673
g72
I3
ssg73
g667
sg66
(lp674
S''
asbasbasbag59
(g75
g61
NtRp675
(dp676
g64
(dp677
sg73
g611
sg66
(lp678
g59
(g80
g61
NtRp679
(dp680
g64
(dp681
g84
g85
ssg73
g675
sg66
(lp682
g349
asbag59
(g80
g61
NtRp683
(dp684
g64
(dp685
g91
g92
ssg73
g675
sg66
(lp686
S':'
asbag59
(g80
g61
NtRp687
(dp688
g64
(dp689
sg73
g675
sg66
(lp690
g59
(g60
g61
NtRp691
(dp692
g64
(dp693
g72
I3
ssg73
g687
sg66
(lp694
S''
asbasbasbag59
(g75
g61
NtRp695
(dp696
g64
(dp697
sg73
g611
sg66
(lp698
g59
(g80
g61
NtRp699
(dp700
g64
(dp701
g84
g85
ssg73
g695
sg66
(lp702
g370
asbag59
(g80
g61
NtRp703
(dp704
g64
(dp705
g91
g92
ssg73
g695
sg66
(lp706
S':'
asbag59
(g80
g61
NtRp707
(dp708
g64
(dp709
sg73
g695
sg66
(lp710
g59
(g60
g61
NtRp711
(dp712
g64
(dp713
g72
I3
ssg73
g707
sg66
(lp714
S''
asbasbasbag59
(g75
g61
NtRp715
(dp716
g64
(dp717
sg73
g611
sg66
(lp718
g59
(g80
g61
NtRp719
(dp720
g64
(dp721
g84
g85
ssg73
g715
sg66
(lp722
g391
asbag59
(g80
g61
NtRp723
(dp724
g64
(dp725
g91
g92
ssg73
g715
sg66
(lp726
S':'
asbag59
(g80
g61
NtRp727
(dp728
g64
(dp729
sg73
g715
sg66
(lp730
g59
(g60
g61
NtRp731
(dp732
g64
(dp733
g72
I3
ssg73
g727
sg66
(lp734
S''
asbasbasbag59
(g75
g61
NtRp735
(dp736
g64
(dp737
sg73
g611
sg66
(lp738
g59
(g80
g61
NtRp739
(dp740
g64
(dp741
g84
g85
ssg73
g735
sg66
(lp742
g412
asbag59
(g80
g61
NtRp743
(dp744
g64
(dp745
g91
g92
ssg73
g735
sg66
(lp746
S':'
asbag59
(g80
g61
NtRp747
(dp748
g64
(dp749
sg73
g735
sg66
(lp750
g59
(g60
g61
NtRp751
(dp752
g64
(dp753
g72
I3
ssg73
g747
sg66
(lp754
S''
asbasbasbasbasbasbasbasbasbasbasbag59
(g75
g61
NtRp755
(dp756
g64
(dp757
sg73
g69
sg66
(lp758
g59
(g80
g61
NtRp759
(dp760
g64
(dp761
g84
g85
ssg73
g755
sg66
(lp762
S'env'
p763
asbag59
(g80
g61
NtRp764
(dp765
g64
(dp766
g91
g92
ssg73
g755
sg66
(lp767
S':'
asbag59
(g80
g61
NtRp768
(dp769
g64
(dp770
sg73
g755
sg66
(lp771
g59
(g60
g61
NtRp772
(dp773
g64
(dp774
g72
I5
ssg73
g768
sg66
(lp775
g59
(g68
g61
NtRp776
(dp777
g64
(dp778
g72
I4
ssg73
Nsg66
(lp779
g59
(g75
g61
NtRp780
(dp781
g64
(dp782
sg73
g776
sg66
(lp783
g59
(g80
g61
NtRp784
(dp785
g64
(dp786
g84
g85
ssg73
g780
sg66
(lp787
S'app_folders'
p788
asbag59
(g80
g61
NtRp789
(dp790
g64
(dp791
g91
g92
ssg73
g780
sg66
(lp792
S':'
asbag59
(g80
g61
NtRp793
(dp794
g64
(dp795
sg73
g780
sg66
(lp796
g59
(g60
g61
NtRp797
(dp798
g64
(dp799
g72
I4
ssg73
g793
sg66
(lp800
S"set(['C:\\\\Users\\\\Osku\\\\koodaus\\\\web2py\\\\applications\\\\sitsit\\\\', 'C:\\\\Users\\\\Osku\\\\koodaus\\\\web2py\\\\applications\\\\welcome\\\\', 'C:\\\\Users\\\\Osku\\\\koodaus\\\\web2py\\\\applications\\\\admin\\\\'])"
p801
asbasbasbag59
(g75
g61
NtRp802
(dp803
g64
(dp804
sg73
g776
sg66
(lp805
g59
(g80
g61
NtRp806
(dp807
g64
(dp808
g84
g85
ssg73
g802
sg66
(lp809
S'applications_parent'
p810
asbag59
(g80
g61
NtRp811
(dp812
g64
(dp813
g91
g92
ssg73
g802
sg66
(lp814
S':'
asbag59
(g80
g61
NtRp815
(dp816
g64
(dp817
sg73
g802
sg66
(lp818
g59
(g60
g61
NtRp819
(dp820
g64
(dp821
g72
I4
ssg73
g815
sg66
(lp822
S'C:\\Users\\Osku\\koodaus\\web2py'
p823
asbasbasbag59
(g75
g61
NtRp824
(dp825
g64
(dp826
sg73
g776
sg66
(lp827
g59
(g80
g61
NtRp828
(dp829
g64
(dp830
g84
g85
ssg73
g824
sg66
(lp831
S'cmd_args'
p832
asbag59
(g80
g61
NtRp833
(dp834
g64
(dp835
g91
g92
ssg73
g824
sg66
(lp836
S':'
asbag59
(g80
g61
NtRp837
(dp838
g64
(dp839
sg73
g824
sg66
(lp840
g59
(g60
g61
NtRp841
(dp842
g64
(dp843
g72
I4
ssg73
g837
sg66
(lp844
g59
(g68
g61
NtRp845
(dp846
g64
(dp847
g72
I3
ssg73
Nsg66
(lp848
sbasbasbasbag59
(g75
g61
NtRp849
(dp850
g64
(dp851
sg73
g776
sg66
(lp852
g59
(g80
g61
NtRp853
(dp854
g64
(dp855
g84
g85
ssg73
g849
sg66
(lp856
S'cmd_options'
p857
asbag59
(g80
g61
NtRp858
(dp859
g64
(dp860
g91
g92
ssg73
g849
sg66
(lp861
S':'
asbag59
(g80
g61
NtRp862
(dp863
g64
(dp864
sg73
g849
sg66
(lp865
g59
(g60
g61
NtRp866
(dp867
g64
(dp868
g72
I4
ssg73
g862
sg66
(lp869
S"<Values at 0x2270030: {'verbose': False, 'ip': '127.0.0.1', 'shutdown_timeout': 5, 'taskbar': False, 'nocron': False, 'pid_filename': 'httpserver.pid', 'maxthreads': None, 'softcron': False, 'server_name': 'Osku-Kannettava', 'bpython': False, 'nogui': False, 'port': 8000, 'extcron': False, 'debuglevel': 30, 'test': None, 'folder': 'C:\\\\Users\\\\Osku\\\\koodaus\\\\web2py', 'config': '', 'import_models': False, 'winservice': '', 'shell': None, 'run': '', 'log_filename': 'httpserver.log', 'args': [''], 'socket_timeout': 5, 'ssl_ca_certificate': None, 'scheduler': None, 'profiler_filename': None, 'ssl_private_key': '', 'password': '<ask>', 'request_queue_size': 5, 'ssl_certificate': '', 'cronjob': False, 'numthreads': None, 'quiet': False, 'interfaces': None, 'minthreads': None, 'timeout': 10, 'plain': False, 'nobanner': False}>"
p870
asbasbasbag59
(g75
g61
NtRp871
(dp872
g64
(dp873
sg73
g776
sg66
(lp874
g59
(g80
g61
NtRp875
(dp876
g64
(dp877
g84
g85
ssg73
g871
sg66
(lp878
S'db_sessions'
p879
asbag59
(g80
g61
NtRp880
(dp881
g64
(dp882
g91
g92
ssg73
g871
sg66
(lp883
S':'
asbag59
(g80
g61
NtRp884
(dp885
g64
(dp886
sg73
g871
sg66
(lp887
g59
(g60
g61
NtRp888
(dp889
g64
(dp890
g72
I4
ssg73
g884
sg66
(lp891
S'set([])'
p892
asbasbasbag59
(g75
g61
NtRp893
(dp894
g64
(dp895
sg73
g776
sg66
(lp896
g59
(g80
g61
NtRp897
(dp898
g64
(dp899
g84
g85
ssg73
g893
sg66
(lp900
S'debugging'
p901
asbag59
(g80
g61
NtRp902
(dp903
g64
(dp904
g91
g92
ssg73
g893
sg66
(lp905
S':'
asbag59
(g80
g61
NtRp906
(dp907
g64
(dp908
sg73
g893
sg66
(lp909
g59
(g60
g61
NtRp910
(dp911
g64
(dp912
g72
I4
ssg73
g906
sg66
(lp913
g102
asbasbasbag59
(g75
g61
NtRp914
(dp915
g64
(dp916
sg73
g776
sg66
(lp917
g59
(g80
g61
NtRp918
(dp919
g64
(dp920
g84
g85
ssg73
g914
sg66
(lp921
S'gluon_parent'
p922
asbag59
(g80
g61
NtRp923
(dp924
g64
(dp925
g91
g92
ssg73
g914
sg66
(lp926
S':'
asbag59
(g80
g61
NtRp927
(dp928
g64
(dp929
sg73
g914
sg66
(lp930
g59
(g60
g61
NtRp931
(dp932
g64
(dp933
g72
I4
ssg73
g927
sg66
(lp934
S'C:\\Users\\Osku\\koodaus\\web2py'
p935
asbasbasbag59
(g75
g61
NtRp936
(dp937
g64
(dp938
sg73
g776
sg66
(lp939
g59
(g80
g61
NtRp940
(dp941
g64
(dp942
g84
g85
ssg73
g936
sg66
(lp943
S'http_accept'
p944
asbag59
(g80
g61
NtRp945
(dp946
g64
(dp947
g91
g92
ssg73
g936
sg66
(lp948
S':'
asbag59
(g80
g61
NtRp949
(dp950
g64
(dp951
sg73
g936
sg66
(lp952
g59
(g60
g61
NtRp953
(dp954
g64
(dp955
g72
I4
ssg73
g949
sg66
(lp956
S'text/html,application/xhtml+xml,application/xml;q=0.9,*/*;q=0.8'
p957
asbasbasbag59
(g75
g61
NtRp958
(dp959
g64
(dp960
sg73
g776
sg66
(lp961
g59
(g80
g61
NtRp962
(dp963
g64
(dp964
g84
g85
ssg73
g958
sg66
(lp965
S'http_accept_charset'
p966
asbag59
(g80
g61
NtRp967
(dp968
g64
(dp969
g91
g92
ssg73
g958
sg66
(lp970
S':'
asbag59
(g80
g61
NtRp971
(dp972
g64
(dp973
sg73
g958
sg66
(lp974
g59
(g60
g61
NtRp975
(dp976
g64
(dp977
g72
I4
ssg73
g971
sg66
(lp978
S'ISO-8859-1,utf-8;q=0.7,*;q=0.3'
p979
asbasbasbag59
(g75
g61
NtRp980
(dp981
g64
(dp982
sg73
g776
sg66
(lp983
g59
(g80
g61
NtRp984
(dp985
g64
(dp986
g84
g85
ssg73
g980
sg66
(lp987
S'http_accept_encoding'
p988
asbag59
(g80
g61
NtRp989
(dp990
g64
(dp991
g91
g92
ssg73
g980
sg66
(lp992
S':'
asbag59
(g80
g61
NtRp993
(dp994
g64
(dp995
sg73
g980
sg66
(lp996
g59
(g60
g61
NtRp997
(dp998
g64
(dp999
g72
I4
ssg73
g993
sg66
(lp1000
S'gzip,deflate,sdch'
p1001
asbasbasbag59
(g75
g61
NtRp1002
(dp1003
g64
(dp1004
sg73
g776
sg66
(lp1005
g59
(g80
g61
NtRp1006
(dp1007
g64
(dp1008
g84
g85
ssg73
g1002
sg66
(lp1009
S'http_accept_language'
p1010
asbag59
(g80
g61
NtRp1011
(dp1012
g64
(dp1013
g91
g92
ssg73
g1002
sg66
(lp1014
S':'
asbag59
(g80
g61
NtRp1015
(dp1016
g64
(dp1017
sg73
g1002
sg66
(lp1018
g59
(g60
g61
NtRp1019
(dp1020
g64
(dp1021
g72
I4
ssg73
g1015
sg66
(lp1022
S'en-GB,en-US;q=0.8,en;q=0.6,fi;q=0.4'
p1023
asbasbasbag59
(g75
g61
NtRp1024
(dp1025
g64
(dp1026
sg73
g776
sg66
(lp1027
g59
(g80
g61
NtRp1028
(dp1029
g64
(dp1030
g84
g85
ssg73
g1024
sg66
(lp1031
S'http_cache_control'
p1032
asbag59
(g80
g61
NtRp1033
(dp1034
g64
(dp1035
g91
g92
ssg73
g1024
sg66
(lp1036
S':'
asbag59
(g80
g61
NtRp1037
(dp1038
g64
(dp1039
sg73
g1024
sg66
(lp1040
g59
(g60
g61
NtRp1041
(dp1042
g64
(dp1043
g72
I4
ssg73
g1037
sg66
(lp1044
S'max-age=0'
p1045
asbasbasbag59
(g75
g61
NtRp1046
(dp1047
g64
(dp1048
sg73
g776
sg66
(lp1049
g59
(g80
g61
NtRp1050
(dp1051
g64
(dp1052
g84
g85
ssg73
g1046
sg66
(lp1053
S'http_connection'
p1054
asbag59
(g80
g61
NtRp1055
(dp1056
g64
(dp1057
g91
g92
ssg73
g1046
sg66
(lp1058
S':'
asbag59
(g80
g61
NtRp1059
(dp1060
g64
(dp1061
sg73
g1046
sg66
(lp1062
g59
(g60
g61
NtRp1063
(dp1064
g64
(dp1065
g72
I4
ssg73
g1059
sg66
(lp1066
S'keep-alive'
p1067
asbasbasbag59
(g75
g61
NtRp1068
(dp1069
g64
(dp1070
sg73
g776
sg66
(lp1071
g59
(g80
g61
NtRp1072
(dp1073
g64
(dp1074
g84
g85
ssg73
g1068
sg66
(lp1075
S'http_cookie'
p1076
asbag59
(g80
g61
NtRp1077
(dp1078
g64
(dp1079
g91
g92
ssg73
g1068
sg66
(lp1080
S':'
asbag59
(g80
g61
NtRp1081
(dp1082
g64
(dp1083
sg73
g1068
sg66
(lp1084
g59
(g60
g61
NtRp1085
(dp1086
g64
(dp1087
g72
I4
ssg73
g1081
sg66
(lp1088
S'session_id_welcome=127.0.0.1-731960a1-ea7c-4af8-ac49-7798aa234dcd; session_id_admin=127.0.0.1-941ea7a4-a42e-46de-bdfb-3dd29fbb7e62; session_id_sitsit=127.0.0.1-ec2284ba-32fe-4a19-9a6f-e97c370381b5'
p1089
asbasbasbag59
(g75
g61
NtRp1090
(dp1091
g64
(dp1092
sg73
g776
sg66
(lp1093
g59
(g80
g61
NtRp1094
(dp1095
g64
(dp1096
g84
g85
ssg73
g1090
sg66
(lp1097
S'http_host'
p1098
asbag59
(g80
g61
NtRp1099
(dp1100
g64
(dp1101
g91
g92
ssg73
g1090
sg66
(lp1102
S':'
asbag59
(g80
g61
NtRp1103
(dp1104
g64
(dp1105
sg73
g1090
sg66
(lp1106
g59
(g60
g61
NtRp1107
(dp1108
g64
(dp1109
g72
I4
ssg73
g1103
sg66
(lp1110
S'127.0.0.1:8000'
p1111
asbasbasbag59
(g75
g61
NtRp1112
(dp1113
g64
(dp1114
sg73
g776
sg66
(lp1115
g59
(g80
g61
NtRp1116
(dp1117
g64
(dp1118
g84
g85
ssg73
g1112
sg66
(lp1119
S'http_user_agent'
p1120
asbag59
(g80
g61
NtRp1121
(dp1122
g64
(dp1123
g91
g92
ssg73
g1112
sg66
(lp1124
S':'
asbag59
(g80
g61
NtRp1125
(dp1126
g64
(dp1127
sg73
g1112
sg66
(lp1128
g59
(g60
g61
NtRp1129
(dp1130
g64
(dp1131
g72
I4
ssg73
g1125
sg66
(lp1132
S'Mozilla/5.0 (Windows NT 6.1) AppleWebKit/536.11 (KHTML, like Gecko) Chrome/20.0.1132.47 Safari/536.11'
p1133
asbasbasbag59
(g75
g61
NtRp1134
(dp1135
g64
(dp1136
sg73
g776
sg66
(lp1137
g59
(g80
g61
NtRp1138
(dp1139
g64
(dp1140
g84
g85
ssg73
g1134
sg66
(lp1141
S'is_jython'
p1142
asbag59
(g80
g61
NtRp1143
(dp1144
g64
(dp1145
g91
g92
ssg73
g1134
sg66
(lp1146
S':'
asbag59
(g80
g61
NtRp1147
(dp1148
g64
(dp1149
sg73
g1134
sg66
(lp1150
g59
(g60
g61
NtRp1151
(dp1152
g64
(dp1153
g72
I4
ssg73
g1147
sg66
(lp1154
g102
asbasbasbag59
(g75
g61
NtRp1155
(dp1156
g64
(dp1157
sg73
g776
sg66
(lp1158
g59
(g80
g61
NtRp1159
(dp1160
g64
(dp1161
g84
g85
ssg73
g1155
sg66
(lp1162
S'is_pypy'
p1163
asbag59
(g80
g61
NtRp1164
(dp1165
g64
(dp1166
g91
g92
ssg73
g1155
sg66
(lp1167
S':'
asbag59
(g80
g61
NtRp1168
(dp1169
g64
(dp1170
sg73
g1155
sg66
(lp1171
g59
(g60
g61
NtRp1172
(dp1173
g64
(dp1174
g72
I4
ssg73
g1168
sg66
(lp1175
g102
asbasbasbag59
(g75
g61
NtRp1176
(dp1177
g64
(dp1178
sg73
g776
sg66
(lp1179
g59
(g80
g61
NtRp1180
(dp1181
g64
(dp1182
g84
g85
ssg73
g1176
sg66
(lp1183
S'path_info'
p1184
asbag59
(g80
g61
NtRp1185
(dp1186
g64
(dp1187
g91
g92
ssg73
g1176
sg66
(lp1188
S':'
asbag59
(g80
g61
NtRp1189
(dp1190
g64
(dp1191
sg73
g1176
sg66
(lp1192
g59
(g60
g61
NtRp1193
(dp1194
g64
(dp1195
g72
I4
ssg73
g1189
sg66
(lp1196
S'/sitsit/default/sitsit/10'
p1197
asbasbasbag59
(g75
g61
NtRp1198
(dp1199
g64
(dp1200
sg73
g776
sg66
(lp1201
g59
(g80
g61
NtRp1202
(dp1203
g64
(dp1204
g84
g85
ssg73
g1198
sg66
(lp1205
S'query_string'
p1206
asbag59
(g80
g61
NtRp1207
(dp1208
g64
(dp1209
g91
g92
ssg73
g1198
sg66
(lp1210
S':'
asbag59
(g80
g61
NtRp1211
(dp1212
g64
(dp1213
sg73
g1198
sg66
(lp1214
g59
(g60
g61
NtRp1215
(dp1216
g64
(dp1217
g72
I4
ssg73
g1211
sg66
(lp1218
S''
asbasbasbag59
(g75
g61
NtRp1219
(dp1220
g64
(dp1221
sg73
g776
sg66
(lp1222
g59
(g80
g61
NtRp1223
(dp1224
g64
(dp1225
g84
g85
ssg73
g1219
sg66
(lp1226
S'remote_addr'
p1227
asbag59
(g80
g61
NtRp1228
(dp1229
g64
(dp1230
g91
g92
ssg73
g1219
sg66
(lp1231
S':'
asbag59
(g80
g61
NtRp1232
(dp1233
g64
(dp1234
sg73
g1219
sg66
(lp1235
g59
(g60
g61
NtRp1236
(dp1237
g64
(dp1238
g72
I4
ssg73
g1232
sg66
(lp1239
g205
asbasbasbag59
(g75
g61
NtRp1240
(dp1241
g64
(dp1242
sg73
g776
sg66
(lp1243
g59
(g80
g61
NtRp1244
(dp1245
g64
(dp1246
g84
g85
ssg73
g1240
sg66
(lp1247
S'remote_port'
p1248
asbag59
(g80
g61
NtRp1249
(dp1250
g64
(dp1251
g91
g92
ssg73
g1240
sg66
(lp1252
S':'
asbag59
(g80
g61
NtRp1253
(dp1254
g64
(dp1255
sg73
g1240
sg66
(lp1256
g59
(g60
g61
NtRp1257
(dp1258
g64
(dp1259
g72
I4
ssg73
g1253
sg66
(lp1260
S'57889'
p1261
asbasbasbag59
(g75
g61
NtRp1262
(dp1263
g64
(dp1264
sg73
g776
sg66
(lp1265
g59
(g80
g61
NtRp1266
(dp1267
g64
(dp1268
g84
g85
ssg73
g1262
sg66
(lp1269
S'request_method'
p1270
asbag59
(g80
g61
NtRp1271
(dp1272
g64
(dp1273
g91
g92
ssg73
g1262
sg66
(lp1274
S':'
asbag59
(g80
g61
NtRp1275
(dp1276
g64
(dp1277
sg73
g1262
sg66
(lp1278
g59
(g60
g61
NtRp1279
(dp1280
g64
(dp1281
g72
I4
ssg73
g1275
sg66
(lp1282
S'GET'
p1283
asbasbasbag59
(g75
g61
NtRp1284
(dp1285
g64
(dp1286
sg73
g776
sg66
(lp1287
g59
(g80
g61
NtRp1288
(dp1289
g64
(dp1290
g84
g85
ssg73
g1284
sg66
(lp1291
S'script_name'
p1292
asbag59
(g80
g61
NtRp1293
(dp1294
g64
(dp1295
g91
g92
ssg73
g1284
sg66
(lp1296
S':'
asbag59
(g80
g61
NtRp1297
(dp1298
g64
(dp1299
sg73
g1284
sg66
(lp1300
g59
(g60
g61
NtRp1301
(dp1302
g64
(dp1303
g72
I4
ssg73
g1297
sg66
(lp1304
S''
asbasbasbag59
(g75
g61
NtRp1305
(dp1306
g64
(dp1307
sg73
g776
sg66
(lp1308
g59
(g80
g61
NtRp1309
(dp1310
g64
(dp1311
g84
g85
ssg73
g1305
sg66
(lp1312
S'server_name'
p1313
asbag59
(g80
g61
NtRp1314
(dp1315
g64
(dp1316
g91
g92
ssg73
g1305
sg66
(lp1317
S':'
asbag59
(g80
g61
NtRp1318
(dp1319
g64
(dp1320
sg73
g1305
sg66
(lp1321
g59
(g60
g61
NtRp1322
(dp1323
g64
(dp1324
g72
I4
ssg73
g1318
sg66
(lp1325
S'Osku-Kannettava'
p1326
asbasbasbag59
(g75
g61
NtRp1327
(dp1328
g64
(dp1329
sg73
g776
sg66
(lp1330
g59
(g80
g61
NtRp1331
(dp1332
g64
(dp1333
g84
g85
ssg73
g1327
sg66
(lp1334
S'server_port'
p1335
asbag59
(g80
g61
NtRp1336
(dp1337
g64
(dp1338
g91
g92
ssg73
g1327
sg66
(lp1339
S':'
asbag59
(g80
g61
NtRp1340
(dp1341
g64
(dp1342
sg73
g1327
sg66
(lp1343
g59
(g60
g61
NtRp1344
(dp1345
g64
(dp1346
g72
I4
ssg73
g1340
sg66
(lp1347
S'8000'
p1348
asbasbasbag59
(g75
g61
NtRp1349
(dp1350
g64
(dp1351
sg73
g776
sg66
(lp1352
g59
(g80
g61
NtRp1353
(dp1354
g64
(dp1355
g84
g85
ssg73
g1349
sg66
(lp1356
S'server_protocol'
p1357
asbag59
(g80
g61
NtRp1358
(dp1359
g64
(dp1360
g91
g92
ssg73
g1349
sg66
(lp1361
S':'
asbag59
(g80
g61
NtRp1362
(dp1363
g64
(dp1364
sg73
g1349
sg66
(lp1365
g59
(g60
g61
NtRp1366
(dp1367
g64
(dp1368
g72
I4
ssg73
g1362
sg66
(lp1369
S'HTTP/1.1'
p1370
asbasbasbag59
(g75
g61
NtRp1371
(dp1372
g64
(dp1373
sg73
g776
sg66
(lp1374
g59
(g80
g61
NtRp1375
(dp1376
g64
(dp1377
g84
g85
ssg73
g1371
sg66
(lp1378
S'server_software'
p1379
asbag59
(g80
g61
NtRp1380
(dp1381
g64
(dp1382
g91
g92
ssg73
g1371
sg66
(lp1383
S':'
asbag59
(g80
g61
NtRp1384
(dp1385
g64
(dp1386
sg73
g1371
sg66
(lp1387
g59
(g60
g61
NtRp1388
(dp1389
g64
(dp1390
g72
I4
ssg73
g1384
sg66
(lp1391
S'Rocket 1.2.4'
p1392
asbasbasbag59
(g75
g61
NtRp1393
(dp1394
g64
(dp1395
sg73
g776
sg66
(lp1396
g59
(g80
g61
NtRp1397
(dp1398
g64
(dp1399
g84
g85
ssg73
g1393
sg66
(lp1400
S'web2py_crontype'
p1401
asbag59
(g80
g61
NtRp1402
(dp1403
g64
(dp1404
g91
g92
ssg73
g1393
sg66
(lp1405
S':'
asbag59
(g80
g61
NtRp1406
(dp1407
g64
(dp1408
sg73
g1393
sg66
(lp1409
g59
(g60
g61
NtRp1410
(dp1411
g64
(dp1412
g72
I4
ssg73
g1406
sg66
(lp1413
S'hard'
p1414
asbasbasbag59
(g75
g61
NtRp1415
(dp1416
g64
(dp1417
sg73
g776
sg66
(lp1418
g59
(g80
g61
NtRp1419
(dp1420
g64
(dp1421
g84
g85
ssg73
g1415
sg66
(lp1422
S'web2py_path'
p1423
asbag59
(g80
g61
NtRp1424
(dp1425
g64
(dp1426
g91
g92
ssg73
g1415
sg66
(lp1427
S':'
asbag59
(g80
g61
NtRp1428
(dp1429
g64
(dp1430
sg73
g1415
sg66
(lp1431
g59
(g60
g61
NtRp1432
(dp1433
g64
(dp1434
g72
I4
ssg73
g1428
sg66
(lp1435
g823
asbasbasbag59
(g75
g61
NtRp1436
(dp1437
g64
(dp1438
sg73
g776
sg66
(lp1439
g59
(g80
g61
NtRp1440
(dp1441
g64
(dp1442
g84
g85
ssg73
g1436
sg66
(lp1443
S'web2py_version'
p1444
asbag59
(g80
g61
NtRp1445
(dp1446
g64
(dp1447
g91
g92
ssg73
g1436
sg66
(lp1448
S':'
asbag59
(g80
g61
NtRp1449
(dp1450
g64
(dp1451
sg73
g1436
sg66
(lp1452
g59
(g60
g61
NtRp1453
(dp1454
g64
(dp1455
g72
I4
ssg73
g1449
sg66
(lp1456
g59
(g68
g61
NtRp1457
(dp1458
g64
(dp1459
g72
I3
ssg73
Nsg66
(lp1460
g59
(g75
g61
NtRp1461
(dp1462
g64
(dp1463
sg73
g1457
sg66
(lp1464
g59
(g80
g61
NtRp1465
(dp1466
g64
(dp1467
sg73
g1461
sg66
(lp1468
g59
(g60
g61
NtRp1469
(dp1470
g64
(dp1471
g72
I3
ssg73
g1465
sg66
(lp1472
S'1'
asbasbasbag59
(g75
g61
NtRp1473
(dp1474
g64
(dp1475
sg73
g1457
sg66
(lp1476
g59
(g80
g61
NtRp1477
(dp1478
g64
(dp1479
sg73
g1473
sg66
(lp1480
g59
(g60
g61
NtRp1481
(dp1482
g64
(dp1483
g72
I3
ssg73
g1477
sg66
(lp1484
S'99'
p1485
asbasbasbag59
(g75
g61
NtRp1486
(dp1487
g64
(dp1488
sg73
g1457
sg66
(lp1489
g59
(g80
g61
NtRp1490
(dp1491
g64
(dp1492
sg73
g1486
sg66
(lp1493
g59
(g60
g61
NtRp1494
(dp1495
g64
(dp1496
g72
I3
ssg73
g1490
sg66
(lp1497
S'7'
asbasbasbag59
(g75
g61
NtRp1498
(dp1499
g64
(dp1500
sg73
g1457
sg66
(lp1501
g59
(g80
g61
NtRp1502
(dp1503
g64
(dp1504
sg73
g1498
sg66
(lp1505
g59
(g60
g61
NtRp1506
(dp1507
g64
(dp1508
g72
I3
ssg73
g1502
sg66
(lp1509
S'datetime.datetime(2012, 3, 4, 22, 12, 8)'
p1510
asbasbasbag59
(g75
g61
NtRp1511
(dp1512
g64
(dp1513
sg73
g1457
sg66
(lp1514
g59
(g80
g61
NtRp1515
(dp1516
g64
(dp1517
sg73
g1511
sg66
(lp1518
g59
(g60
g61
NtRp1519
(dp1520
g64
(dp1521
g72
I3
ssg73
g1515
sg66
(lp1522
S'stable'
p1523
asbasbasbasbasbasbasbag59
(g75
g61
NtRp1524
(dp1525
g64
(dp1526
sg73
g776
sg66
(lp1527
g59
(g80
g61
NtRp1528
(dp1529
g64
(dp1530
g84
g85
ssg73
g1524
sg66
(lp1531
S'wsgi_errors'
p1532
asbag59
(g80
g61
NtRp1533
(dp1534
g64
(dp1535
g91
g92
ssg73
g1524
sg66
(lp1536
S':'
asbag59
(g80
g61
NtRp1537
(dp1538
g64
(dp1539
sg73
g1524
sg66
(lp1540
g59
(g60
g61
NtRp1541
(dp1542
g64
(dp1543
g72
I4
ssg73
g1537
sg66
(lp1544
S"<open file '<stderr>', mode 'w' at 0x014F00B0>"
p1545
asbasbasbag59
(g75
g61
NtRp1546
(dp1547
g64
(dp1548
sg73
g776
sg66
(lp1549
g59
(g80
g61
NtRp1550
(dp1551
g64
(dp1552
g84
g85
ssg73
g1546
sg66
(lp1553
S'wsgi_file_wrapper'
p1554
asbag59
(g80
g61
NtRp1555
(dp1556
g64
(dp1557
g91
g92
ssg73
g1546
sg66
(lp1558
S':'
asbag59
(g80
g61
NtRp1559
(dp1560
g64
(dp1561
sg73
g1546
sg66
(lp1562
g59
(g60
g61
NtRp1563
(dp1564
g64
(dp1565
g72
I4
ssg73
g1559
sg66
(lp1566
S'<class wsgiref.util.FileWrapper at 0x020041E0>'
p1567
asbasbasbag59
(g75
g61
NtRp1568
(dp1569
g64
(dp1570
sg73
g776
sg66
(lp1571
g59
(g80
g61
NtRp1572
(dp1573
g64
(dp1574
g84
g85
ssg73
g1568
sg66
(lp1575
S'wsgi_input'
p1576
asbag59
(g80
g61
NtRp1577
(dp1578
g64
(dp1579
g91
g92
ssg73
g1568
sg66
(lp1580
S':'
asbag59
(g80
g61
NtRp1581
(dp1582
g64
(dp1583
sg73
g1568
sg66
(lp1584
g59
(g60
g61
NtRp1585
(dp1586
g64
(dp1587
g72
I4
ssg73
g1581
sg66
(lp1588
S'<socket._fileobject object at 0x0243C5B0>'
p1589
asbasbasbag59
(g75
g61
NtRp1590
(dp1591
g64
(dp1592
sg73
g776
sg66
(lp1593
g59
(g80
g61
NtRp1594
(dp1595
g64
(dp1596
g84
g85
ssg73
g1590
sg66
(lp1597
S'wsgi_multiprocess'
p1598
asbag59
(g80
g61
NtRp1599
(dp1600
g64
(dp1601
g91
g92
ssg73
g1590
sg66
(lp1602
S':'
asbag59
(g80
g61
NtRp1603
(dp1604
g64
(dp1605
sg73
g1590
sg66
(lp1606
g59
(g60
g61
NtRp1607
(dp1608
g64
(dp1609
g72
I4
ssg73
g1603
sg66
(lp1610
g102
asbasbasbag59
(g75
g61
NtRp1611
(dp1612
g64
(dp1613
sg73
g776
sg66
(lp1614
g59
(g80
g61
NtRp1615
(dp1616
g64
(dp1617
g84
g85
ssg73
g1611
sg66
(lp1618
S'wsgi_multithread'
p1619
asbag59
(g80
g61
NtRp1620
(dp1621
g64
(dp1622
g91
g92
ssg73
g1611
sg66
(lp1623
S':'
asbag59
(g80
g61
NtRp1624
(dp1625
g64
(dp1626
sg73
g1611
sg66
(lp1627
g59
(g60
g61
NtRp1628
(dp1629
g64
(dp1630
g72
I4
ssg73
g1624
sg66
(lp1631
S'True'
p1632
asbasbasbag59
(g75
g61
NtRp1633
(dp1634
g64
(dp1635
sg73
g776
sg66
(lp1636
g59
(g80
g61
NtRp1637
(dp1638
g64
(dp1639
g84
g85
ssg73
g1633
sg66
(lp1640
S'wsgi_run_once'
p1641
asbag59
(g80
g61
NtRp1642
(dp1643
g64
(dp1644
g91
g92
ssg73
g1633
sg66
(lp1645
S':'
asbag59
(g80
g61
NtRp1646
(dp1647
g64
(dp1648
sg73
g1633
sg66
(lp1649
g59
(g60
g61
NtRp1650
(dp1651
g64
(dp1652
g72
I4
ssg73
g1646
sg66
(lp1653
g102
asbasbasbag59
(g75
g61
NtRp1654
(dp1655
g64
(dp1656
sg73
g776
sg66
(lp1657
g59
(g80
g61
NtRp1658
(dp1659
g64
(dp1660
g84
g85
ssg73
g1654
sg66
(lp1661
S'wsgi_url_scheme'
p1662
asbag59
(g80
g61
NtRp1663
(dp1664
g64
(dp1665
g91
g92
ssg73
g1654
sg66
(lp1666
S':'
asbag59
(g80
g61
NtRp1667
(dp1668
g64
(dp1669
sg73
g1654
sg66
(lp1670
g59
(g60
g61
NtRp1671
(dp1672
g64
(dp1673
g72
I4
ssg73
g1667
sg66
(lp1674
S'http'
p1675
asbasbasbag59
(g75
g61
NtRp1676
(dp1677
g64
(dp1678
sg73
g776
sg66
(lp1679
g59
(g80
g61
NtRp1680
(dp1681
g64
(dp1682
g84
g85
ssg73
g1676
sg66
(lp1683
S'wsgi_version'
p1684
asbag59
(g80
g61
NtRp1685
(dp1686
g64
(dp1687
g91
g92
ssg73
g1676
sg66
(lp1688
S':'
asbag59
(g80
g61
NtRp1689
(dp1690
g64
(dp1691
sg73
g1676
sg66
(lp1692
g59
(g60
g61
NtRp1693
(dp1694
g64
(dp1695
g72
I4
ssg73
g1689
sg66
(lp1696
g59
(g68
g61
NtRp1697
(dp1698
g64
(dp1699
g72
I3
ssg73
Nsg66
(lp1700
g59
(g75
g61
NtRp1701
(dp1702
g64
(dp1703
sg73
g1697
sg66
(lp1704
g59
(g80
g61
NtRp1705
(dp1706
g64
(dp1707
sg73
g1701
sg66
(lp1708
g59
(g60
g61
NtRp1709
(dp1710
g64
(dp1711
g72
I3
ssg73
g1705
sg66
(lp1712
S'1'
asbasbasbag59
(g75
g61
NtRp1713
(dp1714
g64
(dp1715
sg73
g1697
sg66
(lp1716
g59
(g80
g61
NtRp1717
(dp1718
g64
(dp1719
sg73
g1713
sg66
(lp1720
g59
(g60
g61
NtRp1721
(dp1722
g64
(dp1723
g72
I3
ssg73
g1717
sg66
(lp1724
S'0'
asbasbasbasbasbasbasbasbasbasbasbag59
(g75
g61
NtRp1725
(dp1726
g64
(dp1727
sg73
g69
sg66
(lp1728
g59
(g80
g61
NtRp1729
(dp1730
g64
(dp1731
g84
g85
ssg73
g1725
sg66
(lp1732
S'extension'
p1733
asbag59
(g80
g61
NtRp1734
(dp1735
g64
(dp1736
g91
g92
ssg73
g1725
sg66
(lp1737
S':'
asbag59
(g80
g61
NtRp1738
(dp1739
g64
(dp1740
sg73
g1725
sg66
(lp1741
g59
(g60
g61
NtRp1742
(dp1743
g64
(dp1744
g72
I5
ssg73
g1738
sg66
(lp1745
S'html'
p1746
asbasbasbag59
(g75
g61
NtRp1747
(dp1748
g64
(dp1749
sg73
g69
sg66
(lp1750
g59
(g80
g61
NtRp1751
(dp1752
g64
(dp1753
g84
g85
ssg73
g1747
sg66
(lp1754
S'folder'
p1755
asbag59
(g80
g61
NtRp1756
(dp1757
g64
(dp1758
g91
g92
ssg73
g1747
sg66
(lp1759
S':'
asbag59
(g80
g61
NtRp1760
(dp1761
g64
(dp1762
sg73
g1747
sg66
(lp1763
g59
(g60
g61
NtRp1764
(dp1765
g64
(dp1766
g72
I5
ssg73
g1760
sg66
(lp1767
S'C:\\Users\\Osku\\koodaus\\web2py\\applications\\sitsit\\'
p1768
asbasbasbag59
(g75
g61
NtRp1769
(dp1770
g64
(dp1771
sg73
g69
sg66
(lp1772
g59
(g80
g61
NtRp1773
(dp1774
g64
(dp1775
g84
g85
ssg73
g1769
sg66
(lp1776
S'function'
p1777
asbag59
(g80
g61
NtRp1778
(dp1779
g64
(dp1780
g91
g92
ssg73
g1769
sg66
(lp1781
S':'
asbag59
(g80
g61
NtRp1782
(dp1783
g64
(dp1784
sg73
g1769
sg66
(lp1785
g59
(g60
g61
NtRp1786
(dp1787
g64
(dp1788
g72
I5
ssg73
g1782
sg66
(lp1789
S'sitsit'
p1790
asbasbasbag59
(g75
g61
NtRp1791
(dp1792
g64
(dp1793
sg73
g69
sg66
(lp1794
g59
(g80
g61
NtRp1795
(dp1796
g64
(dp1797
g84
g85
ssg73
g1791
sg66
(lp1798
S'get_vars'
p1799
asbag59
(g80
g61
NtRp1800
(dp1801
g64
(dp1802
g91
g92
ssg73
g1791
sg66
(lp1803
S':'
asbag59
(g80
g61
NtRp1804
(dp1805
g64
(dp1806
sg73
g1791
sg66
(lp1807
g59
(g60
g61
NtRp1808
(dp1809
g64
(dp1810
g72
I5
ssg73
g1804
sg66
(lp1811
g59
(g68
g61
NtRp1812
(dp1813
g64
(dp1814
g72
I4
ssg73
Nsg66
(lp1815
sbasbasbasbag59
(g75
g61
NtRp1816
(dp1817
g64
(dp1818
sg73
g69
sg66
(lp1819
g59
(g80
g61
NtRp1820
(dp1821
g64
(dp1822
g84
g85
ssg73
g1816
sg66
(lp1823
S'global_settings'
p1824
asbag59
(g80
g61
NtRp1825
(dp1826
g64
(dp1827
g91
g92
ssg73
g1816
sg66
(lp1828
S':'
asbag59
(g80
g61
NtRp1829
(dp1830
g64
(dp1831
sg73
g1816
sg66
(lp1832
g59
(g60
g61
NtRp1833
(dp1834
g64
(dp1835
g72
I5
ssg73
g1829
sg66
(lp1836
g59
(g68
g61
NtRp1837
(dp1838
g64
(dp1839
g72
I4
ssg73
Nsg66
(lp1840
g59
(g75
g61
NtRp1841
(dp1842
g64
(dp1843
sg73
g1837
sg66
(lp1844
g59
(g80
g61
NtRp1845
(dp1846
g64
(dp1847
g84
g85
ssg73
g1841
sg66
(lp1848
g788
asbag59
(g80
g61
NtRp1849
(dp1850
g64
(dp1851
g91
g92
ssg73
g1841
sg66
(lp1852
S':'
asbag59
(g80
g61
NtRp1853
(dp1854
g64
(dp1855
sg73
g1841
sg66
(lp1856
g59
(g60
g61
NtRp1857
(dp1858
g64
(dp1859
g72
I4
ssg73
g1853
sg66
(lp1860
S"set(['C:\\\\Users\\\\Osku\\\\koodaus\\\\web2py\\\\applications\\\\sitsit\\\\', 'C:\\\\Users\\\\Osku\\\\koodaus\\\\web2py\\\\applications\\\\welcome\\\\', 'C:\\\\Users\\\\Osku\\\\koodaus\\\\web2py\\\\applications\\\\admin\\\\'])"
p1861
asbasbasbag59
(g75
g61
NtRp1862
(dp1863
g64
(dp1864
sg73
g1837
sg66
(lp1865
g59
(g80
g61
NtRp1866
(dp1867
g64
(dp1868
g84
g85
ssg73
g1862
sg66
(lp1869
g810
asbag59
(g80
g61
NtRp1870
(dp1871
g64
(dp1872
g91
g92
ssg73
g1862
sg66
(lp1873
S':'
asbag59
(g80
g61
NtRp1874
(dp1875
g64
(dp1876
sg73
g1862
sg66
(lp1877
g59
(g60
g61
NtRp1878
(dp1879
g64
(dp1880
g72
I4
ssg73
g1874
sg66
(lp1881
g823
asbasbasbag59
(g75
g61
NtRp1882
(dp1883
g64
(dp1884
sg73
g1837
sg66
(lp1885
g59
(g80
g61
NtRp1886
(dp1887
g64
(dp1888
g84
g85
ssg73
g1882
sg66
(lp1889
g832
asbag59
(g80
g61
NtRp1890
(dp1891
g64
(dp1892
g91
g92
ssg73
g1882
sg66
(lp1893
S':'
asbag59
(g80
g61
NtRp1894
(dp1895
g64
(dp1896
sg73
g1882
sg66
(lp1897
g59
(g60
g61
NtRp1898
(dp1899
g64
(dp1900
g72
I4
ssg73
g1894
sg66
(lp1901
g59
(g68
g61
NtRp1902
(dp1903
g64
(dp1904
g72
I3
ssg73
Nsg66
(lp1905
sbasbasbasbag59
(g75
g61
NtRp1906
(dp1907
g64
(dp1908
sg73
g1837
sg66
(lp1909
g59
(g80
g61
NtRp1910
(dp1911
g64
(dp1912
g84
g85
ssg73
g1906
sg66
(lp1913
g857
asbag59
(g80
g61
NtRp1914
(dp1915
g64
(dp1916
g91
g92
ssg73
g1906
sg66
(lp1917
S':'
asbag59
(g80
g61
NtRp1918
(dp1919
g64
(dp1920
sg73
g1906
sg66
(lp1921
g59
(g60
g61
NtRp1922
(dp1923
g64
(dp1924
g72
I4
ssg73
g1918
sg66
(lp1925
S"<Values at 0x2270030: {'verbose': False, 'ip': '127.0.0.1', 'shutdown_timeout': 5, 'taskbar': False, 'nocron': False, 'pid_filename': 'httpserver.pid', 'maxthreads': None, 'softcron': False, 'server_name': 'Osku-Kannettava', 'bpython': False, 'nogui': False, 'port': 8000, 'extcron': False, 'debuglevel': 30, 'test': None, 'folder': 'C:\\\\Users\\\\Osku\\\\koodaus\\\\web2py', 'config': '', 'import_models': False, 'winservice': '', 'shell': None, 'run': '', 'log_filename': 'httpserver.log', 'args': [''], 'socket_timeout': 5, 'ssl_ca_certificate': None, 'scheduler': None, 'profiler_filename': None, 'ssl_private_key': '', 'password': '<ask>', 'request_queue_size': 5, 'ssl_certificate': '', 'cronjob': False, 'numthreads': None, 'quiet': False, 'interfaces': None, 'minthreads': None, 'timeout': 10, 'plain': False, 'nobanner': False}>"
p1926
asbasbasbag59
(g75
g61
NtRp1927
(dp1928
g64
(dp1929
sg73
g1837
sg66
(lp1930
g59
(g80
g61
NtRp1931
(dp1932
g64
(dp1933
g84
g85
ssg73
g1927
sg66
(lp1934
g879
asbag59
(g80
g61
NtRp1935
(dp1936
g64
(dp1937
g91
g92
ssg73
g1927
sg66
(lp1938
S':'
asbag59
(g80
g61
NtRp1939
(dp1940
g64
(dp1941
sg73
g1927
sg66
(lp1942
g59
(g60
g61
NtRp1943
(dp1944
g64
(dp1945
g72
I4
ssg73
g1939
sg66
(lp1946
S'set([])'
p1947
asbasbasbag59
(g75
g61
NtRp1948
(dp1949
g64
(dp1950
sg73
g1837
sg66
(lp1951
g59
(g80
g61
NtRp1952
(dp1953
g64
(dp1954
g84
g85
ssg73
g1948
sg66
(lp1955
g901
asbag59
(g80
g61
NtRp1956
(dp1957
g64
(dp1958
g91
g92
ssg73
g1948
sg66
(lp1959
S':'
asbag59
(g80
g61
NtRp1960
(dp1961
g64
(dp1962
sg73
g1948
sg66
(lp1963
g59
(g60
g61
NtRp1964
(dp1965
g64
(dp1966
g72
I4
ssg73
g1960
sg66
(lp1967
g102
asbasbasbag59
(g75
g61
NtRp1968
(dp1969
g64
(dp1970
sg73
g1837
sg66
(lp1971
g59
(g80
g61
NtRp1972
(dp1973
g64
(dp1974
g84
g85
ssg73
g1968
sg66
(lp1975
g922
asbag59
(g80
g61
NtRp1976
(dp1977
g64
(dp1978
g91
g92
ssg73
g1968
sg66
(lp1979
S':'
asbag59
(g80
g61
NtRp1980
(dp1981
g64
(dp1982
sg73
g1968
sg66
(lp1983
g59
(g60
g61
NtRp1984
(dp1985
g64
(dp1986
g72
I4
ssg73
g1980
sg66
(lp1987
g935
asbasbasbag59
(g75
g61
NtRp1988
(dp1989
g64
(dp1990
sg73
g1837
sg66
(lp1991
g59
(g80
g61
NtRp1992
(dp1993
g64
(dp1994
g84
g85
ssg73
g1988
sg66
(lp1995
g1142
asbag59
(g80
g61
NtRp1996
(dp1997
g64
(dp1998
g91
g92
ssg73
g1988
sg66
(lp1999
S':'
asbag59
(g80
g61
NtRp2000
(dp2001
g64
(dp2002
sg73
g1988
sg66
(lp2003
g59
(g60
g61
NtRp2004
(dp2005
g64
(dp2006
g72
I4
ssg73
g2000
sg66
(lp2007
g102
asbasbasbag59
(g75
g61
NtRp2008
(dp2009
g64
(dp2010
sg73
g1837
sg66
(lp2011
g59
(g80
g61
NtRp2012
(dp2013
g64
(dp2014
g84
g85
ssg73
g2008
sg66
(lp2015
g1163
asbag59
(g80
g61
NtRp2016
(dp2017
g64
(dp2018
g91
g92
ssg73
g2008
sg66
(lp2019
S':'
asbag59
(g80
g61
NtRp2020
(dp2021
g64
(dp2022
sg73
g2008
sg66
(lp2023
g59
(g60
g61
NtRp2024
(dp2025
g64
(dp2026
g72
I4
ssg73
g2020
sg66
(lp2027
g102
asbasbasbag59
(g75
g61
NtRp2028
(dp2029
g64
(dp2030
sg73
g1837
sg66
(lp2031
g59
(g80
g61
NtRp2032
(dp2033
g64
(dp2034
g84
g85
ssg73
g2028
sg66
(lp2035
g1401
asbag59
(g80
g61
NtRp2036
(dp2037
g64
(dp2038
g91
g92
ssg73
g2028
sg66
(lp2039
S':'
asbag59
(g80
g61
NtRp2040
(dp2041
g64
(dp2042
sg73
g2028
sg66
(lp2043
g59
(g60
g61
NtRp2044
(dp2045
g64
(dp2046
g72
I4
ssg73
g2040
sg66
(lp2047
g1414
asbasbasbag59
(g75
g61
NtRp2048
(dp2049
g64
(dp2050
sg73
g1837
sg66
(lp2051
g59
(g80
g61
NtRp2052
(dp2053
g64
(dp2054
g84
g85
ssg73
g2048
sg66
(lp2055
g1444
asbag59
(g80
g61
NtRp2056
(dp2057
g64
(dp2058
g91
g92
ssg73
g2048
sg66
(lp2059
S':'
asbag59
(g80
g61
NtRp2060
(dp2061
g64
(dp2062
sg73
g2048
sg66
(lp2063
g59
(g60
g61
NtRp2064
(dp2065
g64
(dp2066
g72
I4
ssg73
g2060
sg66
(lp2067
g59
(g68
g61
NtRp2068
(dp2069
g64
(dp2070
g72
I3
ssg73
Nsg66
(lp2071
g59
(g75
g61
NtRp2072
(dp2073
g64
(dp2074
sg73
g2068
sg66
(lp2075
g59
(g80
g61
NtRp2076
(dp2077
g64
(dp2078
sg73
g2072
sg66
(lp2079
g59
(g60
g61
NtRp2080
(dp2081
g64
(dp2082
g72
I3
ssg73
g2076
sg66
(lp2083
S'1'
asbasbasbag59
(g75
g61
NtRp2084
(dp2085
g64
(dp2086
sg73
g2068
sg66
(lp2087
g59
(g80
g61
NtRp2088
(dp2089
g64
(dp2090
sg73
g2084
sg66
(lp2091
g59
(g60
g61
NtRp2092
(dp2093
g64
(dp2094
g72
I3
ssg73
g2088
sg66
(lp2095
S'99'
p2096
asbasbasbag59
(g75
g61
NtRp2097
(dp2098
g64
(dp2099
sg73
g2068
sg66
(lp2100
g59
(g80
g61
NtRp2101
(dp2102
g64
(dp2103
sg73
g2097
sg66
(lp2104
g59
(g60
g61
NtRp2105
(dp2106
g64
(dp2107
g72
I3
ssg73
g2101
sg66
(lp2108
S'7'
asbasbasbag59
(g75
g61
NtRp2109
(dp2110
g64
(dp2111
sg73
g2068
sg66
(lp2112
g59
(g80
g61
NtRp2113
(dp2114
g64
(dp2115
sg73
g2109
sg66
(lp2116
g59
(g60
g61
NtRp2117
(dp2118
g64
(dp2119
g72
I3
ssg73
g2113
sg66
(lp2120
S'datetime.datetime(2012, 3, 4, 22, 12, 8)'
p2121
asbasbasbag59
(g75
g61
NtRp2122
(dp2123
g64
(dp2124
sg73
g2068
sg66
(lp2125
g59
(g80
g61
NtRp2126
(dp2127
g64
(dp2128
sg73
g2122
sg66
(lp2129
g59
(g60
g61
NtRp2130
(dp2131
g64
(dp2132
g72
I3
ssg73
g2126
sg66
(lp2133
g1523
asbasbasbasbasbasbasbasbasbasbasbag59
(g75
g61
NtRp2134
(dp2135
g64
(dp2136
sg73
g69
sg66
(lp2137
g59
(g80
g61
NtRp2138
(dp2139
g64
(dp2140
g84
g85
ssg73
g2134
sg66
(lp2141
S'is_https'
p2142
asbag59
(g80
g61
NtRp2143
(dp2144
g64
(dp2145
g91
g92
ssg73
g2134
sg66
(lp2146
S':'
asbag59
(g80
g61
NtRp2147
(dp2148
g64
(dp2149
sg73
g2134
sg66
(lp2150
g59
(g60
g61
NtRp2151
(dp2152
g64
(dp2153
g72
I5
ssg73
g2147
sg66
(lp2154
g102
asbasbasbag59
(g75
g61
NtRp2155
(dp2156
g64
(dp2157
sg73
g69
sg66
(lp2158
g59
(g80
g61
NtRp2159
(dp2160
g64
(dp2161
g84
g85
ssg73
g2155
sg66
(lp2162
S'is_local'
p2163
asbag59
(g80
g61
NtRp2164
(dp2165
g64
(dp2166
g91
g92
ssg73
g2155
sg66
(lp2167
S':'
asbag59
(g80
g61
NtRp2168
(dp2169
g64
(dp2170
sg73
g2155
sg66
(lp2171
g59
(g60
g61
NtRp2172
(dp2173
g64
(dp2174
g72
I5
ssg73
g2168
sg66
(lp2175
g1632
asbasbasbag59
(g75
g61
NtRp2176
(dp2177
g64
(dp2178
sg73
g69
sg66
(lp2179
g59
(g80
g61
NtRp2180
(dp2181
g64
(dp2182
g84
g85
ssg73
g2176
sg66
(lp2183
S'is_restful'
p2184
asbag59
(g80
g61
NtRp2185
(dp2186
g64
(dp2187
g91
g92
ssg73
g2176
sg66
(lp2188
S':'
asbag59
(g80
g61
NtRp2189
(dp2190
g64
(dp2191
sg73
g2176
sg66
(lp2192
g59
(g60
g61
NtRp2193
(dp2194
g64
(dp2195
g72
I5
ssg73
g2189
sg66
(lp2196
g102
asbasbasbag59
(g75
g61
NtRp2197
(dp2198
g64
(dp2199
sg73
g69
sg66
(lp2200
g59
(g80
g61
NtRp2201
(dp2202
g64
(dp2203
g84
g85
ssg73
g2197
sg66
(lp2204
S'now'
p2205
asbag59
(g80
g61
NtRp2206
(dp2207
g64
(dp2208
g91
g92
ssg73
g2197
sg66
(lp2209
S':'
asbag59
(g80
g61
NtRp2210
(dp2211
g64
(dp2212
sg73
g2197
sg66
(lp2213
g59
(g60
g61
NtRp2214
(dp2215
g64
(dp2216
g72
I5
ssg73
g2210
sg66
(lp2217
S'datetime.datetime(2012, 7, 6, 23, 20, 20, 625000)'
p2218
asbasbasbag59
(g75
g61
NtRp2219
(dp2220
g64
(dp2221
sg73
g69
sg66
(lp2222
g59
(g80
g61
NtRp2223
(dp2224
g64
(dp2225
g84
g85
ssg73
g2219
sg66
(lp2226
S'post_vars'
p2227
asbag59
(g80
g61
NtRp2228
(dp2229
g64
(dp2230
g91
g92
ssg73
g2219
sg66
(lp2231
S':'
asbag59
(g80
g61
NtRp2232
(dp2233
g64
(dp2234
sg73
g2219
sg66
(lp2235
g59
(g60
g61
NtRp2236
(dp2237
g64
(dp2238
g72
I5
ssg73
g2232
sg66
(lp2239
g59
(g68
g61
NtRp2240
(dp2241
g64
(dp2242
g72
I4
ssg73
Nsg66
(lp2243
sbasbasbasbag59
(g75
g61
NtRp2244
(dp2245
g64
(dp2246
sg73
g69
sg66
(lp2247
g59
(g80
g61
NtRp2248
(dp2249
g64
(dp2250
g84
g85
ssg73
g2244
sg66
(lp2251
S'raw_args'
p2252
asbag59
(g80
g61
NtRp2253
(dp2254
g64
(dp2255
g91
g92
ssg73
g2244
sg66
(lp2256
S':'
asbag59
(g80
g61
NtRp2257
(dp2258
g64
(dp2259
sg73
g2244
sg66
(lp2260
g59
(g60
g61
NtRp2261
(dp2262
g64
(dp2263
g72
I5
ssg73
g2257
sg66
(lp2264
S'10'
p2265
asbasbasbag59
(g75
g61
NtRp2266
(dp2267
g64
(dp2268
sg73
g69
sg66
(lp2269
g59
(g80
g61
NtRp2270
(dp2271
g64
(dp2272
g84
g85
ssg73
g2266
sg66
(lp2273
S'url'
p2274
asbag59
(g80
g61
NtRp2275
(dp2276
g64
(dp2277
g91
g92
ssg73
g2266
sg66
(lp2278
S':'
asbag59
(g80
g61
NtRp2279
(dp2280
g64
(dp2281
sg73
g2266
sg66
(lp2282
g59
(g60
g61
NtRp2283
(dp2284
g64
(dp2285
g72
I5
ssg73
g2279
sg66
(lp2286
S'/sitsit/default/sitsit/10'
p2287
asbasbasbag59
(g75
g61
NtRp2288
(dp2289
g64
(dp2290
sg73
g69
sg66
(lp2291
g59
(g80
g61
NtRp2292
(dp2293
g64
(dp2294
g84
g85
ssg73
g2288
sg66
(lp2295
S'utcnow'
p2296
asbag59
(g80
g61
NtRp2297
(dp2298
g64
(dp2299
g91
g92
ssg73
g2288
sg66
(lp2300
S':'
asbag59
(g80
g61
NtRp2301
(dp2302
g64
(dp2303
sg73
g2288
sg66
(lp2304
g59
(g60
g61
NtRp2305
(dp2306
g64
(dp2307
g72
I5
ssg73
g2301
sg66
(lp2308
S'datetime.datetime(2012, 7, 6, 21, 20, 20, 625000)'
p2309
asbasbasbag59
(g75
g61
NtRp2310
(dp2311
g64
(dp2312
sg73
g69
sg66
(lp2313
g59
(g80
g61
NtRp2314
(dp2315
g64
(dp2316
g84
g85
ssg73
g2310
sg66
(lp2317
S'uuid'
p2318
asbag59
(g80
g61
NtRp2319
(dp2320
g64
(dp2321
g91
g92
ssg73
g2310
sg66
(lp2322
S':'
asbag59
(g80
g61
NtRp2323
(dp2324
g64
(dp2325
sg73
g2310
sg66
(lp2326
g59
(g60
g61
NtRp2327
(dp2328
g64
(dp2329
g72
I5
ssg73
g2323
sg66
(lp2330
S'sitsit/127.0.0.1.2012-07-06.23-20-20.a278ee4a-10bf-44cd-88cf-09da4317b015'
p2331
asbasbasbag59
(g75
g61
NtRp2332
(dp2333
g64
(dp2334
sg73
g69
sg66
(lp2335
g59
(g80
g61
NtRp2336
(dp2337
g64
(dp2338
g84
g85
ssg73
g2332
sg66
(lp2339
S'vars'
p2340
asbag59
(g80
g61
NtRp2341
(dp2342
g64
(dp2343
g91
g92
ssg73
g2332
sg66
(lp2344
S':'
asbag59
(g80
g61
NtRp2345
(dp2346
g64
(dp2347
sg73
g2332
sg66
(lp2348
g59
(g60
g61
NtRp2349
(dp2350
g64
(dp2351
g72
I5
ssg73
g2345
sg66
(lp2352
g59
(g68
g61
NtRp2353
(dp2354
g64
(dp2355
g72
I4
ssg73
Nsg66
(lp2356
sbasbasbasbag59
(g75
g61
NtRp2357
(dp2358
g64
(dp2359
sg73
g69
sg66
(lp2360
g59
(g80
g61
NtRp2361
(dp2362
g64
(dp2363
g84
g85
ssg73
g2357
sg66
(lp2364
S'wsgi'
p2365
asbag59
(g80
g61
NtRp2366
(dp2367
g64
(dp2368
g91
g92
ssg73
g2357
sg66
(lp2369
S':'
asbag59
(g80
g61
NtRp2370
(dp2371
g64
(dp2372
sg73
g2357
sg66
(lp2373
g59
(g60
g61
NtRp2374
(dp2375
g64
(dp2376
g72
I5
ssg73
g2370
sg66
(lp2377
g59
(g68
g61
NtRp2378
(dp2379
g64
(dp2380
g72
I4
ssg73
Nsg66
(lp2381
g59
(g75
g61
NtRp2382
(dp2383
g64
(dp2384
sg73
g2378
sg66
(lp2385
g59
(g80
g61
NtRp2386
(dp2387
g64
(dp2388
g84
g85
ssg73
g2382
sg66
(lp2389
S'environ'
p2390
asbag59
(g80
g61
NtRp2391
(dp2392
g64
(dp2393
g91
g92
ssg73
g2382
sg66
(lp2394
S':'
asbag59
(g80
g61
NtRp2395
(dp2396
g64
(dp2397
sg73
g2382
sg66
(lp2398
g59
(g60
g61
NtRp2399
(dp2400
g64
(dp2401
g72
I4
ssg73
g2395
sg66
(lp2402
g59
(g68
g61
NtRp2403
(dp2404
g64
(dp2405
g72
I3
ssg73
Nsg66
(lp2406
g59
(g75
g61
NtRp2407
(dp2408
g64
(dp2409
sg73
g2403
sg66
(lp2410
g59
(g80
g61
NtRp2411
(dp2412
g64
(dp2413
g84
g85
ssg73
g2407
sg66
(lp2414
S'HTTP_ACCEPT'
p2415
asbag59
(g80
g61
NtRp2416
(dp2417
g64
(dp2418
g91
g92
ssg73
g2407
sg66
(lp2419
S':'
asbag59
(g80
g61
NtRp2420
(dp2421
g64
(dp2422
sg73
g2407
sg66
(lp2423
g59
(g60
g61
NtRp2424
(dp2425
g64
(dp2426
g72
I3
ssg73
g2420
sg66
(lp2427
g957
asbasbasbag59
(g75
g61
NtRp2428
(dp2429
g64
(dp2430
sg73
g2403
sg66
(lp2431
g59
(g80
g61
NtRp2432
(dp2433
g64
(dp2434
g84
g85
ssg73
g2428
sg66
(lp2435
S'HTTP_ACCEPT_CHARSET'
p2436
asbag59
(g80
g61
NtRp2437
(dp2438
g64
(dp2439
g91
g92
ssg73
g2428
sg66
(lp2440
S':'
asbag59
(g80
g61
NtRp2441
(dp2442
g64
(dp2443
sg73
g2428
sg66
(lp2444
g59
(g60
g61
NtRp2445
(dp2446
g64
(dp2447
g72
I3
ssg73
g2441
sg66
(lp2448
g979
asbasbasbag59
(g75
g61
NtRp2449
(dp2450
g64
(dp2451
sg73
g2403
sg66
(lp2452
g59
(g80
g61
NtRp2453
(dp2454
g64
(dp2455
g84
g85
ssg73
g2449
sg66
(lp2456
S'HTTP_ACCEPT_ENCODING'
p2457
asbag59
(g80
g61
NtRp2458
(dp2459
g64
(dp2460
g91
g92
ssg73
g2449
sg66
(lp2461
S':'
asbag59
(g80
g61
NtRp2462
(dp2463
g64
(dp2464
sg73
g2449
sg66
(lp2465
g59
(g60
g61
NtRp2466
(dp2467
g64
(dp2468
g72
I3
ssg73
g2462
sg66
(lp2469
g1001
asbasbasbag59
(g75
g61
NtRp2470
(dp2471
g64
(dp2472
sg73
g2403
sg66
(lp2473
g59
(g80
g61
NtRp2474
(dp2475
g64
(dp2476
g84
g85
ssg73
g2470
sg66
(lp2477
S'HTTP_ACCEPT_LANGUAGE'
p2478
asbag59
(g80
g61
NtRp2479
(dp2480
g64
(dp2481
g91
g92
ssg73
g2470
sg66
(lp2482
S':'
asbag59
(g80
g61
NtRp2483
(dp2484
g64
(dp2485
sg73
g2470
sg66
(lp2486
g59
(g60
g61
NtRp2487
(dp2488
g64
(dp2489
g72
I3
ssg73
g2483
sg66
(lp2490
g1023
asbasbasbag59
(g75
g61
NtRp2491
(dp2492
g64
(dp2493
sg73
g2403
sg66
(lp2494
g59
(g80
g61
NtRp2495
(dp2496
g64
(dp2497
g84
g85
ssg73
g2491
sg66
(lp2498
S'HTTP_CACHE_CONTROL'
p2499
asbag59
(g80
g61
NtRp2500
(dp2501
g64
(dp2502
g91
g92
ssg73
g2491
sg66
(lp2503
S':'
asbag59
(g80
g61
NtRp2504
(dp2505
g64
(dp2506
sg73
g2491
sg66
(lp2507
g59
(g60
g61
NtRp2508
(dp2509
g64
(dp2510
g72
I3
ssg73
g2504
sg66
(lp2511
g1045
asbasbasbag59
(g75
g61
NtRp2512
(dp2513
g64
(dp2514
sg73
g2403
sg66
(lp2515
g59
(g80
g61
NtRp2516
(dp2517
g64
(dp2518
g84
g85
ssg73
g2512
sg66
(lp2519
S'HTTP_CONNECTION'
p2520
asbag59
(g80
g61
NtRp2521
(dp2522
g64
(dp2523
g91
g92
ssg73
g2512
sg66
(lp2524
S':'
asbag59
(g80
g61
NtRp2525
(dp2526
g64
(dp2527
sg73
g2512
sg66
(lp2528
g59
(g60
g61
NtRp2529
(dp2530
g64
(dp2531
g72
I3
ssg73
g2525
sg66
(lp2532
g1067
asbasbasbag59
(g75
g61
NtRp2533
(dp2534
g64
(dp2535
sg73
g2403
sg66
(lp2536
g59
(g80
g61
NtRp2537
(dp2538
g64
(dp2539
g84
g85
ssg73
g2533
sg66
(lp2540
S'HTTP_COOKIE'
p2541
asbag59
(g80
g61
NtRp2542
(dp2543
g64
(dp2544
g91
g92
ssg73
g2533
sg66
(lp2545
S':'
asbag59
(g80
g61
NtRp2546
(dp2547
g64
(dp2548
sg73
g2533
sg66
(lp2549
g59
(g60
g61
NtRp2550
(dp2551
g64
(dp2552
g72
I3
ssg73
g2546
sg66
(lp2553
g1089
asbasbasbag59
(g75
g61
NtRp2554
(dp2555
g64
(dp2556
sg73
g2403
sg66
(lp2557
g59
(g80
g61
NtRp2558
(dp2559
g64
(dp2560
g84
g85
ssg73
g2554
sg66
(lp2561
S'HTTP_HOST'
p2562
asbag59
(g80
g61
NtRp2563
(dp2564
g64
(dp2565
g91
g92
ssg73
g2554
sg66
(lp2566
S':'
asbag59
(g80
g61
NtRp2567
(dp2568
g64
(dp2569
sg73
g2554
sg66
(lp2570
g59
(g60
g61
NtRp2571
(dp2572
g64
(dp2573
g72
I3
ssg73
g2567
sg66
(lp2574
g1111
asbasbasbag59
(g75
g61
NtRp2575
(dp2576
g64
(dp2577
sg73
g2403
sg66
(lp2578
g59
(g80
g61
NtRp2579
(dp2580
g64
(dp2581
g84
g85
ssg73
g2575
sg66
(lp2582
S'HTTP_USER_AGENT'
p2583
asbag59
(g80
g61
NtRp2584
(dp2585
g64
(dp2586
g91
g92
ssg73
g2575
sg66
(lp2587
S':'
asbag59
(g80
g61
NtRp2588
(dp2589
g64
(dp2590
sg73
g2575
sg66
(lp2591
g59
(g60
g61
NtRp2592
(dp2593
g64
(dp2594
g72
I3
ssg73
g2588
sg66
(lp2595
g1133
asbasbasbag59
(g75
g61
NtRp2596
(dp2597
g64
(dp2598
sg73
g2403
sg66
(lp2599
g59
(g80
g61
NtRp2600
(dp2601
g64
(dp2602
g84
g85
ssg73
g2596
sg66
(lp2603
S'PATH_INFO'
p2604
asbag59
(g80
g61
NtRp2605
(dp2606
g64
(dp2607
g91
g92
ssg73
g2596
sg66
(lp2608
S':'
asbag59
(g80
g61
NtRp2609
(dp2610
g64
(dp2611
sg73
g2596
sg66
(lp2612
g59
(g60
g61
NtRp2613
(dp2614
g64
(dp2615
g72
I3
ssg73
g2609
sg66
(lp2616
g1197
asbasbasbag59
(g75
g61
NtRp2617
(dp2618
g64
(dp2619
sg73
g2403
sg66
(lp2620
g59
(g80
g61
NtRp2621
(dp2622
g64
(dp2623
g84
g85
ssg73
g2617
sg66
(lp2624
S'QUERY_STRING'
p2625
asbag59
(g80
g61
NtRp2626
(dp2627
g64
(dp2628
g91
g92
ssg73
g2617
sg66
(lp2629
S':'
asbag59
(g80
g61
NtRp2630
(dp2631
g64
(dp2632
sg73
g2617
sg66
(lp2633
g59
(g60
g61
NtRp2634
(dp2635
g64
(dp2636
g72
I3
ssg73
g2630
sg66
(lp2637
S''
asbasbasbag59
(g75
g61
NtRp2638
(dp2639
g64
(dp2640
sg73
g2403
sg66
(lp2641
g59
(g80
g61
NtRp2642
(dp2643
g64
(dp2644
g84
g85
ssg73
g2638
sg66
(lp2645
S'REMOTE_ADDR'
p2646
asbag59
(g80
g61
NtRp2647
(dp2648
g64
(dp2649
g91
g92
ssg73
g2638
sg66
(lp2650
S':'
asbag59
(g80
g61
NtRp2651
(dp2652
g64
(dp2653
sg73
g2638
sg66
(lp2654
g59
(g60
g61
NtRp2655
(dp2656
g64
(dp2657
g72
I3
ssg73
g2651
sg66
(lp2658
g205
asbasbasbag59
(g75
g61
NtRp2659
(dp2660
g64
(dp2661
sg73
g2403
sg66
(lp2662
g59
(g80
g61
NtRp2663
(dp2664
g64
(dp2665
g84
g85
ssg73
g2659
sg66
(lp2666
S'REMOTE_PORT'
p2667
asbag59
(g80
g61
NtRp2668
(dp2669
g64
(dp2670
g91
g92
ssg73
g2659
sg66
(lp2671
S':'
asbag59
(g80
g61
NtRp2672
(dp2673
g64
(dp2674
sg73
g2659
sg66
(lp2675
g59
(g60
g61
NtRp2676
(dp2677
g64
(dp2678
g72
I3
ssg73
g2672
sg66
(lp2679
g1261
asbasbasbag59
(g75
g61
NtRp2680
(dp2681
g64
(dp2682
sg73
g2403
sg66
(lp2683
g59
(g80
g61
NtRp2684
(dp2685
g64
(dp2686
g84
g85
ssg73
g2680
sg66
(lp2687
S'REQUEST_METHOD'
p2688
asbag59
(g80
g61
NtRp2689
(dp2690
g64
(dp2691
g91
g92
ssg73
g2680
sg66
(lp2692
S':'
asbag59
(g80
g61
NtRp2693
(dp2694
g64
(dp2695
sg73
g2680
sg66
(lp2696
g59
(g60
g61
NtRp2697
(dp2698
g64
(dp2699
g72
I3
ssg73
g2693
sg66
(lp2700
g1283
asbasbasbag59
(g75
g61
NtRp2701
(dp2702
g64
(dp2703
sg73
g2403
sg66
(lp2704
g59
(g80
g61
NtRp2705
(dp2706
g64
(dp2707
g84
g85
ssg73
g2701
sg66
(lp2708
S'SCRIPT_NAME'
p2709
asbag59
(g80
g61
NtRp2710
(dp2711
g64
(dp2712
g91
g92
ssg73
g2701
sg66
(lp2713
S':'
asbag59
(g80
g61
NtRp2714
(dp2715
g64
(dp2716
sg73
g2701
sg66
(lp2717
g59
(g60
g61
NtRp2718
(dp2719
g64
(dp2720
g72
I3
ssg73
g2714
sg66
(lp2721
S''
asbasbasbag59
(g75
g61
NtRp2722
(dp2723
g64
(dp2724
sg73
g2403
sg66
(lp2725
g59
(g80
g61
NtRp2726
(dp2727
g64
(dp2728
g84
g85
ssg73
g2722
sg66
(lp2729
S'SERVER_NAME'
p2730
asbag59
(g80
g61
NtRp2731
(dp2732
g64
(dp2733
g91
g92
ssg73
g2722
sg66
(lp2734
S':'
asbag59
(g80
g61
NtRp2735
(dp2736
g64
(dp2737
sg73
g2722
sg66
(lp2738
g59
(g60
g61
NtRp2739
(dp2740
g64
(dp2741
g72
I3
ssg73
g2735
sg66
(lp2742
g1326
asbasbasbag59
(g75
g61
NtRp2743
(dp2744
g64
(dp2745
sg73
g2403
sg66
(lp2746
g59
(g80
g61
NtRp2747
(dp2748
g64
(dp2749
g84
g85
ssg73
g2743
sg66
(lp2750
S'SERVER_PORT'
p2751
asbag59
(g80
g61
NtRp2752
(dp2753
g64
(dp2754
g91
g92
ssg73
g2743
sg66
(lp2755
S':'
asbag59
(g80
g61
NtRp2756
(dp2757
g64
(dp2758
sg73
g2743
sg66
(lp2759
g59
(g60
g61
NtRp2760
(dp2761
g64
(dp2762
g72
I3
ssg73
g2756
sg66
(lp2763
g1348
asbasbasbag59
(g75
g61
NtRp2764
(dp2765
g64
(dp2766
sg73
g2403
sg66
(lp2767
g59
(g80
g61
NtRp2768
(dp2769
g64
(dp2770
g84
g85
ssg73
g2764
sg66
(lp2771
S'SERVER_PROTOCOL'
p2772
asbag59
(g80
g61
NtRp2773
(dp2774
g64
(dp2775
g91
g92
ssg73
g2764
sg66
(lp2776
S':'
asbag59
(g80
g61
NtRp2777
(dp2778
g64
(dp2779
sg73
g2764
sg66
(lp2780
g59
(g60
g61
NtRp2781
(dp2782
g64
(dp2783
g72
I3
ssg73
g2777
sg66
(lp2784
g1370
asbasbasbag59
(g75
g61
NtRp2785
(dp2786
g64
(dp2787
sg73
g2403
sg66
(lp2788
g59
(g80
g61
NtRp2789
(dp2790
g64
(dp2791
g84
g85
ssg73
g2785
sg66
(lp2792
S'SERVER_SOFTWARE'
p2793
asbag59
(g80
g61
NtRp2794
(dp2795
g64
(dp2796
g91
g92
ssg73
g2785
sg66
(lp2797
S':'
asbag59
(g80
g61
NtRp2798
(dp2799
g64
(dp2800
sg73
g2785
sg66
(lp2801
g59
(g60
g61
NtRp2802
(dp2803
g64
(dp2804
g72
I3
ssg73
g2798
sg66
(lp2805
g1392
asbasbasbag59
(g75
g61
NtRp2806
(dp2807
g64
(dp2808
sg73
g2403
sg66
(lp2809
g59
(g80
g61
NtRp2810
(dp2811
g64
(dp2812
g84
g85
ssg73
g2806
sg66
(lp2813
S'wsgi.errors'
p2814
asbag59
(g80
g61
NtRp2815
(dp2816
g64
(dp2817
g91
g92
ssg73
g2806
sg66
(lp2818
S':'
asbag59
(g80
g61
NtRp2819
(dp2820
g64
(dp2821
sg73
g2806
sg66
(lp2822
g59
(g60
g61
NtRp2823
(dp2824
g64
(dp2825
g72
I3
ssg73
g2819
sg66
(lp2826
S"<open file '<stderr>', mode 'w' at 0x014F00B0>"
p2827
asbasbasbag59
(g75
g61
NtRp2828
(dp2829
g64
(dp2830
sg73
g2403
sg66
(lp2831
g59
(g80
g61
NtRp2832
(dp2833
g64
(dp2834
g84
g85
ssg73
g2828
sg66
(lp2835
S'wsgi.file_wrapper'
p2836
asbag59
(g80
g61
NtRp2837
(dp2838
g64
(dp2839
g91
g92
ssg73
g2828
sg66
(lp2840
S':'
asbag59
(g80
g61
NtRp2841
(dp2842
g64
(dp2843
sg73
g2828
sg66
(lp2844
g59
(g60
g61
NtRp2845
(dp2846
g64
(dp2847
g72
I3
ssg73
g2841
sg66
(lp2848
S'<class wsgiref.util.FileWrapper at 0x020041E0>'
p2849
asbasbasbag59
(g75
g61
NtRp2850
(dp2851
g64
(dp2852
sg73
g2403
sg66
(lp2853
g59
(g80
g61
NtRp2854
(dp2855
g64
(dp2856
g84
g85
ssg73
g2850
sg66
(lp2857
S'wsgi.input'
p2858
asbag59
(g80
g61
NtRp2859
(dp2860
g64
(dp2861
g91
g92
ssg73
g2850
sg66
(lp2862
S':'
asbag59
(g80
g61
NtRp2863
(dp2864
g64
(dp2865
sg73
g2850
sg66
(lp2866
g59
(g60
g61
NtRp2867
(dp2868
g64
(dp2869
g72
I3
ssg73
g2863
sg66
(lp2870
S'<cStringIO.StringO object at 0x050DCA40>'
p2871
asbasbasbag59
(g75
g61
NtRp2872
(dp2873
g64
(dp2874
sg73
g2403
sg66
(lp2875
g59
(g80
g61
NtRp2876
(dp2877
g64
(dp2878
g84
g85
ssg73
g2872
sg66
(lp2879
S'wsgi.multiprocess'
p2880
asbag59
(g80
g61
NtRp2881
(dp2882
g64
(dp2883
g91
g92
ssg73
g2872
sg66
(lp2884
S':'
asbag59
(g80
g61
NtRp2885
(dp2886
g64
(dp2887
sg73
g2872
sg66
(lp2888
g59
(g60
g61
NtRp2889
(dp2890
g64
(dp2891
g72
I3
ssg73
g2885
sg66
(lp2892
g102
asbasbasbag59
(g75
g61
NtRp2893
(dp2894
g64
(dp2895
sg73
g2403
sg66
(lp2896
g59
(g80
g61
NtRp2897
(dp2898
g64
(dp2899
g84
g85
ssg73
g2893
sg66
(lp2900
S'wsgi.multithread'
p2901
asbag59
(g80
g61
NtRp2902
(dp2903
g64
(dp2904
g91
g92
ssg73
g2893
sg66
(lp2905
S':'
asbag59
(g80
g61
NtRp2906
(dp2907
g64
(dp2908
sg73
g2893
sg66
(lp2909
g59
(g60
g61
NtRp2910
(dp2911
g64
(dp2912
g72
I3
ssg73
g2906
sg66
(lp2913
g1632
asbasbasbag59
(g75
g61
NtRp2914
(dp2915
g64
(dp2916
sg73
g2403
sg66
(lp2917
g59
(g80
g61
NtRp2918
(dp2919
g64
(dp2920
g84
g85
ssg73
g2914
sg66
(lp2921
S'wsgi.run_once'
p2922
asbag59
(g80
g61
NtRp2923
(dp2924
g64
(dp2925
g91
g92
ssg73
g2914
sg66
(lp2926
S':'
asbag59
(g80
g61
NtRp2927
(dp2928
g64
(dp2929
sg73
g2914
sg66
(lp2930
g59
(g60
g61
NtRp2931
(dp2932
g64
(dp2933
g72
I3
ssg73
g2927
sg66
(lp2934
g102
asbasbasbag59
(g75
g61
NtRp2935
(dp2936
g64
(dp2937
sg73
g2403
sg66
(lp2938
g59
(g80
g61
NtRp2939
(dp2940
g64
(dp2941
g84
g85
ssg73
g2935
sg66
(lp2942
S'wsgi.url_scheme'
p2943
asbag59
(g80
g61
NtRp2944
(dp2945
g64
(dp2946
g91
g92
ssg73
g2935
sg66
(lp2947
S':'
asbag59
(g80
g61
NtRp2948
(dp2949
g64
(dp2950
sg73
g2935
sg66
(lp2951
g59
(g60
g61
NtRp2952
(dp2953
g64
(dp2954
g72
I3
ssg73
g2948
sg66
(lp2955
g1675
asbasbasbag59
(g75
g61
NtRp2956
(dp2957
g64
(dp2958
sg73
g2403
sg66
(lp2959
g59
(g80
g61
NtRp2960
(dp2961
g64
(dp2962
g84
g85
ssg73
g2956
sg66
(lp2963
S'wsgi.version'
p2964
asbag59
(g80
g61
NtRp2965
(dp2966
g64
(dp2967
g91
g92
ssg73
g2956
sg66
(lp2968
S':'
asbag59
(g80
g61
NtRp2969
(dp2970
g64
(dp2971
sg73
g2956
sg66
(lp2972
g59
(g60
g61
NtRp2973
(dp2974
g64
(dp2975
g72
I3
ssg73
g2969
sg66
(lp2976
S'1'
asbasbasbasbasbasbasbasbasbasbasbasbasbsS'frames'
p2977
(lp2978
(dp2979
S'file'
p2980
S'C:\\Users\\Osku\\koodaus\\web2py\\gluon\\restricted.py'
p2981
sS'dump'
p2982
(dp2983
sS'lnum'
p2984
I204
sS'lines'
p2985
(dp2986
sS'call'
p2987
S'(code=r"response.write(\'<html>\\r\\n<head>\\r\\n\\t\\r\\n</head...r\\n\\r\\n</body>\\r\\n\\r\\n</html>\\r\\n\', escape=False)", environment={\'A\': <class \'gluon.html.A\'>, \'Auth\': <class \'gluon.tools.Auth\'>, \'B\': <class \'gluon.html.B\'>, \'BEAUTIFY\': <class \'gluon.html.BEAUTIFY\'>, \'BODY\': <class \'gluon.html.BODY\'>, \'BR\': <class \'gluon.html.BR\'>, \'BUTTON\': <class \'gluon.html.BUTTON\'>, \'CAT\': <class \'gluon.html.CAT\'>, \'CENTER\': <class \'gluon.html.CENTER\'>, \'CLEANUP\': <class \'gluon.validators.CLEANUP\'>, ...}, layer=r\'C:\\Users\\Osku\\koodaus\\web2py\\applications\\sitsit\\views\\default/sitsit.html\')'
p2988
sS'func'
p2989
S'restricted'
p2990
sa(dp2991
g2980
S'C:\\Users\\Osku\\koodaus\\web2py\\gluon\\restricted.py'
p2992
sg2982
(dp2993
sg2984
I189
sg2985
(dp2994
sg2987
S'(code=r"response.write(\'<html>\\r\\n<head>\\r\\n\\t\\r\\n</head...r\\n\\r\\n</body>\\r\\n\\r\\n</html>\\r\\n\', escape=False)", layer=r\'C:\\Users\\Osku\\koodaus\\web2py\\applications\\sitsit\\views\\default/sitsit.html\')'
p2995
sg2989
S'compile2'
p2996
sasS'pyver'
p2997
S'Python 2.5.4: C:\\Users\\Osku\\koodaus\\web2py\\web2py.exe'
p2998
sS'session'
p2999
g59
(g60
g61
NtRp3000
(dp3001
g64
(dp3002
sg66
(lp3003
g59
(g68
g61
NtRp3004
(dp3005
g64
(dp3006
g72
I5
ssg73
Nsg66
(lp3007
g59
(g75
g61
NtRp3008
(dp3009
g64
(dp3010
sg73
g3004
sg66
(lp3011
g59
(g80
g61
NtRp3012
(dp3013
g64
(dp3014
g84
g85
ssg73
g3008
sg66
(lp3015
S'auth'
p3016
asbag59
(g80
g61
NtRp3017
(dp3018
g64
(dp3019
g91
g92
ssg73
g3008
sg66
(lp3020
S':'
asbag59
(g80
g61
NtRp3021
(dp3022
g64
(dp3023
sg73
g3008
sg66
(lp3024
g59
(g60
g61
NtRp3025
(dp3026
g64
(dp3027
g72
I5
ssg73
g3021
sg66
(lp3028
g59
(g68
g61
NtRp3029
(dp3030
g64
(dp3031
g72
I4
ssg73
Nsg66
(lp3032
g59
(g75
g61
NtRp3033
(dp3034
g64
(dp3035
sg73
g3029
sg66
(lp3036
g59
(g80
g61
NtRp3037
(dp3038
g64
(dp3039
g84
g85
ssg73
g3033
sg66
(lp3040
S'expiration'
p3041
asbag59
(g80
g61
NtRp3042
(dp3043
g64
(dp3044
g91
g92
ssg73
g3033
sg66
(lp3045
S':'
asbag59
(g80
g61
NtRp3046
(dp3047
g64
(dp3048
sg73
g3033
sg66
(lp3049
g59
(g60
g61
NtRp3050
(dp3051
g64
(dp3052
g72
I4
ssg73
g3046
sg66
(lp3053
S'3600'
p3054
asbasbasbag59
(g75
g61
NtRp3055
(dp3056
g64
(dp3057
sg73
g3029
sg66
(lp3058
g59
(g80
g61
NtRp3059
(dp3060
g64
(dp3061
g84
g85
ssg73
g3055
sg66
(lp3062
S'hmac_key'
p3063
asbag59
(g80
g61
NtRp3064
(dp3065
g64
(dp3066
g91
g92
ssg73
g3055
sg66
(lp3067
S':'
asbag59
(g80
g61
NtRp3068
(dp3069
g64
(dp3070
sg73
g3055
sg66
(lp3071
g59
(g60
g61
NtRp3072
(dp3073
g64
(dp3074
g72
I4
ssg73
g3068
sg66
(lp3075
S'871ae63d-f3e0-499f-bd79-a2b724d0a3d4'
p3076
asbasbasbag59
(g75
g61
NtRp3077
(dp3078
g64
(dp3079
sg73
g3029
sg66
(lp3080
g59
(g80
g61
NtRp3081
(dp3082
g64
(dp3083
g84
g85
ssg73
g3077
sg66
(lp3084
S'last_visit'
p3085
asbag59
(g80
g61
NtRp3086
(dp3087
g64
(dp3088
g91
g92
ssg73
g3077
sg66
(lp3089
S':'
asbag59
(g80
g61
NtRp3090
(dp3091
g64
(dp3092
sg73
g3077
sg66
(lp3093
g59
(g60
g61
NtRp3094
(dp3095
g64
(dp3096
g72
I4
ssg73
g3090
sg66
(lp3097
S'datetime.datetime(2012, 7, 6, 23, 14, 34, 314000)'
p3098
asbasbasbag59
(g75
g61
NtRp3099
(dp3100
g64
(dp3101
sg73
g3029
sg66
(lp3102
g59
(g80
g61
NtRp3103
(dp3104
g64
(dp3105
g84
g85
ssg73
g3099
sg66
(lp3106
S'user'
p3107
asbag59
(g80
g61
NtRp3108
(dp3109
g64
(dp3110
g91
g92
ssg73
g3099
sg66
(lp3111
S':'
asbag59
(g80
g61
NtRp3112
(dp3113
g64
(dp3114
sg73
g3099
sg66
(lp3115
g59
(g60
g61
NtRp3116
(dp3117
g64
(dp3118
g72
I4
ssg73
g3112
sg66
(lp3119
g59
(g68
g61
NtRp3120
(dp3121
g64
(dp3122
g72
I3
ssg73
Nsg66
(lp3123
g59
(g75
g61
NtRp3124
(dp3125
g64
(dp3126
sg73
g3120
sg66
(lp3127
g59
(g80
g61
NtRp3128
(dp3129
g64
(dp3130
g84
g85
ssg73
g3124
sg66
(lp3131
S'birthdate'
p3132
asbag59
(g80
g61
NtRp3133
(dp3134
g64
(dp3135
g91
g92
ssg73
g3124
sg66
(lp3136
S':'
asbag59
(g80
g61
NtRp3137
(dp3138
g64
(dp3139
sg73
g3124
sg66
(lp3140
g59
(g60
g61
NtRp3141
(dp3142
g64
(dp3143
g72
I3
ssg73
g3137
sg66
(lp3144
S'None'
p3145
asbasbasbag59
(g75
g61
NtRp3146
(dp3147
g64
(dp3148
sg73
g3120
sg66
(lp3149
g59
(g80
g61
NtRp3150
(dp3151
g64
(dp3152
g84
g85
ssg73
g3146
sg66
(lp3153
S'email'
p3154
asbag59
(g80
g61
NtRp3155
(dp3156
g64
(dp3157
g91
g92
ssg73
g3146
sg66
(lp3158
S':'
asbag59
(g80
g61
NtRp3159
(dp3160
g64
(dp3161
sg73
g3146
sg66
(lp3162
g59
(g60
g61
NtRp3163
(dp3164
g64
(dp3165
g72
I3
ssg73
g3159
sg66
(lp3166
S'oskari.petas@gmail.com'
p3167
asbasbasbag59
(g75
g61
NtRp3168
(dp3169
g64
(dp3170
sg73
g3120
sg66
(lp3171
g59
(g80
g61
NtRp3172
(dp3173
g64
(dp3174
g84
g85
ssg73
g3168
sg66
(lp3175
S'first_name'
p3176
asbag59
(g80
g61
NtRp3177
(dp3178
g64
(dp3179
g91
g92
ssg73
g3168
sg66
(lp3180
S':'
asbag59
(g80
g61
NtRp3181
(dp3182
g64
(dp3183
sg73
g3168
sg66
(lp3184
g59
(g60
g61
NtRp3185
(dp3186
g64
(dp3187
g72
I3
ssg73
g3181
sg66
(lp3188
S'Oskari'
p3189
asbasbasbag59
(g75
g61
NtRp3190
(dp3191
g64
(dp3192
sg73
g3120
sg66
(lp3193
g59
(g80
g61
NtRp3194
(dp3195
g64
(dp3196
g84
g85
ssg73
g3190
sg66
(lp3197
S'id'
p3198
asbag59
(g80
g61
NtRp3199
(dp3200
g64
(dp3201
g91
g92
ssg73
g3190
sg66
(lp3202
S':'
asbag59
(g80
g61
NtRp3203
(dp3204
g64
(dp3205
sg73
g3190
sg66
(lp3206
g59
(g60
g61
NtRp3207
(dp3208
g64
(dp3209
g72
I3
ssg73
g3203
sg66
(lp3210
S'1'
asbasbasbag59
(g75
g61
NtRp3211
(dp3212
g64
(dp3213
sg73
g3120
sg66
(lp3214
g59
(g80
g61
NtRp3215
(dp3216
g64
(dp3217
g84
g85
ssg73
g3211
sg66
(lp3218
S'last_name'
p3219
asbag59
(g80
g61
NtRp3220
(dp3221
g64
(dp3222
g91
g92
ssg73
g3211
sg66
(lp3223
S':'
asbag59
(g80
g61
NtRp3224
(dp3225
g64
(dp3226
sg73
g3211
sg66
(lp3227
g59
(g60
g61
NtRp3228
(dp3229
g64
(dp3230
g72
I3
ssg73
g3224
sg66
(lp3231
S'Petas'
p3232
asbasbasbag59
(g75
g61
NtRp3233
(dp3234
g64
(dp3235
sg73
g3120
sg66
(lp3236
g59
(g80
g61
NtRp3237
(dp3238
g64
(dp3239
g84
g85
ssg73
g3233
sg66
(lp3240
S'password'
p3241
asbag59
(g80
g61
NtRp3242
(dp3243
g64
(dp3244
g91
g92
ssg73
g3233
sg66
(lp3245
S':'
asbag59
(g80
g61
NtRp3246
(dp3247
g64
(dp3248
sg73
g3233
sg66
(lp3249
g59
(g60
g61
NtRp3250
(dp3251
g64
(dp3252
g72
I3
ssg73
g3246
sg66
(lp3253
S'b11d7fe42f4ed95554a3bb1f580d7880'
p3254
asbasbasbag59
(g75
g61
NtRp3255
(dp3256
g64
(dp3257
sg73
g3120
sg66
(lp3258
g59
(g80
g61
NtRp3259
(dp3260
g64
(dp3261
g84
g85
ssg73
g3255
sg66
(lp3262
S'registration_id'
p3263
asbag59
(g80
g61
NtRp3264
(dp3265
g64
(dp3266
g91
g92
ssg73
g3255
sg66
(lp3267
S':'
asbag59
(g80
g61
NtRp3268
(dp3269
g64
(dp3270
sg73
g3255
sg66
(lp3271
g59
(g60
g61
NtRp3272
(dp3273
g64
(dp3274
g72
I3
ssg73
g3268
sg66
(lp3275
S''
asbasbasbag59
(g75
g61
NtRp3276
(dp3277
g64
(dp3278
sg73
g3120
sg66
(lp3279
g59
(g80
g61
NtRp3280
(dp3281
g64
(dp3282
g84
g85
ssg73
g3276
sg66
(lp3283
S'registration_key'
p3284
asbag59
(g80
g61
NtRp3285
(dp3286
g64
(dp3287
g91
g92
ssg73
g3276
sg66
(lp3288
S':'
asbag59
(g80
g61
NtRp3289
(dp3290
g64
(dp3291
sg73
g3276
sg66
(lp3292
g59
(g60
g61
NtRp3293
(dp3294
g64
(dp3295
g72
I3
ssg73
g3289
sg66
(lp3296
S''
asbasbasbag59
(g75
g61
NtRp3297
(dp3298
g64
(dp3299
sg73
g3120
sg66
(lp3300
g59
(g80
g61
NtRp3301
(dp3302
g64
(dp3303
g84
g85
ssg73
g3297
sg66
(lp3304
S'representation'
p3305
asbag59
(g80
g61
NtRp3306
(dp3307
g64
(dp3308
g91
g92
ssg73
g3297
sg66
(lp3309
S':'
asbag59
(g80
g61
NtRp3310
(dp3311
g64
(dp3312
sg73
g3297
sg66
(lp3313
g59
(g60
g61
NtRp3314
(dp3315
g64
(dp3316
g72
I3
ssg73
g3310
sg66
(lp3317
S'AS'
p3318
asbasbasbag59
(g75
g61
NtRp3319
(dp3320
g64
(dp3321
sg73
g3120
sg66
(lp3322
g59
(g80
g61
NtRp3323
(dp3324
g64
(dp3325
g84
g85
ssg73
g3319
sg66
(lp3326
S'reset_password_key'
p3327
asbag59
(g80
g61
NtRp3328
(dp3329
g64
(dp3330
g91
g92
ssg73
g3319
sg66
(lp3331
S':'
asbag59
(g80
g61
NtRp3332
(dp3333
g64
(dp3334
sg73
g3319
sg66
(lp3335
g59
(g60
g61
NtRp3336
(dp3337
g64
(dp3338
g72
I3
ssg73
g3332
sg66
(lp3339
S''
asbasbasbasbasbasbasbag59
(g75
g61
NtRp3340
(dp3341
g64
(dp3342
sg73
g3029
sg66
(lp3343
g59
(g80
g61
NtRp3344
(dp3345
g64
(dp3346
g84
g85
ssg73
g3340
sg66
(lp3347
S'user_groups'
p3348
asbag59
(g80
g61
NtRp3349
(dp3350
g64
(dp3351
g91
g92
ssg73
g3340
sg66
(lp3352
S':'
asbag59
(g80
g61
NtRp3353
(dp3354
g64
(dp3355
sg73
g3340
sg66
(lp3356
g59
(g60
g61
NtRp3357
(dp3358
g64
(dp3359
g72
I4
ssg73
g3353
sg66
(lp3360
g59
(g68
g61
NtRp3361
(dp3362
g64
(dp3363
g72
I3
ssg73
Nsg66
(lp3364
g59
(g75
g61
NtRp3365
(dp3366
g64
(dp3367
sg73
g3361
sg66
(lp3368
g59
(g80
g61
NtRp3369
(dp3370
g64
(dp3371
g84
g85
ssg73
g3365
sg66
(lp3372
S'1'
asbag59
(g80
g61
NtRp3373
(dp3374
g64
(dp3375
g91
g92
ssg73
g3365
sg66
(lp3376
S':'
asbag59
(g80
g61
NtRp3377
(dp3378
g64
(dp3379
sg73
g3365
sg66
(lp3380
g59
(g60
g61
NtRp3381
(dp3382
g64
(dp3383
g72
I3
ssg73
g3377
sg66
(lp3384
S'user_1'
p3385
asbasbasbasbasbasbasbasbasbasbasbasbasbsS'etype'
p3386
S"<type 'exceptions.SyntaxError'>"
p3387
sS'date'
p3388
S'Fri Jul 06 23:20:20 2012'
p3389
sS'response'
p3390
g59
(g60
g61
NtRp3391
(dp3392
g64
(dp3393
sg66
(lp3394
g59
(g68
g61
NtRp3395
(dp3396
g64
(dp3397
g72
I5
ssg73
Nsg66
(lp3398
g59
(g75
g61
NtRp3399
(dp3400
g64
(dp3401
sg73
g3395
sg66
(lp3402
g59
(g80
g61
NtRp3403
(dp3404
g64
(dp3405
g84
g85
ssg73
g3399
sg66
(lp3406
g170
asbag59
(g80
g61
NtRp3407
(dp3408
g64
(dp3409
g91
g92
ssg73
g3399
sg66
(lp3410
S':'
asbag59
(g80
g61
NtRp3411
(dp3412
g64
(dp3413
sg73
g3399
sg66
(lp3414
g59
(g60
g61
NtRp3415
(dp3416
g64
(dp3417
g72
I5
ssg73
g3411
sg66
(lp3418
S'<cStringIO.StringO object at 0x050DCC40>'
p3419
asbasbasbag59
(g75
g61
NtRp3420
(dp3421
g64
(dp3422
sg73
g3395
sg66
(lp3423
g59
(g80
g61
NtRp3424
(dp3425
g64
(dp3426
g84
g85
ssg73
g3420
sg66
(lp3427
g236
asbag59
(g80
g61
NtRp3428
(dp3429
g64
(dp3430
g91
g92
ssg73
g3420
sg66
(lp3431
S':'
asbag59
(g80
g61
NtRp3432
(dp3433
g64
(dp3434
sg73
g3420
sg66
(lp3435
g59
(g60
g61
NtRp3436
(dp3437
g64
(dp3438
g72
I5
ssg73
g3432
sg66
(lp3439
g59
(g68
g61
NtRp3440
(dp3441
g64
(dp3442
g72
I4
ssg73
Nsg66
(lp3443
g59
(g75
g61
NtRp3444
(dp3445
g64
(dp3446
sg73
g3440
sg66
(lp3447
g59
(g80
g61
NtRp3448
(dp3449
g64
(dp3450
g84
g85
ssg73
g3444
sg66
(lp3451
S'session_id_sitsit'
p3452
asbag59
(g80
g61
NtRp3453
(dp3454
g64
(dp3455
g91
g92
ssg73
g3444
sg66
(lp3456
S':'
asbag59
(g80
g61
NtRp3457
(dp3458
g64
(dp3459
sg73
g3444
sg66
(lp3460
g59
(g60
g61
NtRp3461
(dp3462
g64
(dp3463
g72
I4
ssg73
g3457
sg66
(lp3464
g59
(g68
g61
NtRp3465
(dp3466
g64
(dp3467
g72
I3
ssg73
Nsg66
(lp3468
g59
(g75
g61
NtRp3469
(dp3470
g64
(dp3471
sg73
g3465
sg66
(lp3472
g59
(g80
g61
NtRp3473
(dp3474
g64
(dp3475
g84
g85
ssg73
g3469
sg66
(lp3476
g286
asbag59
(g80
g61
NtRp3477
(dp3478
g64
(dp3479
g91
g92
ssg73
g3469
sg66
(lp3480
S':'
asbag59
(g80
g61
NtRp3481
(dp3482
g64
(dp3483
sg73
g3469
sg66
(lp3484
g59
(g60
g61
NtRp3485
(dp3486
g64
(dp3487
g72
I3
ssg73
g3481
sg66
(lp3488
S''
asbasbasbag59
(g75
g61
NtRp3489
(dp3490
g64
(dp3491
sg73
g3465
sg66
(lp3492
g59
(g80
g61
NtRp3493
(dp3494
g64
(dp3495
g84
g85
ssg73
g3489
sg66
(lp3496
g307
asbag59
(g80
g61
NtRp3497
(dp3498
g64
(dp3499
g91
g92
ssg73
g3489
sg66
(lp3500
S':'
asbag59
(g80
g61
NtRp3501
(dp3502
g64
(dp3503
sg73
g3489
sg66
(lp3504
g59
(g60
g61
NtRp3505
(dp3506
g64
(dp3507
g72
I3
ssg73
g3501
sg66
(lp3508
S''
asbasbasbag59
(g75
g61
NtRp3509
(dp3510
g64
(dp3511
sg73
g3465
sg66
(lp3512
g59
(g80
g61
NtRp3513
(dp3514
g64
(dp3515
g84
g85
ssg73
g3509
sg66
(lp3516
g328
asbag59
(g80
g61
NtRp3517
(dp3518
g64
(dp3519
g91
g92
ssg73
g3509
sg66
(lp3520
S':'
asbag59
(g80
g61
NtRp3521
(dp3522
g64
(dp3523
sg73
g3509
sg66
(lp3524
g59
(g60
g61
NtRp3525
(dp3526
g64
(dp3527
g72
I3
ssg73
g3521
sg66
(lp3528
S''
asbasbasbag59
(g75
g61
NtRp3529
(dp3530
g64
(dp3531
sg73
g3465
sg66
(lp3532
g59
(g80
g61
NtRp3533
(dp3534
g64
(dp3535
g84
g85
ssg73
g3529
sg66
(lp3536
g349
asbag59
(g80
g61
NtRp3537
(dp3538
g64
(dp3539
g91
g92
ssg73
g3529
sg66
(lp3540
S':'
asbag59
(g80
g61
NtRp3541
(dp3542
g64
(dp3543
sg73
g3529
sg66
(lp3544
g59
(g60
g61
NtRp3545
(dp3546
g64
(dp3547
g72
I3
ssg73
g3541
sg66
(lp3548
S''
asbasbasbag59
(g75
g61
NtRp3549
(dp3550
g64
(dp3551
sg73
g3465
sg66
(lp3552
g59
(g80
g61
NtRp3553
(dp3554
g64
(dp3555
g84
g85
ssg73
g3549
sg66
(lp3556
g370
asbag59
(g80
g61
NtRp3557
(dp3558
g64
(dp3559
g91
g92
ssg73
g3549
sg66
(lp3560
S':'
asbag59
(g80
g61
NtRp3561
(dp3562
g64
(dp3563
sg73
g3549
sg66
(lp3564
g59
(g60
g61
NtRp3565
(dp3566
g64
(dp3567
g72
I3
ssg73
g3561
sg66
(lp3568
S'/'
asbasbasbag59
(g75
g61
NtRp3569
(dp3570
g64
(dp3571
sg73
g3465
sg66
(lp3572
g59
(g80
g61
NtRp3573
(dp3574
g64
(dp3575
g84
g85
ssg73
g3569
sg66
(lp3576
g391
asbag59
(g80
g61
NtRp3577
(dp3578
g64
(dp3579
g91
g92
ssg73
g3569
sg66
(lp3580
S':'
asbag59
(g80
g61
NtRp3581
(dp3582
g64
(dp3583
sg73
g3569
sg66
(lp3584
g59
(g60
g61
NtRp3585
(dp3586
g64
(dp3587
g72
I3
ssg73
g3581
sg66
(lp3588
S''
asbasbasbag59
(g75
g61
NtRp3589
(dp3590
g64
(dp3591
sg73
g3465
sg66
(lp3592
g59
(g80
g61
NtRp3593
(dp3594
g64
(dp3595
g84
g85
ssg73
g3589
sg66
(lp3596
g412
asbag59
(g80
g61
NtRp3597
(dp3598
g64
(dp3599
g91
g92
ssg73
g3589
sg66
(lp3600
S':'
asbag59
(g80
g61
NtRp3601
(dp3602
g64
(dp3603
sg73
g3589
sg66
(lp3604
g59
(g60
g61
NtRp3605
(dp3606
g64
(dp3607
g72
I3
ssg73
g3601
sg66
(lp3608
S''
asbasbasbasbasbasbasbasbasbasbasbag59
(g75
g61
NtRp3609
(dp3610
g64
(dp3611
sg73
g3395
sg66
(lp3612
g59
(g80
g61
NtRp3613
(dp3614
g64
(dp3615
g84
g85
ssg73
g3609
sg66
(lp3616
S'delimiters'
p3617
asbag59
(g80
g61
NtRp3618
(dp3619
g64
(dp3620
g91
g92
ssg73
g3609
sg66
(lp3621
S':'
asbag59
(g80
g61
NtRp3622
(dp3623
g64
(dp3624
sg73
g3609
sg66
(lp3625
g59
(g60
g61
NtRp3626
(dp3627
g64
(dp3628
g72
I5
ssg73
g3622
sg66
(lp3629
g59
(g68
g61
NtRp3630
(dp3631
g64
(dp3632
g72
I4
ssg73
Nsg66
(lp3633
g59
(g75
g61
NtRp3634
(dp3635
g64
(dp3636
sg73
g3630
sg66
(lp3637
g59
(g80
g61
NtRp3638
(dp3639
g64
(dp3640
sg73
g3634
sg66
(lp3641
g59
(g60
g61
NtRp3642
(dp3643
g64
(dp3644
g72
I4
ssg73
g3638
sg66
(lp3645
S'{{'
p3646
asbasbasbag59
(g75
g61
NtRp3647
(dp3648
g64
(dp3649
sg73
g3630
sg66
(lp3650
g59
(g80
g61
NtRp3651
(dp3652
g64
(dp3653
sg73
g3647
sg66
(lp3654
g59
(g60
g61
NtRp3655
(dp3656
g64
(dp3657
g72
I4
ssg73
g3651
sg66
(lp3658
S'}}'
p3659
asbasbasbasbasbasbasbag59
(g75
g61
NtRp3660
(dp3661
g64
(dp3662
sg73
g3395
sg66
(lp3663
g59
(g80
g61
NtRp3664
(dp3665
g64
(dp3666
g84
g85
ssg73
g3660
sg66
(lp3667
S'files'
p3668
asbag59
(g80
g61
NtRp3669
(dp3670
g64
(dp3671
g91
g92
ssg73
g3660
sg66
(lp3672
S':'
asbag59
(g80
g61
NtRp3673
(dp3674
g64
(dp3675
sg73
g3660
sg66
(lp3676
g59
(g60
g61
NtRp3677
(dp3678
g64
(dp3679
g72
I5
ssg73
g3673
sg66
(lp3680
g59
(g68
g61
NtRp3681
(dp3682
g64
(dp3683
g72
I4
ssg73
Nsg66
(lp3684
sbasbasbasbag59
(g75
g61
NtRp3685
(dp3686
g64
(dp3687
sg73
g3395
sg66
(lp3688
g59
(g80
g61
NtRp3689
(dp3690
g64
(dp3691
g84
g85
ssg73
g3685
sg66
(lp3692
S'flash'
p3693
asbag59
(g80
g61
NtRp3694
(dp3695
g64
(dp3696
g91
g92
ssg73
g3685
sg66
(lp3697
S':'
asbag59
(g80
g61
NtRp3698
(dp3699
g64
(dp3700
sg73
g3685
sg66
(lp3701
g59
(g60
g61
NtRp3702
(dp3703
g64
(dp3704
g72
I5
ssg73
g3698
sg66
(lp3705
S''
asbasbasbag59
(g75
g61
NtRp3706
(dp3707
g64
(dp3708
sg73
g3395
sg66
(lp3709
g59
(g80
g61
NtRp3710
(dp3711
g64
(dp3712
g84
g85
ssg73
g3706
sg66
(lp3713
S'generic_patterns'
p3714
asbag59
(g80
g61
NtRp3715
(dp3716
g64
(dp3717
g91
g92
ssg73
g3706
sg66
(lp3718
S':'
asbag59
(g80
g61
NtRp3719
(dp3720
g64
(dp3721
sg73
g3706
sg66
(lp3722
g59
(g60
g61
NtRp3723
(dp3724
g64
(dp3725
g72
I5
ssg73
g3719
sg66
(lp3726
g59
(g68
g61
NtRp3727
(dp3728
g64
(dp3729
g72
I4
ssg73
Nsg66
(lp3730
g59
(g75
g61
NtRp3731
(dp3732
g64
(dp3733
sg73
g3727
sg66
(lp3734
g59
(g80
g61
NtRp3735
(dp3736
g64
(dp3737
sg73
g3731
sg66
(lp3738
g59
(g60
g61
NtRp3739
(dp3740
g64
(dp3741
g72
I4
ssg73
g3735
sg66
(lp3742
S'*'
asbasbasbasbasbasbasbag59
(g75
g61
NtRp3743
(dp3744
g64
(dp3745
sg73
g3395
sg66
(lp3746
g59
(g80
g61
NtRp3747
(dp3748
g64
(dp3749
g84
g85
ssg73
g3743
sg66
(lp3750
S'headers'
p3751
asbag59
(g80
g61
NtRp3752
(dp3753
g64
(dp3754
g91
g92
ssg73
g3743
sg66
(lp3755
S':'
asbag59
(g80
g61
NtRp3756
(dp3757
g64
(dp3758
sg73
g3743
sg66
(lp3759
g59
(g60
g61
NtRp3760
(dp3761
g64
(dp3762
g72
I5
ssg73
g3756
sg66
(lp3763
g59
(g68
g61
NtRp3764
(dp3765
g64
(dp3766
g72
I4
ssg73
Nsg66
(lp3767
g59
(g75
g61
NtRp3768
(dp3769
g64
(dp3770
sg73
g3764
sg66
(lp3771
g59
(g80
g61
NtRp3772
(dp3773
g64
(dp3774
g84
g85
ssg73
g3768
sg66
(lp3775
S'Cache-Control'
p3776
asbag59
(g80
g61
NtRp3777
(dp3778
g64
(dp3779
g91
g92
ssg73
g3768
sg66
(lp3780
S':'
asbag59
(g80
g61
NtRp3781
(dp3782
g64
(dp3783
sg73
g3768
sg66
(lp3784
g59
(g60
g61
NtRp3785
(dp3786
g64
(dp3787
g72
I4
ssg73
g3781
sg66
(lp3788
S'no-store, no-cache, must-revalidate, post-check=0, pre-check=0'
p3789
asbasbasbag59
(g75
g61
NtRp3790
(dp3791
g64
(dp3792
sg73
g3764
sg66
(lp3793
g59
(g80
g61
NtRp3794
(dp3795
g64
(dp3796
g84
g85
ssg73
g3790
sg66
(lp3797
S'Content-Type'
p3798
asbag59
(g80
g61
NtRp3799
(dp3800
g64
(dp3801
g91
g92
ssg73
g3790
sg66
(lp3802
S':'
asbag59
(g80
g61
NtRp3803
(dp3804
g64
(dp3805
sg73
g3790
sg66
(lp3806
g59
(g60
g61
NtRp3807
(dp3808
g64
(dp3809
g72
I4
ssg73
g3803
sg66
(lp3810
S'text/html; charset=utf-8'
p3811
asbasbasbag59
(g75
g61
NtRp3812
(dp3813
g64
(dp3814
sg73
g3764
sg66
(lp3815
g59
(g80
g61
NtRp3816
(dp3817
g64
(dp3818
g84
g85
ssg73
g3812
sg66
(lp3819
S'Expires'
p3820
asbag59
(g80
g61
NtRp3821
(dp3822
g64
(dp3823
g91
g92
ssg73
g3812
sg66
(lp3824
S':'
asbag59
(g80
g61
NtRp3825
(dp3826
g64
(dp3827
sg73
g3812
sg66
(lp3828
g59
(g60
g61
NtRp3829
(dp3830
g64
(dp3831
g72
I4
ssg73
g3825
sg66
(lp3832
S'Fri, 06 Jul 2012 21:20:20 GMT'
p3833
asbasbasbag59
(g75
g61
NtRp3834
(dp3835
g64
(dp3836
sg73
g3764
sg66
(lp3837
g59
(g80
g61
NtRp3838
(dp3839
g64
(dp3840
g84
g85
ssg73
g3834
sg66
(lp3841
S'Pragma'
p3842
asbag59
(g80
g61
NtRp3843
(dp3844
g64
(dp3845
g91
g92
ssg73
g3834
sg66
(lp3846
S':'
asbag59
(g80
g61
NtRp3847
(dp3848
g64
(dp3849
sg73
g3834
sg66
(lp3850
g59
(g60
g61
NtRp3851
(dp3852
g64
(dp3853
g72
I4
ssg73
g3847
sg66
(lp3854
S'no-cache'
p3855
asbasbasbag59
(g75
g61
NtRp3856
(dp3857
g64
(dp3858
sg73
g3764
sg66
(lp3859
g59
(g80
g61
NtRp3860
(dp3861
g64
(dp3862
g84
g85
ssg73
g3856
sg66
(lp3863
S'X-Powered-By'
p3864
asbag59
(g80
g61
NtRp3865
(dp3866
g64
(dp3867
g91
g92
ssg73
g3856
sg66
(lp3868
S':'
asbag59
(g80
g61
NtRp3869
(dp3870
g64
(dp3871
sg73
g3856
sg66
(lp3872
g59
(g60
g61
NtRp3873
(dp3874
g64
(dp3875
g72
I4
ssg73
g3869
sg66
(lp3876
S'web2py'
p3877
asbasbasbasbasbasbasbag59
(g75
g61
NtRp3878
(dp3879
g64
(dp3880
sg73
g3395
sg66
(lp3881
g59
(g80
g61
NtRp3882
(dp3883
g64
(dp3884
g84
g85
ssg73
g3878
sg66
(lp3885
S'menu'
p3886
asbag59
(g80
g61
NtRp3887
(dp3888
g64
(dp3889
g91
g92
ssg73
g3878
sg66
(lp3890
S':'
asbag59
(g80
g61
NtRp3891
(dp3892
g64
(dp3893
sg73
g3878
sg66
(lp3894
g59
(g60
g61
NtRp3895
(dp3896
g64
(dp3897
g72
I5
ssg73
g3891
sg66
(lp3898
g59
(g68
g61
NtRp3899
(dp3900
g64
(dp3901
g72
I4
ssg73
Nsg66
(lp3902
g59
(g75
g61
NtRp3903
(dp3904
g64
(dp3905
sg73
g3899
sg66
(lp3906
g59
(g80
g61
NtRp3907
(dp3908
g64
(dp3909
sg73
g3903
sg66
(lp3910
g59
(g60
g61
NtRp3911
(dp3912
g64
(dp3913
g72
I4
ssg73
g3907
sg66
(lp3914
g59
(g68
g61
NtRp3915
(dp3916
g64
(dp3917
g72
I3
ssg73
Nsg66
(lp3918
g59
(g75
g61
NtRp3919
(dp3920
g64
(dp3921
sg73
g3915
sg66
(lp3922
g59
(g80
g61
NtRp3923
(dp3924
g64
(dp3925
sg73
g3919
sg66
(lp3926
g59
(g60
g61
NtRp3927
(dp3928
g64
(dp3929
g72
I3
ssg73
g3923
sg66
(lp3930
cgluon.languages
lazyT_unpickle
p3931
(S's\x04\x00\x00\x00Home'
tRp3932
asbasbasbag59
(g75
g61
NtRp3933
(dp3934
g64
(dp3935
sg73
g3915
sg66
(lp3936
g59
(g80
g61
NtRp3937
(dp3938
g64
(dp3939
sg73
g3933
sg66
(lp3940
g59
(g60
g61
NtRp3941
(dp3942
g64
(dp3943
g72
I3
ssg73
g3937
sg66
(lp3944
g102
asbasbasbag59
(g75
g61
NtRp3945
(dp3946
g64
(dp3947
sg73
g3915
sg66
(lp3948
g59
(g80
g61
NtRp3949
(dp3950
g64
(dp3951
sg73
g3945
sg66
(lp3952
g59
(g60
g61
NtRp3953
(dp3954
g64
(dp3955
g72
I3
ssg73
g3949
sg66
(lp3956
S'/sitsit/default/index'
p3957
asbasbasbag59
(g75
g61
NtRp3958
(dp3959
g64
(dp3960
sg73
g3915
sg66
(lp3961
g59
(g80
g61
NtRp3962
(dp3963
g64
(dp3964
sg73
g3958
sg66
(lp3965
g59
(g60
g61
NtRp3966
(dp3967
g64
(dp3968
g72
I3
ssg73
g3962
sg66
(lp3969
g59
(g68
g61
NtRp3970
(dp3971
g64
(dp3972
g72
I2
ssg73
Nsg66
(lp3973
sbasbasbasbasbasbasbasbag59
(g75
g61
NtRp3974
(dp3975
g64
(dp3976
sg73
g3899
sg66
(lp3977
g59
(g80
g61
NtRp3978
(dp3979
g64
(dp3980
sg73
g3974
sg66
(lp3981
g59
(g60
g61
NtRp3982
(dp3983
g64
(dp3984
g72
I4
ssg73
g3978
sg66
(lp3985
g59
(g68
g61
NtRp3986
(dp3987
g64
(dp3988
g72
I3
ssg73
Nsg66
(lp3989
g59
(g75
g61
NtRp3990
(dp3991
g64
(dp3992
sg73
g3986
sg66
(lp3993
g59
(g80
g61
NtRp3994
(dp3995
g64
(dp3996
sg73
g3990
sg66
(lp3997
g59
(g60
g61
NtRp3998
(dp3999
g64
(dp4000
g72
I3
ssg73
g3994
sg66
(lp4001
g59
(cgluon.html
SPAN
p4002
g61
NtRp4003
(dp4004
g64
(dp4005
g84
S'color:yellow'
p4006
ssg73
Nsg66
(lp4007
g3877
asbasbasbasbag59
(g75
g61
NtRp4008
(dp4009
g64
(dp4010
sg73
g3986
sg66
(lp4011
g59
(g80
g61
NtRp4012
(dp4013
g64
(dp4014
sg73
g4008
sg66
(lp4015
g59
(g60
g61
NtRp4016
(dp4017
g64
(dp4018
g72
I3
ssg73
g4012
sg66
(lp4019
g102
asbasbasbag59
(g75
g61
NtRp4020
(dp4021
g64
(dp4022
sg73
g3986
sg66
(lp4023
g59
(g80
g61
NtRp4024
(dp4025
g64
(dp4026
sg73
g4020
sg66
(lp4027
g59
(g60
g61
NtRp4028
(dp4029
g64
(dp4030
g72
I3
ssg73
g4024
sg66
(lp4031
S'None'
p4032
asbasbasbag59
(g75
g61
NtRp4033
(dp4034
g64
(dp4035
sg73
g3986
sg66
(lp4036
g59
(g80
g61
NtRp4037
(dp4038
g64
(dp4039
sg73
g4033
sg66
(lp4040
g59
(g60
g61
NtRp4041
(dp4042
g64
(dp4043
g72
I3
ssg73
g4037
sg66
(lp4044
g59
(g68
g61
NtRp4045
(dp4046
g64
(dp4047
g72
I2
ssg73
Nsg66
(lp4048
g59
(g75
g61
NtRp4049
(dp4050
g64
(dp4051
sg73
g4045
sg66
(lp4052
g59
(g80
g61
NtRp4053
(dp4054
g64
(dp4055
sg73
g4049
sg66
(lp4056
g59
(g60
g61
NtRp4057
(dp4058
g64
(dp4059
g72
I2
ssg73
g4053
sg66
(lp4060
g59
(g68
g61
NtRp4061
(dp4062
g64
(dp4063
g72
I1
ssg73
Nsg66
(lp4064
g59
(g75
g61
NtRp4065
(dp4066
g64
(dp4067
sg73
g4061
sg66
(lp4068
g59
(g80
g61
NtRp4069
(dp4070
g64
(dp4071
sg73
g4065
sg66
(lp4072
g59
(g60
g61
NtRp4073
(dp4074
g64
(dp4075
g72
I1
ssg73
g4069
sg66
(lp4076
g3931
(S's\x08\x00\x00\x00My Sites'
tRp4077
asbasbasbag59
(g75
g61
NtRp4078
(dp4079
g64
(dp4080
sg73
g4061
sg66
(lp4081
g59
(g80
g61
NtRp4082
(dp4083
g64
(dp4084
sg73
g4078
sg66
(lp4085
g59
(g60
g61
NtRp4086
(dp4087
g64
(dp4088
g72
I1
ssg73
g4082
sg66
(lp4089
I00
asbasbasbag59
(g75
g61
NtRp4090
(dp4091
g64
(dp4092
sg73
g4061
sg66
(lp4093
g59
(g80
g61
NtRp4094
(dp4095
g64
(dp4096
sg73
g4090
sg66
(lp4097
g59
(g60
g61
NtRp4098
(dp4099
g64
(dp4100
g72
I1
ssg73
g4094
sg66
(lp4101
S'/admin/default/site'
p4102
asbasbasbasbasbasbasbag59
(g75
g61
NtRp4103
(dp4104
g64
(dp4105
sg73
g4045
sg66
(lp4106
g59
(g80
g61
NtRp4107
(dp4108
g64
(dp4109
sg73
g4103
sg66
(lp4110
g59
(g60
g61
NtRp4111
(dp4112
g64
(dp4113
g72
I2
ssg73
g4107
sg66
(lp4114
g59
(g68
g61
NtRp4115
(dp4116
g64
(dp4117
g72
I1
ssg73
Nsg66
(lp4118
g59
(g75
g61
NtRp4119
(dp4120
g64
(dp4121
sg73
g4115
sg66
(lp4122
g59
(g80
g61
NtRp4123
(dp4124
g64
(dp4125
sg73
g4119
sg66
(lp4126
g59
(g60
g61
NtRp4127
(dp4128
g64
(dp4129
g72
I1
ssg73
g4123
sg66
(lp4130
g3931
(S's\x08\x00\x00\x00This App'
tRp4131
asbasbasbag59
(g75
g61
NtRp4132
(dp4133
g64
(dp4134
sg73
g4115
sg66
(lp4135
g59
(g80
g61
NtRp4136
(dp4137
g64
(dp4138
sg73
g4132
sg66
(lp4139
g59
(g60
g61
NtRp4140
(dp4141
g64
(dp4142
g72
I1
ssg73
g4136
sg66
(lp4143
I00
asbasbasbag59
(g75
g61
NtRp4144
(dp4145
g64
(dp4146
sg73
g4115
sg66
(lp4147
g59
(g80
g61
NtRp4148
(dp4149
g64
(dp4150
sg73
g4144
sg66
(lp4151
g59
(g60
g61
NtRp4152
(dp4153
g64
(dp4154
g72
I1
ssg73
g4148
sg66
(lp4155
S'/admin/default/design/sitsit'
p4156
asbasbasbag59
(g75
g61
NtRp4157
(dp4158
g64
(dp4159
sg73
g4115
sg66
(lp4160
g59
(g80
g61
NtRp4161
(dp4162
g64
(dp4163
sg73
g4157
sg66
(lp4164
g59
(g60
g61
NtRp4165
(dp4166
g64
(dp4167
g72
I1
ssg73
g4161
sg66
(lp4168
(lp4169
(g3931
(S's\n\x00\x00\x00Controller'
tRp4170
I00
S'/admin/default/edit/sitsit/controllers/default.py'
tp4171
a(g3931
(S's\x04\x00\x00\x00View'
tRp4172
I00
S'/admin/default/edit/sitsit/views/default/sitsit.html'
tp4173
a(g3931
(S's\x06\x00\x00\x00Layout'
tRp4174
I00
S'/admin/default/edit/sitsit/views/layout.html'
tp4175
a(g3931
(S's\n\x00\x00\x00Stylesheet'
tRp4176
I00
S'/admin/default/edit/sitsit/static/css/web2py.css'
tp4177
a(g3931
(S's\x08\x00\x00\x00DB Model'
tRp4178
I00
S'/admin/default/edit/sitsit/models/db.py'
tp4179
a(g3931
(S's\n\x00\x00\x00Menu Model'
tRp4180
I00
S'/admin/default/edit/sitsit/models/menu.py'
tp4181
a(g3931
(S's\x08\x00\x00\x00Database'
tRp4182
I00
S'/sitsit/appadmin/index'
tp4183
a(g3931
(S's\x06\x00\x00\x00Errors'
tRp4184
I00
S'/admin/default/errors/sitsit'
tp4185
a(g3931
(S's\x05\x00\x00\x00About'
tRp4186
I00
S'/admin/default/about/sitsit'
tp4187
aasbasbasbasbasbasbasbag59
(g75
g61
NtRp4188
(dp4189
g64
(dp4190
sg73
g4045
sg66
(lp4191
g59
(g80
g61
NtRp4192
(dp4193
g64
(dp4194
sg73
g4188
sg66
(lp4195
g59
(g60
g61
NtRp4196
(dp4197
g64
(dp4198
g72
I2
ssg73
g4192
sg66
(lp4199
g59
(g68
g61
NtRp4200
(dp4201
g64
(dp4202
g72
I1
ssg73
Nsg66
(lp4203
g59
(g75
g61
NtRp4204
(dp4205
g64
(dp4206
sg73
g4200
sg66
(lp4207
g59
(g80
g61
NtRp4208
(dp4209
g64
(dp4210
sg73
g4204
sg66
(lp4211
g59
(g60
g61
NtRp4212
(dp4213
g64
(dp4214
g72
I1
ssg73
g4208
sg66
(lp4215
S'web2py.com'
p4216
asbasbasbag59
(g75
g61
NtRp4217
(dp4218
g64
(dp4219
sg73
g4200
sg66
(lp4220
g59
(g80
g61
NtRp4221
(dp4222
g64
(dp4223
sg73
g4217
sg66
(lp4224
g59
(g60
g61
NtRp4225
(dp4226
g64
(dp4227
g72
I1
ssg73
g4221
sg66
(lp4228
I00
asbasbasbag59
(g75
g61
NtRp4229
(dp4230
g64
(dp4231
sg73
g4200
sg66
(lp4232
g59
(g80
g61
NtRp4233
(dp4234
g64
(dp4235
sg73
g4229
sg66
(lp4236
g59
(g60
g61
NtRp4237
(dp4238
g64
(dp4239
g72
I1
ssg73
g4233
sg66
(lp4240
S'http://www.web2py.com'
p4241
asbasbasbag59
(g75
g61
NtRp4242
(dp4243
g64
(dp4244
sg73
g4200
sg66
(lp4245
g59
(g80
g61
NtRp4246
(dp4247
g64
(dp4248
sg73
g4242
sg66
(lp4249
g59
(g60
g61
NtRp4250
(dp4251
g64
(dp4252
g72
I1
ssg73
g4246
sg66
(lp4253
(lp4254
(g3931
(S's\x08\x00\x00\x00Download'
tRp4255
I00
S'http://www.web2py.com/examples/default/download'
p4256
tp4257
a(g3931
(S's\x07\x00\x00\x00Support'
tRp4258
I00
S'http://www.web2py.com/examples/default/support'
p4259
tp4260
a(g3931
(S's\x04\x00\x00\x00Demo'
tRp4261
I00
S'http://web2py.com/demo_admin'
p4262
tp4263
a(g3931
(S's\x0e\x00\x00\x00Quick Examples'
tRp4264
I00
S'http://web2py.com/examples/default/examples'
p4265
tp4266
a(g3931
(S's\x03\x00\x00\x00FAQ'
tRp4267
I00
S'http://web2py.com/AlterEgo'
p4268
tp4269
a(g3931
(S's\x06\x00\x00\x00Videos'
tRp4270
I00
S'http://www.web2py.com/examples/default/videos/'
p4271
tp4272
a(g3931
(S's\x11\x00\x00\x00Free Applications'
tRp4273
I00
S'http://web2py.com/appliances'
p4274
tp4275
a(g3931
(S's\x07\x00\x00\x00Plugins'
tRp4276
I00
S'http://web2py.com/plugins'
p4277
tp4278
a(g3931
(S's\x07\x00\x00\x00Layouts'
tRp4279
I00
S'http://web2py.com/layouts'
p4280
tp4281
a(g3931
(S's\x07\x00\x00\x00Recipes'
tRp4282
I00
S'http://web2pyslices.com/'
p4283
tp4284
a(g3931
(S's\x08\x00\x00\x00Semantic'
tRp4285
I00
S'http://web2py.com/semantic'
p4286
tp4287
aasbasbasbasbasbasbasbag59
(g75
g61
NtRp4288
(dp4289
g64
(dp4290
sg73
g4045
sg66
(lp4291
g59
(g80
g61
NtRp4292
(dp4293
g64
(dp4294
sg73
g4288
sg66
(lp4295
g59
(g60
g61
NtRp4296
(dp4297
g64
(dp4298
g72
I2
ssg73
g4292
sg66
(lp4299
g59
(g68
g61
NtRp4300
(dp4301
g64
(dp4302
g72
I1
ssg73
Nsg66
(lp4303
g59
(g75
g61
NtRp4304
(dp4305
g64
(dp4306
sg73
g4300
sg66
(lp4307
g59
(g80
g61
NtRp4308
(dp4309
g64
(dp4310
sg73
g4304
sg66
(lp4311
g59
(g60
g61
NtRp4312
(dp4313
g64
(dp4314
g72
I1
ssg73
g4308
sg66
(lp4315
g3931
(S's\r\x00\x00\x00Documentation'
tRp4316
asbasbasbag59
(g75
g61
NtRp4317
(dp4318
g64
(dp4319
sg73
g4300
sg66
(lp4320
g59
(g80
g61
NtRp4321
(dp4322
g64
(dp4323
sg73
g4317
sg66
(lp4324
g59
(g60
g61
NtRp4325
(dp4326
g64
(dp4327
g72
I1
ssg73
g4321
sg66
(lp4328
I00
asbasbasbag59
(g75
g61
NtRp4329
(dp4330
g64
(dp4331
sg73
g4300
sg66
(lp4332
g59
(g80
g61
NtRp4333
(dp4334
g64
(dp4335
sg73
g4329
sg66
(lp4336
g59
(g60
g61
NtRp4337
(dp4338
g64
(dp4339
g72
I1
ssg73
g4333
sg66
(lp4340
S'http://www.web2py.com/book'
p4341
asbasbasbag59
(g75
g61
NtRp4342
(dp4343
g64
(dp4344
sg73
g4300
sg66
(lp4345
g59
(g80
g61
NtRp4346
(dp4347
g64
(dp4348
sg73
g4342
sg66
(lp4349
g59
(g60
g61
NtRp4350
(dp4351
g64
(dp4352
g72
I1
ssg73
g4346
sg66
(lp4353
(lp4354
(g3931
(S's\x07\x00\x00\x00Preface'
tRp4355
I00
S'http://www.web2py.com/book/default/chapter/00'
p4356
tp4357
a(g3931
(S's\x0c\x00\x00\x00Introduction'
tRp4358
I00
S'http://www.web2py.com/book/default/chapter/01'
p4359
tp4360
a(g3931
(S's\x06\x00\x00\x00Python'
tRp4361
I00
S'http://www.web2py.com/book/default/chapter/02'
p4362
tp4363
a(g3931
(S's\x08\x00\x00\x00Overview'
tRp4364
I00
S'http://www.web2py.com/book/default/chapter/03'
p4365
tp4366
a(g3931
(S's\x08\x00\x00\x00The Core'
tRp4367
I00
S'http://www.web2py.com/book/default/chapter/04'
p4368
tp4369
a(g3931
(S's\t\x00\x00\x00The Views'
tRp4370
I00
S'http://www.web2py.com/book/default/chapter/05'
p4371
tp4372
a(g3931
(S's\x08\x00\x00\x00Database'
tRp4373
I00
S'http://www.web2py.com/book/default/chapter/06'
p4374
tp4375
a(g3931
(S's\x14\x00\x00\x00Forms and Validators'
tRp4376
I00
S'http://www.web2py.com/book/default/chapter/07'
p4377
tp4378
a(g3931
(S's\r\x00\x00\x00Email and SMS'
tRp4379
I00
S'http://www.web2py.com/book/default/chapter/08'
p4380
tp4381
a(g3931
(S's\x0e\x00\x00\x00Access Control'
tRp4382
I00
S'http://www.web2py.com/book/default/chapter/09'
p4383
tp4384
a(g3931
(S's\x08\x00\x00\x00Services'
tRp4385
I00
S'http://www.web2py.com/book/default/chapter/10'
p4386
tp4387
a(g3931
(S's\x0c\x00\x00\x00Ajax Recipes'
tRp4388
I00
S'http://www.web2py.com/book/default/chapter/11'
p4389
tp4390
a(g3931
(S's\x16\x00\x00\x00Components and Plugins'
tRp4391
I00
S'http://www.web2py.com/book/default/chapter/12'
p4392
tp4393
a(g3931
(S's\x12\x00\x00\x00Deployment Recipes'
tRp4394
I00
S'http://www.web2py.com/book/default/chapter/13'
p4395
tp4396
a(g3931
(S's\r\x00\x00\x00Other Recipes'
tRp4397
I00
S'http://www.web2py.com/book/default/chapter/14'
p4398
tp4399
a(g3931
(S's\r\x00\x00\x00Buy this book'
tRp4400
I00
S'http://stores.lulu.com/web2py'
p4401
tp4402
aasbasbasbasbasbasbasbag59
(g75
g61
NtRp4403
(dp4404
g64
(dp4405
sg73
g4045
sg66
(lp4406
g59
(g80
g61
NtRp4407
(dp4408
g64
(dp4409
sg73
g4403
sg66
(lp4410
g59
(g60
g61
NtRp4411
(dp4412
g64
(dp4413
g72
I2
ssg73
g4407
sg66
(lp4414
g59
(g68
g61
NtRp4415
(dp4416
g64
(dp4417
g72
I1
ssg73
Nsg66
(lp4418
g59
(g75
g61
NtRp4419
(dp4420
g64
(dp4421
sg73
g4415
sg66
(lp4422
g59
(g80
g61
NtRp4423
(dp4424
g64
(dp4425
sg73
g4419
sg66
(lp4426
g59
(g60
g61
NtRp4427
(dp4428
g64
(dp4429
g72
I1
ssg73
g4423
sg66
(lp4430
g3931
(S's\t\x00\x00\x00Community'
tRp4431
asbasbasbag59
(g75
g61
NtRp4432
(dp4433
g64
(dp4434
sg73
g4415
sg66
(lp4435
g59
(g80
g61
NtRp4436
(dp4437
g64
(dp4438
sg73
g4432
sg66
(lp4439
g59
(g60
g61
NtRp4440
(dp4441
g64
(dp4442
g72
I1
ssg73
g4436
sg66
(lp4443
I00
asbasbasbag59
(g75
g61
NtRp4444
(dp4445
g64
(dp4446
sg73
g4415
sg66
(lp4447
g59
(g80
g61
NtRp4448
(dp4449
g64
(dp4450
sg73
g4444
sg66
(lp4451
g59
(g60
g61
NtRp4452
(dp4453
g64
(dp4454
g72
I1
ssg73
g4448
sg66
(lp4455
Nasbasbasbag59
(g75
g61
NtRp4456
(dp4457
g64
(dp4458
sg73
g4415
sg66
(lp4459
g59
(g80
g61
NtRp4460
(dp4461
g64
(dp4462
sg73
g4456
sg66
(lp4463
g59
(g60
g61
NtRp4464
(dp4465
g64
(dp4466
g72
I1
ssg73
g4460
sg66
(lp4467
(lp4468
(g3931
(S's\x06\x00\x00\x00Groups'
tRp4469
I00
S'http://www.web2py.com/examples/default/usergroups'
p4470
tp4471
a(g3931
(S's\x07\x00\x00\x00Twitter'
tRp4472
I00
S'http://twitter.com/web2py'
p4473
tp4474
a(g3931
(S's\t\x00\x00\x00Live Chat'
tRp4475
I00
S'http://webchat.freenode.net/?channels=web2py'
p4476
tp4477
aasbasbasbasbasbasbasbag59
(g75
g61
NtRp4478
(dp4479
g64
(dp4480
sg73
g4045
sg66
(lp4481
g59
(g80
g61
NtRp4482
(dp4483
g64
(dp4484
sg73
g4478
sg66
(lp4485
g59
(g60
g61
NtRp4486
(dp4487
g64
(dp4488
g72
I2
ssg73
g4482
sg66
(lp4489
g59
(g68
g61
NtRp4490
(dp4491
g64
(dp4492
g72
I1
ssg73
Nsg66
(lp4493
g59
(g75
g61
NtRp4494
(dp4495
g64
(dp4496
sg73
g4490
sg66
(lp4497
g59
(g80
g61
NtRp4498
(dp4499
g64
(dp4500
sg73
g4494
sg66
(lp4501
g59
(g60
g61
NtRp4502
(dp4503
g64
(dp4504
g72
I1
ssg73
g4498
sg66
(lp4505
g3931
(S's\x07\x00\x00\x00Plugins'
tRp4506
asbasbasbag59
(g75
g61
NtRp4507
(dp4508
g64
(dp4509
sg73
g4490
sg66
(lp4510
g59
(g80
g61
NtRp4511
(dp4512
g64
(dp4513
sg73
g4507
sg66
(lp4514
g59
(g60
g61
NtRp4515
(dp4516
g64
(dp4517
g72
I1
ssg73
g4511
sg66
(lp4518
I00
asbasbasbag59
(g75
g61
NtRp4519
(dp4520
g64
(dp4521
sg73
g4490
sg66
(lp4522
g59
(g80
g61
NtRp4523
(dp4524
g64
(dp4525
sg73
g4519
sg66
(lp4526
g59
(g60
g61
NtRp4527
(dp4528
g64
(dp4529
g72
I1
ssg73
g4523
sg66
(lp4530
Nasbasbasbag59
(g75
g61
NtRp4531
(dp4532
g64
(dp4533
sg73
g4490
sg66
(lp4534
g59
(g80
g61
NtRp4535
(dp4536
g64
(dp4537
sg73
g4531
sg66
(lp4538
g59
(g60
g61
NtRp4539
(dp4540
g64
(dp4541
g72
I1
ssg73
g4535
sg66
(lp4542
(lp4543
(S'plugin_wiki'
p4544
I00
S'http://web2py.com/examples/default/download'
p4545
tp4546
a(g3931
(S's\r\x00\x00\x00Other Plugins'
tRp4547
I00
g4277
tp4548
a(g3931
(S's\x0e\x00\x00\x00Layout Plugins'
tRp4549
I00
g4280
tp4550
aasbasbasbasbasbasbasbasbasbasbasbasbasbasbasbasbasbasbasbag59
(g75
g61
NtRp4551
(dp4552
g64
(dp4553
sg73
g3395
sg66
(lp4554
g59
(g80
g61
NtRp4555
(dp4556
g64
(dp4557
g84
g85
ssg73
g4551
sg66
(lp4558
S'meta'
p4559
asbag59
(g80
g61
NtRp4560
(dp4561
g64
(dp4562
g91
g92
ssg73
g4551
sg66
(lp4563
S':'
asbag59
(g80
g61
NtRp4564
(dp4565
g64
(dp4566
sg73
g4551
sg66
(lp4567
g59
(g60
g61
NtRp4568
(dp4569
g64
(dp4570
g72
I5
ssg73
g4564
sg66
(lp4571
g59
(g68
g61
NtRp4572
(dp4573
g64
(dp4574
g72
I4
ssg73
Nsg66
(lp4575
g59
(g75
g61
NtRp4576
(dp4577
g64
(dp4578
sg73
g4572
sg66
(lp4579
g59
(g80
g61
NtRp4580
(dp4581
g64
(dp4582
g84
g85
ssg73
g4576
sg66
(lp4583
S'author'
p4584
asbag59
(g80
g61
NtRp4585
(dp4586
g64
(dp4587
g91
g92
ssg73
g4576
sg66
(lp4588
S':'
asbag59
(g80
g61
NtRp4589
(dp4590
g64
(dp4591
sg73
g4576
sg66
(lp4592
g59
(g60
g61
NtRp4593
(dp4594
g64
(dp4595
g72
I4
ssg73
g4589
sg66
(lp4596
S'Your Name <you@example.com>'
p4597
asbasbasbag59
(g75
g61
NtRp4598
(dp4599
g64
(dp4600
sg73
g4572
sg66
(lp4601
g59
(g80
g61
NtRp4602
(dp4603
g64
(dp4604
g84
g85
ssg73
g4598
sg66
(lp4605
S'copyright'
p4606
asbag59
(g80
g61
NtRp4607
(dp4608
g64
(dp4609
g91
g92
ssg73
g4598
sg66
(lp4610
S':'
asbag59
(g80
g61
NtRp4611
(dp4612
g64
(dp4613
sg73
g4598
sg66
(lp4614
g59
(g60
g61
NtRp4615
(dp4616
g64
(dp4617
g72
I4
ssg73
g4611
sg66
(lp4618
S'Copyright 2011'
p4619
asbasbasbag59
(g75
g61
NtRp4620
(dp4621
g64
(dp4622
sg73
g4572
sg66
(lp4623
g59
(g80
g61
NtRp4624
(dp4625
g64
(dp4626
g84
g85
ssg73
g4620
sg66
(lp4627
S'description'
p4628
asbag59
(g80
g61
NtRp4629
(dp4630
g64
(dp4631
g91
g92
ssg73
g4620
sg66
(lp4632
S':'
asbag59
(g80
g61
NtRp4633
(dp4634
g64
(dp4635
sg73
g4620
sg66
(lp4636
g59
(g60
g61
NtRp4637
(dp4638
g64
(dp4639
g72
I4
ssg73
g4633
sg66
(lp4640
S'a cool new app'
p4641
asbasbasbag59
(g75
g61
NtRp4642
(dp4643
g64
(dp4644
sg73
g4572
sg66
(lp4645
g59
(g80
g61
NtRp4646
(dp4647
g64
(dp4648
g84
g85
ssg73
g4642
sg66
(lp4649
S'generator'
p4650
asbag59
(g80
g61
NtRp4651
(dp4652
g64
(dp4653
g91
g92
ssg73
g4642
sg66
(lp4654
S':'
asbag59
(g80
g61
NtRp4655
(dp4656
g64
(dp4657
sg73
g4642
sg66
(lp4658
g59
(g60
g61
NtRp4659
(dp4660
g64
(dp4661
g72
I4
ssg73
g4655
sg66
(lp4662
S'Web2py Web Framework'
p4663
asbasbasbag59
(g75
g61
NtRp4664
(dp4665
g64
(dp4666
sg73
g4572
sg66
(lp4667
g59
(g80
g61
NtRp4668
(dp4669
g64
(dp4670
g84
g85
ssg73
g4664
sg66
(lp4671
S'keywords'
p4672
asbag59
(g80
g61
NtRp4673
(dp4674
g64
(dp4675
g91
g92
ssg73
g4664
sg66
(lp4676
S':'
asbag59
(g80
g61
NtRp4677
(dp4678
g64
(dp4679
sg73
g4664
sg66
(lp4680
g59
(g60
g61
NtRp4681
(dp4682
g64
(dp4683
g72
I4
ssg73
g4677
sg66
(lp4684
S'web2py, python, framework'
p4685
asbasbasbasbasbasbasbag59
(g75
g61
NtRp4686
(dp4687
g64
(dp4688
sg73
g3395
sg66
(lp4689
g59
(g80
g61
NtRp4690
(dp4691
g64
(dp4692
g84
g85
ssg73
g4686
sg66
(lp4693
S'postprocessing'
p4694
asbag59
(g80
g61
NtRp4695
(dp4696
g64
(dp4697
g91
g92
ssg73
g4686
sg66
(lp4698
S':'
asbag59
(g80
g61
NtRp4699
(dp4700
g64
(dp4701
sg73
g4686
sg66
(lp4702
g59
(g60
g61
NtRp4703
(dp4704
g64
(dp4705
g72
I5
ssg73
g4699
sg66
(lp4706
g59
(g68
g61
NtRp4707
(dp4708
g64
(dp4709
g72
I4
ssg73
Nsg66
(lp4710
sbasbasbasbag59
(g75
g61
NtRp4711
(dp4712
g64
(dp4713
sg73
g3395
sg66
(lp4714
g59
(g80
g61
NtRp4715
(dp4716
g64
(dp4717
g84
g85
ssg73
g4711
sg66
(lp4718
S'session_file'
p4719
asbag59
(g80
g61
NtRp4720
(dp4721
g64
(dp4722
g91
g92
ssg73
g4711
sg66
(lp4723
S':'
asbag59
(g80
g61
NtRp4724
(dp4725
g64
(dp4726
sg73
g4711
sg66
(lp4727
g59
(g60
g61
NtRp4728
(dp4729
g64
(dp4730
g72
I5
ssg73
g4724
sg66
(lp4731
S"<open file 'C:\\Users\\Osku\\koodaus\\web2py\\applications\\sitsit\\sessions\\127.0.0.1-ec2284ba-32fe-4a19-9a6f-e97c370381b5', mode 'rb+' at 0x04DF5B18>"
p4732
asbasbasbag59
(g75
g61
NtRp4733
(dp4734
g64
(dp4735
sg73
g3395
sg66
(lp4736
g59
(g80
g61
NtRp4737
(dp4738
g64
(dp4739
g84
g85
ssg73
g4733
sg66
(lp4740
S'session_filename'
p4741
asbag59
(g80
g61
NtRp4742
(dp4743
g64
(dp4744
g91
g92
ssg73
g4733
sg66
(lp4745
S':'
asbag59
(g80
g61
NtRp4746
(dp4747
g64
(dp4748
sg73
g4733
sg66
(lp4749
g59
(g60
g61
NtRp4750
(dp4751
g64
(dp4752
g72
I5
ssg73
g4746
sg66
(lp4753
S'C:\\Users\\Osku\\koodaus\\web2py\\applications\\sitsit\\sessions\\127.0.0.1-ec2284ba-32fe-4a19-9a6f-e97c370381b5'
p4754
asbasbasbag59
(g75
g61
NtRp4755
(dp4756
g64
(dp4757
sg73
g3395
sg66
(lp4758
g59
(g80
g61
NtRp4759
(dp4760
g64
(dp4761
g84
g85
ssg73
g4755
sg66
(lp4762
S'session_id'
p4763
asbag59
(g80
g61
NtRp4764
(dp4765
g64
(dp4766
g91
g92
ssg73
g4755
sg66
(lp4767
S':'
asbag59
(g80
g61
NtRp4768
(dp4769
g64
(dp4770
sg73
g4755
sg66
(lp4771
g59
(g60
g61
NtRp4772
(dp4773
g64
(dp4774
g72
I5
ssg73
g4768
sg66
(lp4775
S'127.0.0.1-ec2284ba-32fe-4a19-9a6f-e97c370381b5'
p4776
asbasbasbag59
(g75
g61
NtRp4777
(dp4778
g64
(dp4779
sg73
g3395
sg66
(lp4780
g59
(g80
g61
NtRp4781
(dp4782
g64
(dp4783
g84
g85
ssg73
g4777
sg66
(lp4784
S'session_id_name'
p4785
asbag59
(g80
g61
NtRp4786
(dp4787
g64
(dp4788
g91
g92
ssg73
g4777
sg66
(lp4789
S':'
asbag59
(g80
g61
NtRp4790
(dp4791
g64
(dp4792
sg73
g4777
sg66
(lp4793
g59
(g60
g61
NtRp4794
(dp4795
g64
(dp4796
g72
I5
ssg73
g4790
sg66
(lp4797
g3452
asbasbasbag59
(g75
g61
NtRp4798
(dp4799
g64
(dp4800
sg73
g3395
sg66
(lp4801
g59
(g80
g61
NtRp4802
(dp4803
g64
(dp4804
g84
g85
ssg73
g4798
sg66
(lp4805
S'session_locked'
p4806
asbag59
(g80
g61
NtRp4807
(dp4808
g64
(dp4809
g91
g92
ssg73
g4798
sg66
(lp4810
S':'
asbag59
(g80
g61
NtRp4811
(dp4812
g64
(dp4813
sg73
g4798
sg66
(lp4814
g59
(g60
g61
NtRp4815
(dp4816
g64
(dp4817
g72
I5
ssg73
g4811
sg66
(lp4818
g1632
asbasbasbag59
(g75
g61
NtRp4819
(dp4820
g64
(dp4821
sg73
g3395
sg66
(lp4822
g59
(g80
g61
NtRp4823
(dp4824
g64
(dp4825
g84
g85
ssg73
g4819
sg66
(lp4826
S'session_new'
p4827
asbag59
(g80
g61
NtRp4828
(dp4829
g64
(dp4830
g91
g92
ssg73
g4819
sg66
(lp4831
S':'
asbag59
(g80
g61
NtRp4832
(dp4833
g64
(dp4834
sg73
g4819
sg66
(lp4835
g59
(g60
g61
NtRp4836
(dp4837
g64
(dp4838
g72
I5
ssg73
g4832
sg66
(lp4839
g102
asbasbasbag59
(g75
g61
NtRp4840
(dp4841
g64
(dp4842
sg73
g3395
sg66
(lp4843
g59
(g80
g61
NtRp4844
(dp4845
g64
(dp4846
g84
g85
ssg73
g4840
sg66
(lp4847
S'status'
p4848
asbag59
(g80
g61
NtRp4849
(dp4850
g64
(dp4851
g91
g92
ssg73
g4840
sg66
(lp4852
S':'
asbag59
(g80
g61
NtRp4853
(dp4854
g64
(dp4855
sg73
g4840
sg66
(lp4856
g59
(g60
g61
NtRp4857
(dp4858
g64
(dp4859
g72
I5
ssg73
g4853
sg66
(lp4860
S'200'
p4861
asbasbasbag59
(g75
g61
NtRp4862
(dp4863
g64
(dp4864
sg73
g3395
sg66
(lp4865
g59
(g80
g61
NtRp4866
(dp4867
g64
(dp4868
g84
g85
ssg73
g4862
sg66
(lp4869
S'subtitle'
p4870
asbag59
(g80
g61
NtRp4871
(dp4872
g64
(dp4873
g91
g92
ssg73
g4862
sg66
(lp4874
S':'
asbag59
(g80
g61
NtRp4875
(dp4876
g64
(dp4877
sg73
g4862
sg66
(lp4878
g59
(g60
g61
NtRp4879
(dp4880
g64
(dp4881
g72
I5
ssg73
g4875
sg66
(lp4882
g3931
(S's\r\x00\x00\x00customize me!'
tRp4883
asbasbasbag59
(g75
g61
NtRp4884
(dp4885
g64
(dp4886
sg73
g3395
sg66
(lp4887
g59
(g80
g61
NtRp4888
(dp4889
g64
(dp4890
g84
g85
ssg73
g4884
sg66
(lp4891
S'title'
p4892
asbag59
(g80
g61
NtRp4893
(dp4894
g64
(dp4895
g91
g92
ssg73
g4884
sg66
(lp4896
S':'
asbag59
(g80
g61
NtRp4897
(dp4898
g64
(dp4899
sg73
g4884
sg66
(lp4900
g59
(g60
g61
NtRp4901
(dp4902
g64
(dp4903
g72
I5
ssg73
g4897
sg66
(lp4904
S'Sitsit'
p4905
asbasbasbag59
(g75
g61
NtRp4906
(dp4907
g64
(dp4908
sg73
g3395
sg66
(lp4909
g59
(g80
g61
NtRp4910
(dp4911
g64
(dp4912
g84
g85
ssg73
g4906
sg66
(lp4913
g2318
asbag59
(g80
g61
NtRp4914
(dp4915
g64
(dp4916
g91
g92
ssg73
g4906
sg66
(lp4917
S':'
asbag59
(g80
g61
NtRp4918
(dp4919
g64
(dp4920
sg73
g4906
sg66
(lp4921
g59
(g60
g61
NtRp4922
(dp4923
g64
(dp4924
g72
I5
ssg73
g4918
sg66
(lp4925
g2331
asbasbasbag59
(g75
g61
NtRp4926
(dp4927
g64
(dp4928
sg73
g3395
sg66
(lp4929
g59
(g80
g61
NtRp4930
(dp4931
g64
(dp4932
g84
g85
ssg73
g4926
sg66
(lp4933
S'view'
p4934
asbag59
(g80
g61
NtRp4935
(dp4936
g64
(dp4937
g91
g92
ssg73
g4926
sg66
(lp4938
S':'
asbag59
(g80
g61
NtRp4939
(dp4940
g64
(dp4941
sg73
g4926
sg66
(lp4942
g59
(g60
g61
NtRp4943
(dp4944
g64
(dp4945
g72
I5
ssg73
g4939
sg66
(lp4946
S'default/sitsit.html'
p4947
asbasbasbasbasbsS'locals'
p4948
(dp4949
g4
S"r'C:\\Users\\Osku\\koodaus\\web2py\\applications\\sitsit\\views\\default/sitsit.html'"
p4950
sg6
S'r"response.write(\'<html>\\r\\n<head>\\r\\n\\t\\r\\n</head...r\\n\\r\\n</body>\\r\\n\\r\\n</html>\\r\\n\', escape=False)"'
p4951
sssS'traceback'
p4952
S'Traceback (most recent call last):\n  File "gluon/restricted.py", line 204, in restricted\n  File "gluon/restricted.py", line 189, in compile2\n  File "C:\\Users\\Osku\\koodaus\\web2py\\applications\\sitsit\\views\\default/sitsit.html", line 2\n    if !found:\n       ^\nSyntaxError: invalid syntax\n'
p4953
s.